
build/lutk.elf:     file format elf32-littlearm


Disassembly of section .startup:

08000000 <__rst_vector>:
 8000000:	20018000 	andcs	r8, r1, r0
 8000004:	08000191 	stmdaeq	r0, {r0, r4, r7, r8}
 8000008:	0800126d 	stmdaeq	r0, {r0, r2, r3, r5, r6, r9, ip}
 800000c:	08001273 	stmdaeq	r0, {r0, r1, r4, r5, r6, r9, ip}
 8000010:	08001279 	stmdaeq	r0, {r0, r3, r4, r5, r6, r9, ip}
 8000014:	0800127f 	stmdaeq	r0, {r0, r1, r2, r3, r4, r5, r6, r9, ip}
 8000018:	08001285 	stmdaeq	r0, {r0, r2, r7, r9, ip}
 800001c:	08001261 	stmdaeq	r0, {r0, r5, r6, r9, ip}
 8000020:	08001261 	stmdaeq	r0, {r0, r5, r6, r9, ip}
 8000024:	08001261 	stmdaeq	r0, {r0, r5, r6, r9, ip}
 8000028:	08001261 	stmdaeq	r0, {r0, r5, r6, r9, ip}
 800002c:	08001285 	stmdaeq	r0, {r0, r2, r7, r9, ip}
 8000030:	0800128f 	stmdaeq	r0, {r0, r1, r2, r3, r7, r9, ip}
 8000034:	08001261 	stmdaeq	r0, {r0, r5, r6, r9, ip}
 8000038:	0800128f 	stmdaeq	r0, {r0, r1, r2, r3, r7, r9, ip}
 800003c:	0800128f 	stmdaeq	r0, {r0, r1, r2, r3, r7, r9, ip}
 8000040:	08001294 	stmdaeq	r0, {r2, r4, r7, r9, ip}
 8000044:	08001294 	stmdaeq	r0, {r2, r4, r7, r9, ip}
 8000048:	08001294 	stmdaeq	r0, {r2, r4, r7, r9, ip}
 800004c:	08001294 	stmdaeq	r0, {r2, r4, r7, r9, ip}
 8000050:	08001294 	stmdaeq	r0, {r2, r4, r7, r9, ip}
 8000054:	08001294 	stmdaeq	r0, {r2, r4, r7, r9, ip}
 8000058:	08001294 	stmdaeq	r0, {r2, r4, r7, r9, ip}
 800005c:	08001294 	stmdaeq	r0, {r2, r4, r7, r9, ip}
 8000060:	08001294 	stmdaeq	r0, {r2, r4, r7, r9, ip}
 8000064:	08001294 	stmdaeq	r0, {r2, r4, r7, r9, ip}
 8000068:	08001294 	stmdaeq	r0, {r2, r4, r7, r9, ip}
 800006c:	08001294 	stmdaeq	r0, {r2, r4, r7, r9, ip}
 8000070:	08001294 	stmdaeq	r0, {r2, r4, r7, r9, ip}
 8000074:	08001294 	stmdaeq	r0, {r2, r4, r7, r9, ip}
 8000078:	08001294 	stmdaeq	r0, {r2, r4, r7, r9, ip}
 800007c:	08001294 	stmdaeq	r0, {r2, r4, r7, r9, ip}
 8000080:	08001294 	stmdaeq	r0, {r2, r4, r7, r9, ip}
 8000084:	08001294 	stmdaeq	r0, {r2, r4, r7, r9, ip}
 8000088:	08001294 	stmdaeq	r0, {r2, r4, r7, r9, ip}
 800008c:	08001294 	stmdaeq	r0, {r2, r4, r7, r9, ip}
 8000090:	08001294 	stmdaeq	r0, {r2, r4, r7, r9, ip}
 8000094:	08001294 	stmdaeq	r0, {r2, r4, r7, r9, ip}
 8000098:	08001294 	stmdaeq	r0, {r2, r4, r7, r9, ip}
 800009c:	08001294 	stmdaeq	r0, {r2, r4, r7, r9, ip}
 80000a0:	08001294 	stmdaeq	r0, {r2, r4, r7, r9, ip}
 80000a4:	08001294 	stmdaeq	r0, {r2, r4, r7, r9, ip}
 80000a8:	08001294 	stmdaeq	r0, {r2, r4, r7, r9, ip}
 80000ac:	08001294 	stmdaeq	r0, {r2, r4, r7, r9, ip}
 80000b0:	08001294 	stmdaeq	r0, {r2, r4, r7, r9, ip}
 80000b4:	08001294 	stmdaeq	r0, {r2, r4, r7, r9, ip}
 80000b8:	08001294 	stmdaeq	r0, {r2, r4, r7, r9, ip}
 80000bc:	08001294 	stmdaeq	r0, {r2, r4, r7, r9, ip}
 80000c0:	08001294 	stmdaeq	r0, {r2, r4, r7, r9, ip}
 80000c4:	08001294 	stmdaeq	r0, {r2, r4, r7, r9, ip}
 80000c8:	08001294 	stmdaeq	r0, {r2, r4, r7, r9, ip}
 80000cc:	08001294 	stmdaeq	r0, {r2, r4, r7, r9, ip}
 80000d0:	08001294 	stmdaeq	r0, {r2, r4, r7, r9, ip}
 80000d4:	08001294 	stmdaeq	r0, {r2, r4, r7, r9, ip}
 80000d8:	08001294 	stmdaeq	r0, {r2, r4, r7, r9, ip}
 80000dc:	08001294 	stmdaeq	r0, {r2, r4, r7, r9, ip}
 80000e0:	08001294 	stmdaeq	r0, {r2, r4, r7, r9, ip}
 80000e4:	08001294 	stmdaeq	r0, {r2, r4, r7, r9, ip}
 80000e8:	08001294 	stmdaeq	r0, {r2, r4, r7, r9, ip}
 80000ec:	08001294 	stmdaeq	r0, {r2, r4, r7, r9, ip}
 80000f0:	08001294 	stmdaeq	r0, {r2, r4, r7, r9, ip}
 80000f4:	08001294 	stmdaeq	r0, {r2, r4, r7, r9, ip}
 80000f8:	08001294 	stmdaeq	r0, {r2, r4, r7, r9, ip}
 80000fc:	08001294 	stmdaeq	r0, {r2, r4, r7, r9, ip}
 8000100:	08001294 	stmdaeq	r0, {r2, r4, r7, r9, ip}
 8000104:	08001294 	stmdaeq	r0, {r2, r4, r7, r9, ip}
 8000108:	08001294 	stmdaeq	r0, {r2, r4, r7, r9, ip}
 800010c:	08001294 	stmdaeq	r0, {r2, r4, r7, r9, ip}
 8000110:	08001294 	stmdaeq	r0, {r2, r4, r7, r9, ip}
 8000114:	08001294 	stmdaeq	r0, {r2, r4, r7, r9, ip}
 8000118:	08001294 	stmdaeq	r0, {r2, r4, r7, r9, ip}
 800011c:	08001294 	stmdaeq	r0, {r2, r4, r7, r9, ip}
 8000120:	08001294 	stmdaeq	r0, {r2, r4, r7, r9, ip}
 8000124:	08001294 	stmdaeq	r0, {r2, r4, r7, r9, ip}
 8000128:	08001294 	stmdaeq	r0, {r2, r4, r7, r9, ip}
 800012c:	08001294 	stmdaeq	r0, {r2, r4, r7, r9, ip}
 8000130:	08001294 	stmdaeq	r0, {r2, r4, r7, r9, ip}
 8000134:	08001294 	stmdaeq	r0, {r2, r4, r7, r9, ip}
 8000138:	08001294 	stmdaeq	r0, {r2, r4, r7, r9, ip}
 800013c:	08001294 	stmdaeq	r0, {r2, r4, r7, r9, ip}
 8000140:	08001294 	stmdaeq	r0, {r2, r4, r7, r9, ip}
 8000144:	08001294 	stmdaeq	r0, {r2, r4, r7, r9, ip}
 8000148:	08001294 	stmdaeq	r0, {r2, r4, r7, r9, ip}
 800014c:	08001294 	stmdaeq	r0, {r2, r4, r7, r9, ip}
 8000150:	08001294 	stmdaeq	r0, {r2, r4, r7, r9, ip}
 8000154:	08001294 	stmdaeq	r0, {r2, r4, r7, r9, ip}
 8000158:	08001294 	stmdaeq	r0, {r2, r4, r7, r9, ip}
 800015c:	08001294 	stmdaeq	r0, {r2, r4, r7, r9, ip}
 8000160:	08001294 	stmdaeq	r0, {r2, r4, r7, r9, ip}
 8000164:	08001294 	stmdaeq	r0, {r2, r4, r7, r9, ip}
 8000168:	08001294 	stmdaeq	r0, {r2, r4, r7, r9, ip}
 800016c:	08001294 	stmdaeq	r0, {r2, r4, r7, r9, ip}
 8000170:	08001294 	stmdaeq	r0, {r2, r4, r7, r9, ip}
 8000174:	08001294 	stmdaeq	r0, {r2, r4, r7, r9, ip}
 8000178:	08001294 	stmdaeq	r0, {r2, r4, r7, r9, ip}
 800017c:	08001294 	stmdaeq	r0, {r2, r4, r7, r9, ip}
 8000180:	08001294 	stmdaeq	r0, {r2, r4, r7, r9, ip}
 8000184:	08001294 	stmdaeq	r0, {r2, r4, r7, r9, ip}
 8000188:	08001294 	stmdaeq	r0, {r2, r4, r7, r9, ip}
 800018c:	08001294 	stmdaeq	r0, {r2, r4, r7, r9, ip}

08000190 <__rst_handler>:
 8000190:	f000 b800 	b.w	8000194 <__kernel_init>

08000194 <__kernel_init>:
 8000194:	ea80 0000 	eor.w	r0, r0, r0
 8000198:	ea81 0101 	eor.w	r1, r1, r1
 800019c:	ea82 0202 	eor.w	r2, r2, r2
 80001a0:	ea83 0303 	eor.w	r3, r3, r3
 80001a4:	ea84 0404 	eor.w	r4, r4, r4
 80001a8:	ea85 0505 	eor.w	r5, r5, r5
 80001ac:	ea86 0606 	eor.w	r6, r6, r6
 80001b0:	ea87 0707 	eor.w	r7, r7, r7
 80001b4:	4810      	ldr	r0, [pc, #64]	; (80001f8 <__kernel_data_init_end+0x14>)
 80001b6:	4685      	mov	sp, r0
 80001b8:	4810      	ldr	r0, [pc, #64]	; (80001fc <__kernel_data_init_end+0x18>)
 80001ba:	4911      	ldr	r1, [pc, #68]	; (8000200 <__kernel_data_init_end+0x1c>)
 80001bc:	ea82 0202 	eor.w	r2, r2, r2

080001c0 <__kernel_bss_init>:
 80001c0:	4288      	cmp	r0, r1
 80001c2:	d003      	beq.n	80001cc <__kernel_bss_init_end>
 80001c4:	6002      	str	r2, [r0, #0]
 80001c6:	f100 0004 	add.w	r0, r0, #4
 80001ca:	e7f9      	b.n	80001c0 <__kernel_bss_init>

080001cc <__kernel_bss_init_end>:
 80001cc:	480d      	ldr	r0, [pc, #52]	; (8000204 <__kernel_data_init_end+0x20>)
 80001ce:	490e      	ldr	r1, [pc, #56]	; (8000208 <__kernel_data_init_end+0x24>)
 80001d0:	4a0e      	ldr	r2, [pc, #56]	; (800020c <__kernel_data_init_end+0x28>)

080001d2 <__kernel_data_init>:
 80001d2:	4288      	cmp	r0, r1
 80001d4:	d006      	beq.n	80001e4 <__kernel_data_init_end>
 80001d6:	6813      	ldr	r3, [r2, #0]
 80001d8:	6003      	str	r3, [r0, #0]
 80001da:	f100 0004 	add.w	r0, r0, #4
 80001de:	f102 0204 	add.w	r2, r2, #4
 80001e2:	e7f6      	b.n	80001d2 <__kernel_data_init>

080001e4 <__kernel_data_init_end>:
 80001e4:	f001 f82a 	bl	800123c <__fpu_init>
 80001e8:	f001 f856 	bl	8001298 <__nvic_init>
 80001ec:	f000 fc0e 	bl	8000a0c <__bsp_init>
 80001f0:	f001 f8be 	bl	8001370 <kernel_kickstart>
 80001f4:	f001 b878 	b.w	80012e8 <kernel_panic>
 80001f8:	20018000 	andcs	r8, r1, r0
 80001fc:	20000000 	andcs	r0, r0, r0
 8000200:	20000010 	andcs	r0, r0, r0, lsl r0
 8000204:	20000000 	andcs	r0, r0, r0
 8000208:	20000000 	andcs	r0, r0, r0
 800020c:	08001abc 	stmdaeq	r0, {r2, r3, r4, r5, r7, r9, fp, ip}

Disassembly of section .text:

08000210 <user_main>:
 8000210:	b480      	push	{r7}
 8000212:	af00      	add	r7, sp, #0
 8000214:	2300      	movs	r3, #0
 8000216:	4618      	mov	r0, r3
 8000218:	46bd      	mov	sp, r7
 800021a:	f85d 7b04 	ldr.w	r7, [sp], #4
 800021e:	4770      	bx	lr

08000220 <cpu_mem_barrier>:
 8000220:	f3bf 8f4f 	dsb	sy
 8000224:	f3bf 8f6f 	isb	sy
 8000228:	4770      	bx	lr
	...

0800022c <bsp_clk_base_sys_init>:
 800022c:	b480      	push	{r7}
 800022e:	af00      	add	r7, sp, #0
 8000230:	4a09      	ldr	r2, [pc, #36]	; (8000258 <bsp_clk_base_sys_init+0x2c>)
 8000232:	4b09      	ldr	r3, [pc, #36]	; (8000258 <bsp_clk_base_sys_init+0x2c>)
 8000234:	681b      	ldr	r3, [r3, #0]
 8000236:	f023 03f9 	bic.w	r3, r3, #249	; 0xf9
 800023a:	f043 0381 	orr.w	r3, r3, #129	; 0x81
 800023e:	6013      	str	r3, [r2, #0]
 8000240:	bf00      	nop
 8000242:	4b05      	ldr	r3, [pc, #20]	; (8000258 <bsp_clk_base_sys_init+0x2c>)
 8000244:	681b      	ldr	r3, [r3, #0]
 8000246:	f003 0302 	and.w	r3, r3, #2
 800024a:	2b00      	cmp	r3, #0
 800024c:	d0f9      	beq.n	8000242 <bsp_clk_base_sys_init+0x16>
 800024e:	bf00      	nop
 8000250:	46bd      	mov	sp, r7
 8000252:	f85d 7b04 	ldr.w	r7, [sp], #4
 8000256:	4770      	bx	lr
 8000258:	40023800 	andmi	r3, r2, r0, lsl #16

0800025c <bsp_clk_pll_init>:
 800025c:	b480      	push	{r7}
 800025e:	af00      	add	r7, sp, #0
 8000260:	490e      	ldr	r1, [pc, #56]	; (800029c <bsp_clk_pll_init+0x40>)
 8000262:	4b0e      	ldr	r3, [pc, #56]	; (800029c <bsp_clk_pll_init+0x40>)
 8000264:	681a      	ldr	r2, [r3, #0]
 8000266:	4b0e      	ldr	r3, [pc, #56]	; (80002a0 <bsp_clk_pll_init+0x44>)
 8000268:	4013      	ands	r3, r2
 800026a:	600b      	str	r3, [r1, #0]
 800026c:	490b      	ldr	r1, [pc, #44]	; (800029c <bsp_clk_pll_init+0x40>)
 800026e:	4b0b      	ldr	r3, [pc, #44]	; (800029c <bsp_clk_pll_init+0x40>)
 8000270:	681a      	ldr	r2, [r3, #0]
 8000272:	4b0c      	ldr	r3, [pc, #48]	; (80002a4 <bsp_clk_pll_init+0x48>)
 8000274:	4313      	orrs	r3, r2
 8000276:	600b      	str	r3, [r1, #0]
 8000278:	4a0b      	ldr	r2, [pc, #44]	; (80002a8 <bsp_clk_pll_init+0x4c>)
 800027a:	4b0b      	ldr	r3, [pc, #44]	; (80002a8 <bsp_clk_pll_init+0x4c>)
 800027c:	681b      	ldr	r3, [r3, #0]
 800027e:	f043 7380 	orr.w	r3, r3, #16777216	; 0x1000000
 8000282:	6013      	str	r3, [r2, #0]
 8000284:	bf00      	nop
 8000286:	4b08      	ldr	r3, [pc, #32]	; (80002a8 <bsp_clk_pll_init+0x4c>)
 8000288:	681b      	ldr	r3, [r3, #0]
 800028a:	f003 7300 	and.w	r3, r3, #33554432	; 0x2000000
 800028e:	2b00      	cmp	r3, #0
 8000290:	d0f9      	beq.n	8000286 <bsp_clk_pll_init+0x2a>
 8000292:	bf00      	nop
 8000294:	46bd      	mov	sp, r7
 8000296:	f85d 7b04 	ldr.w	r7, [sp], #4
 800029a:	4770      	bx	lr
 800029c:	40023804 	andmi	r3, r2, r4, lsl #16
 80002a0:	f0bc8000 			; <UNDEFINED> instruction: 0xf0bc8000
 80002a4:	08015410 	stmdaeq	r1, {r4, sl, ip, lr}
 80002a8:	40023800 	andmi	r3, r2, r0, lsl #16

080002ac <bsp_clk_switch_to_pll>:
 80002ac:	b480      	push	{r7}
 80002ae:	af00      	add	r7, sp, #0
 80002b0:	4a10      	ldr	r2, [pc, #64]	; (80002f4 <bsp_clk_switch_to_pll+0x48>)
 80002b2:	4b10      	ldr	r3, [pc, #64]	; (80002f4 <bsp_clk_switch_to_pll+0x48>)
 80002b4:	681b      	ldr	r3, [r3, #0]
 80002b6:	f423 437c 	bic.w	r3, r3, #64512	; 0xfc00
 80002ba:	f023 03f0 	bic.w	r3, r3, #240	; 0xf0
 80002be:	6013      	str	r3, [r2, #0]
 80002c0:	4a0c      	ldr	r2, [pc, #48]	; (80002f4 <bsp_clk_switch_to_pll+0x48>)
 80002c2:	4b0c      	ldr	r3, [pc, #48]	; (80002f4 <bsp_clk_switch_to_pll+0x48>)
 80002c4:	681b      	ldr	r3, [r3, #0]
 80002c6:	f443 5380 	orr.w	r3, r3, #4096	; 0x1000
 80002ca:	6013      	str	r3, [r2, #0]
 80002cc:	4a09      	ldr	r2, [pc, #36]	; (80002f4 <bsp_clk_switch_to_pll+0x48>)
 80002ce:	4b09      	ldr	r3, [pc, #36]	; (80002f4 <bsp_clk_switch_to_pll+0x48>)
 80002d0:	681b      	ldr	r3, [r3, #0]
 80002d2:	f023 0303 	bic.w	r3, r3, #3
 80002d6:	f043 0302 	orr.w	r3, r3, #2
 80002da:	6013      	str	r3, [r2, #0]
 80002dc:	bf00      	nop
 80002de:	4b05      	ldr	r3, [pc, #20]	; (80002f4 <bsp_clk_switch_to_pll+0x48>)
 80002e0:	681b      	ldr	r3, [r3, #0]
 80002e2:	f003 030c 	and.w	r3, r3, #12
 80002e6:	2b08      	cmp	r3, #8
 80002e8:	d1f9      	bne.n	80002de <bsp_clk_switch_to_pll+0x32>
 80002ea:	bf00      	nop
 80002ec:	46bd      	mov	sp, r7
 80002ee:	f85d 7b04 	ldr.w	r7, [sp], #4
 80002f2:	4770      	bx	lr
 80002f4:	40023808 	andmi	r3, r2, r8, lsl #16

080002f8 <bsp_clock_get_pll_freq>:
 80002f8:	b480      	push	{r7}
 80002fa:	b083      	sub	sp, #12
 80002fc:	af00      	add	r7, sp, #0
 80002fe:	4b17      	ldr	r3, [pc, #92]	; (800035c <bsp_clock_get_pll_freq+0x64>)
 8000300:	681b      	ldr	r3, [r3, #0]
 8000302:	f403 0380 	and.w	r3, r3, #4194304	; 0x400000
 8000306:	2b00      	cmp	r3, #0
 8000308:	d102      	bne.n	8000310 <bsp_clock_get_pll_freq+0x18>
 800030a:	4b15      	ldr	r3, [pc, #84]	; (8000360 <bsp_clock_get_pll_freq+0x68>)
 800030c:	607b      	str	r3, [r7, #4]
 800030e:	e001      	b.n	8000314 <bsp_clock_get_pll_freq+0x1c>
 8000310:	2300      	movs	r3, #0
 8000312:	607b      	str	r3, [r7, #4]
 8000314:	4b11      	ldr	r3, [pc, #68]	; (800035c <bsp_clock_get_pll_freq+0x64>)
 8000316:	681b      	ldr	r3, [r3, #0]
 8000318:	f003 033f 	and.w	r3, r3, #63	; 0x3f
 800031c:	687a      	ldr	r2, [r7, #4]
 800031e:	fbb2 f3f3 	udiv	r3, r2, r3
 8000322:	607b      	str	r3, [r7, #4]
 8000324:	4b0d      	ldr	r3, [pc, #52]	; (800035c <bsp_clock_get_pll_freq+0x64>)
 8000326:	681b      	ldr	r3, [r3, #0]
 8000328:	099b      	lsrs	r3, r3, #6
 800032a:	f3c3 0208 	ubfx	r2, r3, #0, #9
 800032e:	687b      	ldr	r3, [r7, #4]
 8000330:	fb02 f303 	mul.w	r3, r2, r3
 8000334:	607b      	str	r3, [r7, #4]
 8000336:	4b09      	ldr	r3, [pc, #36]	; (800035c <bsp_clock_get_pll_freq+0x64>)
 8000338:	681b      	ldr	r3, [r3, #0]
 800033a:	0c1b      	lsrs	r3, r3, #16
 800033c:	f003 0303 	and.w	r3, r3, #3
 8000340:	3301      	adds	r3, #1
 8000342:	005b      	lsls	r3, r3, #1
 8000344:	687a      	ldr	r2, [r7, #4]
 8000346:	fbb2 f3f3 	udiv	r3, r2, r3
 800034a:	607b      	str	r3, [r7, #4]
 800034c:	687b      	ldr	r3, [r7, #4]
 800034e:	4618      	mov	r0, r3
 8000350:	370c      	adds	r7, #12
 8000352:	46bd      	mov	sp, r7
 8000354:	f85d 7b04 	ldr.w	r7, [sp], #4
 8000358:	4770      	bx	lr
 800035a:	bf00      	nop
 800035c:	40023804 	andmi	r3, r2, r4, lsl #16
 8000360:	00f42400 	rscseq	r2, r4, r0, lsl #8

08000364 <bsp_clk_gpio_enable>:
 8000364:	b580      	push	{r7, lr}
 8000366:	b084      	sub	sp, #16
 8000368:	af00      	add	r7, sp, #0
 800036a:	4603      	mov	r3, r0
 800036c:	71fb      	strb	r3, [r7, #7]
 800036e:	79fb      	ldrb	r3, [r7, #7]
 8000370:	2b05      	cmp	r3, #5
 8000372:	d821      	bhi.n	80003b8 <bsp_clk_gpio_enable+0x54>
 8000374:	a201      	add	r2, pc, #4	; (adr r2, 800037c <bsp_clk_gpio_enable+0x18>)
 8000376:	f852 f023 	ldr.w	pc, [r2, r3, lsl #2]
 800037a:	bf00      	nop
 800037c:	08000395 	stmdaeq	r0, {r0, r2, r4, r7, r8, r9}
 8000380:	0800039b 	stmdaeq	r0, {r0, r1, r3, r4, r7, r8, r9}
 8000384:	080003a1 	stmdaeq	r0, {r0, r5, r7, r8, r9}
 8000388:	080003a7 	stmdaeq	r0, {r0, r1, r2, r5, r7, r8, r9}
 800038c:	080003ad 	stmdaeq	r0, {r0, r2, r3, r5, r7, r8, r9}
 8000390:	080003b3 	stmdaeq	r0, {r0, r1, r4, r5, r7, r8, r9}
 8000394:	2301      	movs	r3, #1
 8000396:	60fb      	str	r3, [r7, #12]
 8000398:	e010      	b.n	80003bc <bsp_clk_gpio_enable+0x58>
 800039a:	2302      	movs	r3, #2
 800039c:	60fb      	str	r3, [r7, #12]
 800039e:	e00d      	b.n	80003bc <bsp_clk_gpio_enable+0x58>
 80003a0:	2304      	movs	r3, #4
 80003a2:	60fb      	str	r3, [r7, #12]
 80003a4:	e00a      	b.n	80003bc <bsp_clk_gpio_enable+0x58>
 80003a6:	2308      	movs	r3, #8
 80003a8:	60fb      	str	r3, [r7, #12]
 80003aa:	e007      	b.n	80003bc <bsp_clk_gpio_enable+0x58>
 80003ac:	2310      	movs	r3, #16
 80003ae:	60fb      	str	r3, [r7, #12]
 80003b0:	e004      	b.n	80003bc <bsp_clk_gpio_enable+0x58>
 80003b2:	2380      	movs	r3, #128	; 0x80
 80003b4:	60fb      	str	r3, [r7, #12]
 80003b6:	e001      	b.n	80003bc <bsp_clk_gpio_enable+0x58>
 80003b8:	2300      	movs	r3, #0
 80003ba:	60fb      	str	r3, [r7, #12]
 80003bc:	68fb      	ldr	r3, [r7, #12]
 80003be:	2b00      	cmp	r3, #0
 80003c0:	d107      	bne.n	80003d2 <bsp_clk_gpio_enable+0x6e>
 80003c2:	1df9      	adds	r1, r7, #7
 80003c4:	2301      	movs	r3, #1
 80003c6:	2201      	movs	r2, #1
 80003c8:	480e      	ldr	r0, [pc, #56]	; (8000404 <bsp_clk_gpio_enable+0xa0>)
 80003ca:	f001 f92d 	bl	8001628 <KERNEL_LOG_ERROR>
 80003ce:	2301      	movs	r3, #1
 80003d0:	e013      	b.n	80003fa <bsp_clk_gpio_enable+0x96>
 80003d2:	490d      	ldr	r1, [pc, #52]	; (8000408 <bsp_clk_gpio_enable+0xa4>)
 80003d4:	4b0c      	ldr	r3, [pc, #48]	; (8000408 <bsp_clk_gpio_enable+0xa4>)
 80003d6:	681a      	ldr	r2, [r3, #0]
 80003d8:	68fb      	ldr	r3, [r7, #12]
 80003da:	4313      	orrs	r3, r2
 80003dc:	600b      	str	r3, [r1, #0]
 80003de:	bf00      	nop
 80003e0:	4b09      	ldr	r3, [pc, #36]	; (8000408 <bsp_clk_gpio_enable+0xa4>)
 80003e2:	681a      	ldr	r2, [r3, #0]
 80003e4:	68fb      	ldr	r3, [r7, #12]
 80003e6:	4013      	ands	r3, r2
 80003e8:	2b00      	cmp	r3, #0
 80003ea:	d0f9      	beq.n	80003e0 <bsp_clk_gpio_enable+0x7c>
 80003ec:	1df9      	adds	r1, r7, #7
 80003ee:	2300      	movs	r3, #0
 80003f0:	2201      	movs	r2, #1
 80003f2:	4806      	ldr	r0, [pc, #24]	; (800040c <bsp_clk_gpio_enable+0xa8>)
 80003f4:	f001 f8d8 	bl	80015a8 <KERNEL_LOG_INFO>
 80003f8:	2300      	movs	r3, #0
 80003fa:	4618      	mov	r0, r3
 80003fc:	3710      	adds	r7, #16
 80003fe:	46bd      	mov	sp, r7
 8000400:	bd80      	pop	{r7, pc}
 8000402:	bf00      	nop
 8000404:	08001774 	stmdaeq	r0, {r2, r4, r5, r6, r8, r9, sl, ip}
 8000408:	40023830 	andmi	r3, r2, r0, lsr r8
 800040c:	0800178c 	stmdaeq	r0, {r2, r3, r7, r8, r9, sl, ip}

08000410 <bsp_clk_usart_enable>:
 8000410:	b580      	push	{r7, lr}
 8000412:	b084      	sub	sp, #16
 8000414:	af00      	add	r7, sp, #0
 8000416:	4603      	mov	r3, r0
 8000418:	71fb      	strb	r3, [r7, #7]
 800041a:	2300      	movs	r3, #0
 800041c:	73fb      	strb	r3, [r7, #15]
 800041e:	79fb      	ldrb	r3, [r7, #7]
 8000420:	2b01      	cmp	r3, #1
 8000422:	d011      	beq.n	8000448 <bsp_clk_usart_enable+0x38>
 8000424:	2b03      	cmp	r3, #3
 8000426:	d01d      	beq.n	8000464 <bsp_clk_usart_enable+0x54>
 8000428:	2b00      	cmp	r3, #0
 800042a:	d129      	bne.n	8000480 <bsp_clk_usart_enable+0x70>
 800042c:	4a1f      	ldr	r2, [pc, #124]	; (80004ac <bsp_clk_usart_enable+0x9c>)
 800042e:	4b1f      	ldr	r3, [pc, #124]	; (80004ac <bsp_clk_usart_enable+0x9c>)
 8000430:	681b      	ldr	r3, [r3, #0]
 8000432:	f043 0310 	orr.w	r3, r3, #16
 8000436:	6013      	str	r3, [r2, #0]
 8000438:	bf00      	nop
 800043a:	4b1c      	ldr	r3, [pc, #112]	; (80004ac <bsp_clk_usart_enable+0x9c>)
 800043c:	681b      	ldr	r3, [r3, #0]
 800043e:	f003 0310 	and.w	r3, r3, #16
 8000442:	2b00      	cmp	r3, #0
 8000444:	d0f9      	beq.n	800043a <bsp_clk_usart_enable+0x2a>
 8000446:	e023      	b.n	8000490 <bsp_clk_usart_enable+0x80>
 8000448:	4a19      	ldr	r2, [pc, #100]	; (80004b0 <bsp_clk_usart_enable+0xa0>)
 800044a:	4b19      	ldr	r3, [pc, #100]	; (80004b0 <bsp_clk_usart_enable+0xa0>)
 800044c:	681b      	ldr	r3, [r3, #0]
 800044e:	f443 3300 	orr.w	r3, r3, #131072	; 0x20000
 8000452:	6013      	str	r3, [r2, #0]
 8000454:	bf00      	nop
 8000456:	4b16      	ldr	r3, [pc, #88]	; (80004b0 <bsp_clk_usart_enable+0xa0>)
 8000458:	681b      	ldr	r3, [r3, #0]
 800045a:	f403 3300 	and.w	r3, r3, #131072	; 0x20000
 800045e:	2b00      	cmp	r3, #0
 8000460:	d0f9      	beq.n	8000456 <bsp_clk_usart_enable+0x46>
 8000462:	e015      	b.n	8000490 <bsp_clk_usart_enable+0x80>
 8000464:	4a11      	ldr	r2, [pc, #68]	; (80004ac <bsp_clk_usart_enable+0x9c>)
 8000466:	4b11      	ldr	r3, [pc, #68]	; (80004ac <bsp_clk_usart_enable+0x9c>)
 8000468:	681b      	ldr	r3, [r3, #0]
 800046a:	f043 0320 	orr.w	r3, r3, #32
 800046e:	6013      	str	r3, [r2, #0]
 8000470:	bf00      	nop
 8000472:	4b0e      	ldr	r3, [pc, #56]	; (80004ac <bsp_clk_usart_enable+0x9c>)
 8000474:	681b      	ldr	r3, [r3, #0]
 8000476:	f003 0320 	and.w	r3, r3, #32
 800047a:	2b00      	cmp	r3, #0
 800047c:	d0f9      	beq.n	8000472 <bsp_clk_usart_enable+0x62>
 800047e:	e007      	b.n	8000490 <bsp_clk_usart_enable+0x80>
 8000480:	1df9      	adds	r1, r7, #7
 8000482:	2301      	movs	r3, #1
 8000484:	2201      	movs	r2, #1
 8000486:	480b      	ldr	r0, [pc, #44]	; (80004b4 <bsp_clk_usart_enable+0xa4>)
 8000488:	f001 f8ce 	bl	8001628 <KERNEL_LOG_ERROR>
 800048c:	2301      	movs	r3, #1
 800048e:	73fb      	strb	r3, [r7, #15]
 8000490:	7bfb      	ldrb	r3, [r7, #15]
 8000492:	2b00      	cmp	r3, #0
 8000494:	d105      	bne.n	80004a2 <bsp_clk_usart_enable+0x92>
 8000496:	1df9      	adds	r1, r7, #7
 8000498:	2300      	movs	r3, #0
 800049a:	2201      	movs	r2, #1
 800049c:	4806      	ldr	r0, [pc, #24]	; (80004b8 <bsp_clk_usart_enable+0xa8>)
 800049e:	f001 f883 	bl	80015a8 <KERNEL_LOG_INFO>
 80004a2:	7bfb      	ldrb	r3, [r7, #15]
 80004a4:	4618      	mov	r0, r3
 80004a6:	3710      	adds	r7, #16
 80004a8:	46bd      	mov	sp, r7
 80004aa:	bd80      	pop	{r7, pc}
 80004ac:	40023844 	andmi	r3, r2, r4, asr #16
 80004b0:	40023840 	andmi	r3, r2, r0, asr #16
 80004b4:	080017a0 	stmdaeq	r0, {r5, r7, r8, r9, sl, ip}
 80004b8:	080017b8 	stmdaeq	r0, {r3, r4, r5, r7, r8, r9, sl, ip}

080004bc <bsp_clk_sys_init>:
 80004bc:	b580      	push	{r7, lr}
 80004be:	b082      	sub	sp, #8
 80004c0:	af00      	add	r7, sp, #0
 80004c2:	4b31      	ldr	r3, [pc, #196]	; (8000588 <bsp_clk_sys_init+0xcc>)
 80004c4:	781b      	ldrb	r3, [r3, #0]
 80004c6:	2b00      	cmp	r3, #0
 80004c8:	d007      	beq.n	80004da <bsp_clk_sys_init+0x1e>
 80004ca:	2302      	movs	r3, #2
 80004cc:	2200      	movs	r2, #0
 80004ce:	2100      	movs	r1, #0
 80004d0:	482e      	ldr	r0, [pc, #184]	; (800058c <bsp_clk_sys_init+0xd0>)
 80004d2:	f001 f8a9 	bl	8001628 <KERNEL_LOG_ERROR>
 80004d6:	2302      	movs	r3, #2
 80004d8:	e052      	b.n	8000580 <bsp_clk_sys_init+0xc4>
 80004da:	4a2d      	ldr	r2, [pc, #180]	; (8000590 <bsp_clk_sys_init+0xd4>)
 80004dc:	4b2c      	ldr	r3, [pc, #176]	; (8000590 <bsp_clk_sys_init+0xd4>)
 80004de:	681b      	ldr	r3, [r3, #0]
 80004e0:	f043 5380 	orr.w	r3, r3, #268435456	; 0x10000000
 80004e4:	6013      	str	r3, [r2, #0]
 80004e6:	bf00      	nop
 80004e8:	4b29      	ldr	r3, [pc, #164]	; (8000590 <bsp_clk_sys_init+0xd4>)
 80004ea:	681b      	ldr	r3, [r3, #0]
 80004ec:	f003 5380 	and.w	r3, r3, #268435456	; 0x10000000
 80004f0:	2b00      	cmp	r3, #0
 80004f2:	d0f9      	beq.n	80004e8 <bsp_clk_sys_init+0x2c>
 80004f4:	4a27      	ldr	r2, [pc, #156]	; (8000594 <bsp_clk_sys_init+0xd8>)
 80004f6:	4b27      	ldr	r3, [pc, #156]	; (8000594 <bsp_clk_sys_init+0xd8>)
 80004f8:	681b      	ldr	r3, [r3, #0]
 80004fa:	f443 4380 	orr.w	r3, r3, #16384	; 0x4000
 80004fe:	6013      	str	r3, [r2, #0]
 8000500:	bf00      	nop
 8000502:	4b24      	ldr	r3, [pc, #144]	; (8000594 <bsp_clk_sys_init+0xd8>)
 8000504:	681b      	ldr	r3, [r3, #0]
 8000506:	f403 4380 	and.w	r3, r3, #16384	; 0x4000
 800050a:	2b00      	cmp	r3, #0
 800050c:	d0f9      	beq.n	8000502 <bsp_clk_sys_init+0x46>
 800050e:	f44f 4000 	mov.w	r0, #32768	; 0x8000
 8000512:	f000 fa91 	bl	8000a38 <bsp_pwr_set_scaling>
 8000516:	4603      	mov	r3, r0
 8000518:	71fb      	strb	r3, [r7, #7]
 800051a:	79fb      	ldrb	r3, [r7, #7]
 800051c:	2b00      	cmp	r3, #0
 800051e:	d001      	beq.n	8000524 <bsp_clk_sys_init+0x68>
 8000520:	79fb      	ldrb	r3, [r7, #7]
 8000522:	e02d      	b.n	8000580 <bsp_clk_sys_init+0xc4>
 8000524:	2002      	movs	r0, #2
 8000526:	f000 f911 	bl	800074c <bsp_flash_set_latency>
 800052a:	4603      	mov	r3, r0
 800052c:	71fb      	strb	r3, [r7, #7]
 800052e:	79fb      	ldrb	r3, [r7, #7]
 8000530:	2b00      	cmp	r3, #0
 8000532:	d001      	beq.n	8000538 <bsp_clk_sys_init+0x7c>
 8000534:	79fb      	ldrb	r3, [r7, #7]
 8000536:	e023      	b.n	8000580 <bsp_clk_sys_init+0xc4>
 8000538:	f7ff fe78 	bl	800022c <bsp_clk_base_sys_init>
 800053c:	f7ff fe8e 	bl	800025c <bsp_clk_pll_init>
 8000540:	f7ff feb4 	bl	80002ac <bsp_clk_switch_to_pll>
 8000544:	2000      	movs	r0, #0
 8000546:	f7ff ff0d 	bl	8000364 <bsp_clk_gpio_enable>
 800054a:	4603      	mov	r3, r0
 800054c:	71fb      	strb	r3, [r7, #7]
 800054e:	79fb      	ldrb	r3, [r7, #7]
 8000550:	2b00      	cmp	r3, #0
 8000552:	d001      	beq.n	8000558 <bsp_clk_sys_init+0x9c>
 8000554:	79fb      	ldrb	r3, [r7, #7]
 8000556:	e013      	b.n	8000580 <bsp_clk_sys_init+0xc4>
 8000558:	2001      	movs	r0, #1
 800055a:	f7ff ff59 	bl	8000410 <bsp_clk_usart_enable>
 800055e:	4603      	mov	r3, r0
 8000560:	71fb      	strb	r3, [r7, #7]
 8000562:	79fb      	ldrb	r3, [r7, #7]
 8000564:	2b00      	cmp	r3, #0
 8000566:	d001      	beq.n	800056c <bsp_clk_sys_init+0xb0>
 8000568:	79fb      	ldrb	r3, [r7, #7]
 800056a:	e009      	b.n	8000580 <bsp_clk_sys_init+0xc4>
 800056c:	2300      	movs	r3, #0
 800056e:	2200      	movs	r2, #0
 8000570:	2100      	movs	r1, #0
 8000572:	4809      	ldr	r0, [pc, #36]	; (8000598 <bsp_clk_sys_init+0xdc>)
 8000574:	f001 f818 	bl	80015a8 <KERNEL_LOG_INFO>
 8000578:	4b03      	ldr	r3, [pc, #12]	; (8000588 <bsp_clk_sys_init+0xcc>)
 800057a:	2201      	movs	r2, #1
 800057c:	701a      	strb	r2, [r3, #0]
 800057e:	2300      	movs	r3, #0
 8000580:	4618      	mov	r0, r3
 8000582:	3708      	adds	r7, #8
 8000584:	46bd      	mov	sp, r7
 8000586:	bd80      	pop	{r7, pc}
 8000588:	20000004 	andcs	r0, r0, r4
 800058c:	080017cc 	stmdaeq	r0, {r2, r3, r6, r7, r8, r9, sl, ip}
 8000590:	40023840 	andmi	r3, r2, r0, asr #16
 8000594:	40023844 	andmi	r3, r2, r4, asr #16
 8000598:	080017f0 	stmdaeq	r0, {r4, r5, r6, r7, r8, r9, sl, ip}

0800059c <bsp_clocks_get_freq>:
 800059c:	b580      	push	{r7, lr}
 800059e:	b084      	sub	sp, #16
 80005a0:	af00      	add	r7, sp, #0
 80005a2:	4603      	mov	r3, r0
 80005a4:	71fb      	strb	r3, [r7, #7]
 80005a6:	4b47      	ldr	r3, [pc, #284]	; (80006c4 <bsp_clocks_get_freq+0x128>)
 80005a8:	681b      	ldr	r3, [r3, #0]
 80005aa:	f003 030c 	and.w	r3, r3, #12
 80005ae:	2b08      	cmp	r3, #8
 80005b0:	d104      	bne.n	80005bc <bsp_clocks_get_freq+0x20>
 80005b2:	f7ff fea1 	bl	80002f8 <bsp_clock_get_pll_freq>
 80005b6:	4603      	mov	r3, r0
 80005b8:	60bb      	str	r3, [r7, #8]
 80005ba:	e013      	b.n	80005e4 <bsp_clocks_get_freq+0x48>
 80005bc:	4b41      	ldr	r3, [pc, #260]	; (80006c4 <bsp_clocks_get_freq+0x128>)
 80005be:	681b      	ldr	r3, [r3, #0]
 80005c0:	f003 030c 	and.w	r3, r3, #12
 80005c4:	2b00      	cmp	r3, #0
 80005c6:	d102      	bne.n	80005ce <bsp_clocks_get_freq+0x32>
 80005c8:	4b3f      	ldr	r3, [pc, #252]	; (80006c8 <bsp_clocks_get_freq+0x12c>)
 80005ca:	60bb      	str	r3, [r7, #8]
 80005cc:	e00a      	b.n	80005e4 <bsp_clocks_get_freq+0x48>
 80005ce:	4b3d      	ldr	r3, [pc, #244]	; (80006c4 <bsp_clocks_get_freq+0x128>)
 80005d0:	681b      	ldr	r3, [r3, #0]
 80005d2:	f003 030c 	and.w	r3, r3, #12
 80005d6:	2b04      	cmp	r3, #4
 80005d8:	d102      	bne.n	80005e0 <bsp_clocks_get_freq+0x44>
 80005da:	2300      	movs	r3, #0
 80005dc:	60bb      	str	r3, [r7, #8]
 80005de:	e001      	b.n	80005e4 <bsp_clocks_get_freq+0x48>
 80005e0:	2300      	movs	r3, #0
 80005e2:	e06b      	b.n	80006bc <bsp_clocks_get_freq+0x120>
 80005e4:	4b37      	ldr	r3, [pc, #220]	; (80006c4 <bsp_clocks_get_freq+0x128>)
 80005e6:	681b      	ldr	r3, [r3, #0]
 80005e8:	f003 0380 	and.w	r3, r3, #128	; 0x80
 80005ec:	2b00      	cmp	r3, #0
 80005ee:	d00d      	beq.n	800060c <bsp_clocks_get_freq+0x70>
 80005f0:	4b34      	ldr	r3, [pc, #208]	; (80006c4 <bsp_clocks_get_freq+0x128>)
 80005f2:	681b      	ldr	r3, [r3, #0]
 80005f4:	091b      	lsrs	r3, r3, #4
 80005f6:	f003 0307 	and.w	r3, r3, #7
 80005fa:	60fb      	str	r3, [r7, #12]
 80005fc:	68bb      	ldr	r3, [r7, #8]
 80005fe:	4933      	ldr	r1, [pc, #204]	; (80006cc <bsp_clocks_get_freq+0x130>)
 8000600:	68fa      	ldr	r2, [r7, #12]
 8000602:	f831 2012 	ldrh.w	r2, [r1, r2, lsl #1]
 8000606:	fbb3 f3f2 	udiv	r3, r3, r2
 800060a:	60bb      	str	r3, [r7, #8]
 800060c:	79fb      	ldrb	r3, [r7, #7]
 800060e:	2b01      	cmp	r3, #1
 8000610:	d002      	beq.n	8000618 <bsp_clocks_get_freq+0x7c>
 8000612:	79fb      	ldrb	r3, [r7, #7]
 8000614:	2b02      	cmp	r3, #2
 8000616:	d101      	bne.n	800061c <bsp_clocks_get_freq+0x80>
 8000618:	68bb      	ldr	r3, [r7, #8]
 800061a:	e04f      	b.n	80006bc <bsp_clocks_get_freq+0x120>
 800061c:	79fb      	ldrb	r3, [r7, #7]
 800061e:	2b03      	cmp	r3, #3
 8000620:	d002      	beq.n	8000628 <bsp_clocks_get_freq+0x8c>
 8000622:	79fb      	ldrb	r3, [r7, #7]
 8000624:	2b05      	cmp	r3, #5
 8000626:	d11a      	bne.n	800065e <bsp_clocks_get_freq+0xc2>
 8000628:	4b26      	ldr	r3, [pc, #152]	; (80006c4 <bsp_clocks_get_freq+0x128>)
 800062a:	681b      	ldr	r3, [r3, #0]
 800062c:	f403 5380 	and.w	r3, r3, #4096	; 0x1000
 8000630:	2b00      	cmp	r3, #0
 8000632:	d038      	beq.n	80006a6 <bsp_clocks_get_freq+0x10a>
 8000634:	4b23      	ldr	r3, [pc, #140]	; (80006c4 <bsp_clocks_get_freq+0x128>)
 8000636:	681b      	ldr	r3, [r3, #0]
 8000638:	0a9b      	lsrs	r3, r3, #10
 800063a:	f003 0303 	and.w	r3, r3, #3
 800063e:	60fb      	str	r3, [r7, #12]
 8000640:	68bb      	ldr	r3, [r7, #8]
 8000642:	4923      	ldr	r1, [pc, #140]	; (80006d0 <bsp_clocks_get_freq+0x134>)
 8000644:	68fa      	ldr	r2, [r7, #12]
 8000646:	440a      	add	r2, r1
 8000648:	7812      	ldrb	r2, [r2, #0]
 800064a:	fbb3 f3f2 	udiv	r3, r3, r2
 800064e:	60bb      	str	r3, [r7, #8]
 8000650:	79fb      	ldrb	r3, [r7, #7]
 8000652:	2b05      	cmp	r3, #5
 8000654:	d127      	bne.n	80006a6 <bsp_clocks_get_freq+0x10a>
 8000656:	68bb      	ldr	r3, [r7, #8]
 8000658:	005b      	lsls	r3, r3, #1
 800065a:	60bb      	str	r3, [r7, #8]
 800065c:	e023      	b.n	80006a6 <bsp_clocks_get_freq+0x10a>
 800065e:	79fb      	ldrb	r3, [r7, #7]
 8000660:	2b04      	cmp	r3, #4
 8000662:	d002      	beq.n	800066a <bsp_clocks_get_freq+0xce>
 8000664:	79fb      	ldrb	r3, [r7, #7]
 8000666:	2b06      	cmp	r3, #6
 8000668:	d11a      	bne.n	80006a0 <bsp_clocks_get_freq+0x104>
 800066a:	4b16      	ldr	r3, [pc, #88]	; (80006c4 <bsp_clocks_get_freq+0x128>)
 800066c:	681b      	ldr	r3, [r3, #0]
 800066e:	f403 4300 	and.w	r3, r3, #32768	; 0x8000
 8000672:	2b00      	cmp	r3, #0
 8000674:	d019      	beq.n	80006aa <bsp_clocks_get_freq+0x10e>
 8000676:	4b13      	ldr	r3, [pc, #76]	; (80006c4 <bsp_clocks_get_freq+0x128>)
 8000678:	681b      	ldr	r3, [r3, #0]
 800067a:	0b5b      	lsrs	r3, r3, #13
 800067c:	f003 0303 	and.w	r3, r3, #3
 8000680:	60fb      	str	r3, [r7, #12]
 8000682:	68bb      	ldr	r3, [r7, #8]
 8000684:	4912      	ldr	r1, [pc, #72]	; (80006d0 <bsp_clocks_get_freq+0x134>)
 8000686:	68fa      	ldr	r2, [r7, #12]
 8000688:	440a      	add	r2, r1
 800068a:	7812      	ldrb	r2, [r2, #0]
 800068c:	fbb3 f3f2 	udiv	r3, r3, r2
 8000690:	60bb      	str	r3, [r7, #8]
 8000692:	79fb      	ldrb	r3, [r7, #7]
 8000694:	2b06      	cmp	r3, #6
 8000696:	d108      	bne.n	80006aa <bsp_clocks_get_freq+0x10e>
 8000698:	68bb      	ldr	r3, [r7, #8]
 800069a:	005b      	lsls	r3, r3, #1
 800069c:	60bb      	str	r3, [r7, #8]
 800069e:	e004      	b.n	80006aa <bsp_clocks_get_freq+0x10e>
 80006a0:	2300      	movs	r3, #0
 80006a2:	60bb      	str	r3, [r7, #8]
 80006a4:	e002      	b.n	80006ac <bsp_clocks_get_freq+0x110>
 80006a6:	bf00      	nop
 80006a8:	e000      	b.n	80006ac <bsp_clocks_get_freq+0x110>
 80006aa:	bf00      	nop
 80006ac:	f107 0108 	add.w	r1, r7, #8
 80006b0:	2300      	movs	r3, #0
 80006b2:	2204      	movs	r2, #4
 80006b4:	4807      	ldr	r0, [pc, #28]	; (80006d4 <bsp_clocks_get_freq+0x138>)
 80006b6:	f000 ff77 	bl	80015a8 <KERNEL_LOG_INFO>
 80006ba:	68bb      	ldr	r3, [r7, #8]
 80006bc:	4618      	mov	r0, r3
 80006be:	3710      	adds	r7, #16
 80006c0:	46bd      	mov	sp, r7
 80006c2:	bd80      	pop	{r7, pc}
 80006c4:	40023808 	andmi	r3, r2, r8, lsl #16
 80006c8:	00f42400 	rscseq	r2, r4, r0, lsl #8
 80006cc:	08001760 	stmdaeq	r0, {r5, r6, r8, r9, sl, ip}
 80006d0:	08001770 	stmdaeq	r0, {r4, r5, r6, r8, r9, sl, ip}
 80006d4:	0800180c 	stmdaeq	r0, {r2, r3, fp, ip}

080006d8 <bsp_get_cpu_freq>:
 80006d8:	b580      	push	{r7, lr}
 80006da:	b082      	sub	sp, #8
 80006dc:	af00      	add	r7, sp, #0
 80006de:	6078      	str	r0, [r7, #4]
 80006e0:	2001      	movs	r0, #1
 80006e2:	f7ff ff5b 	bl	800059c <bsp_clocks_get_freq>
 80006e6:	4602      	mov	r2, r0
 80006e8:	687b      	ldr	r3, [r7, #4]
 80006ea:	601a      	str	r2, [r3, #0]
 80006ec:	687b      	ldr	r3, [r7, #4]
 80006ee:	681b      	ldr	r3, [r3, #0]
 80006f0:	2b00      	cmp	r3, #0
 80006f2:	d107      	bne.n	8000704 <bsp_get_cpu_freq+0x2c>
 80006f4:	2306      	movs	r3, #6
 80006f6:	2200      	movs	r2, #0
 80006f8:	2100      	movs	r1, #0
 80006fa:	4805      	ldr	r0, [pc, #20]	; (8000710 <bsp_get_cpu_freq+0x38>)
 80006fc:	f000 ff94 	bl	8001628 <KERNEL_LOG_ERROR>
 8000700:	2306      	movs	r3, #6
 8000702:	e000      	b.n	8000706 <bsp_get_cpu_freq+0x2e>
 8000704:	2300      	movs	r3, #0
 8000706:	4618      	mov	r0, r3
 8000708:	3708      	adds	r7, #8
 800070a:	46bd      	mov	sp, r7
 800070c:	bd80      	pop	{r7, pc}
 800070e:	bf00      	nop
 8000710:	08001830 	stmdaeq	r0, {r4, r5, fp, ip}

08000714 <bsp_flash_cache_enable>:
 8000714:	b580      	push	{r7, lr}
 8000716:	af00      	add	r7, sp, #0
 8000718:	4a04      	ldr	r2, [pc, #16]	; (800072c <bsp_flash_cache_enable+0x18>)
 800071a:	4b04      	ldr	r3, [pc, #16]	; (800072c <bsp_flash_cache_enable+0x18>)
 800071c:	681b      	ldr	r3, [r3, #0]
 800071e:	f443 63c0 	orr.w	r3, r3, #1536	; 0x600
 8000722:	6013      	str	r3, [r2, #0]
 8000724:	f7ff fd7c 	bl	8000220 <cpu_mem_barrier>
 8000728:	bf00      	nop
 800072a:	bd80      	pop	{r7, pc}
 800072c:	40023c00 	andmi	r3, r2, r0, lsl #24

08000730 <bsp_flash_prefetch_enable>:
 8000730:	b580      	push	{r7, lr}
 8000732:	af00      	add	r7, sp, #0
 8000734:	4a04      	ldr	r2, [pc, #16]	; (8000748 <bsp_flash_prefetch_enable+0x18>)
 8000736:	4b04      	ldr	r3, [pc, #16]	; (8000748 <bsp_flash_prefetch_enable+0x18>)
 8000738:	681b      	ldr	r3, [r3, #0]
 800073a:	f443 7380 	orr.w	r3, r3, #256	; 0x100
 800073e:	6013      	str	r3, [r2, #0]
 8000740:	f7ff fd6e 	bl	8000220 <cpu_mem_barrier>
 8000744:	bf00      	nop
 8000746:	bd80      	pop	{r7, pc}
 8000748:	40023c00 	andmi	r3, r2, r0, lsl #24

0800074c <bsp_flash_set_latency>:
 800074c:	b580      	push	{r7, lr}
 800074e:	b082      	sub	sp, #8
 8000750:	af00      	add	r7, sp, #0
 8000752:	4603      	mov	r3, r0
 8000754:	71fb      	strb	r3, [r7, #7]
 8000756:	4a0d      	ldr	r2, [pc, #52]	; (800078c <bsp_flash_set_latency+0x40>)
 8000758:	4b0c      	ldr	r3, [pc, #48]	; (800078c <bsp_flash_set_latency+0x40>)
 800075a:	681b      	ldr	r3, [r3, #0]
 800075c:	f023 030f 	bic.w	r3, r3, #15
 8000760:	79f9      	ldrb	r1, [r7, #7]
 8000762:	430b      	orrs	r3, r1
 8000764:	6013      	str	r3, [r2, #0]
 8000766:	bf00      	nop
 8000768:	4b08      	ldr	r3, [pc, #32]	; (800078c <bsp_flash_set_latency+0x40>)
 800076a:	681b      	ldr	r3, [r3, #0]
 800076c:	f003 030f 	and.w	r3, r3, #15
 8000770:	79fa      	ldrb	r2, [r7, #7]
 8000772:	4293      	cmp	r3, r2
 8000774:	d1f8      	bne.n	8000768 <bsp_flash_set_latency+0x1c>
 8000776:	1df9      	adds	r1, r7, #7
 8000778:	2300      	movs	r3, #0
 800077a:	2201      	movs	r2, #1
 800077c:	4804      	ldr	r0, [pc, #16]	; (8000790 <bsp_flash_set_latency+0x44>)
 800077e:	f000 ff13 	bl	80015a8 <KERNEL_LOG_INFO>
 8000782:	2300      	movs	r3, #0
 8000784:	4618      	mov	r0, r3
 8000786:	3708      	adds	r7, #8
 8000788:	46bd      	mov	sp, r7
 800078a:	bd80      	pop	{r7, pc}
 800078c:	40023c00 	andmi	r3, r2, r0, lsl #24
 8000790:	08001850 	stmdaeq	r0, {r4, r6, fp, ip}

08000794 <bsp_gpio_init>:
 8000794:	b580      	push	{r7, lr}
 8000796:	b086      	sub	sp, #24
 8000798:	af00      	add	r7, sp, #0
 800079a:	4603      	mov	r3, r0
 800079c:	6039      	str	r1, [r7, #0]
 800079e:	71fb      	strb	r3, [r7, #7]
 80007a0:	683b      	ldr	r3, [r7, #0]
 80007a2:	2b00      	cmp	r3, #0
 80007a4:	d107      	bne.n	80007b6 <bsp_gpio_init+0x22>
 80007a6:	2304      	movs	r3, #4
 80007a8:	2200      	movs	r2, #0
 80007aa:	2100      	movs	r1, #0
 80007ac:	4892      	ldr	r0, [pc, #584]	; (80009f8 <bsp_gpio_init+0x264>)
 80007ae:	f000 ff3b 	bl	8001628 <KERNEL_LOG_ERROR>
 80007b2:	2304      	movs	r3, #4
 80007b4:	e11b      	b.n	80009ee <bsp_gpio_init+0x25a>
 80007b6:	683b      	ldr	r3, [r7, #0]
 80007b8:	789b      	ldrb	r3, [r3, #2]
 80007ba:	f003 0303 	and.w	r3, r3, #3
 80007be:	60fb      	str	r3, [r7, #12]
 80007c0:	68fb      	ldr	r3, [r7, #12]
 80007c2:	2b03      	cmp	r3, #3
 80007c4:	d011      	beq.n	80007ea <bsp_gpio_init+0x56>
 80007c6:	68fb      	ldr	r3, [r7, #12]
 80007c8:	2b02      	cmp	r3, #2
 80007ca:	d00e      	beq.n	80007ea <bsp_gpio_init+0x56>
 80007cc:	68fb      	ldr	r3, [r7, #12]
 80007ce:	2b01      	cmp	r3, #1
 80007d0:	d00b      	beq.n	80007ea <bsp_gpio_init+0x56>
 80007d2:	68fb      	ldr	r3, [r7, #12]
 80007d4:	2b00      	cmp	r3, #0
 80007d6:	d008      	beq.n	80007ea <bsp_gpio_init+0x56>
 80007d8:	683b      	ldr	r3, [r7, #0]
 80007da:	1c99      	adds	r1, r3, #2
 80007dc:	2301      	movs	r3, #1
 80007de:	2201      	movs	r2, #1
 80007e0:	4886      	ldr	r0, [pc, #536]	; (80009fc <bsp_gpio_init+0x268>)
 80007e2:	f000 ff21 	bl	8001628 <KERNEL_LOG_ERROR>
 80007e6:	2301      	movs	r3, #1
 80007e8:	e101      	b.n	80009ee <bsp_gpio_init+0x25a>
 80007ea:	683b      	ldr	r3, [r7, #0]
 80007ec:	789b      	ldrb	r3, [r3, #2]
 80007ee:	f003 0304 	and.w	r3, r3, #4
 80007f2:	60fb      	str	r3, [r7, #12]
 80007f4:	68fb      	ldr	r3, [r7, #12]
 80007f6:	2b04      	cmp	r3, #4
 80007f8:	d00b      	beq.n	8000812 <bsp_gpio_init+0x7e>
 80007fa:	68fb      	ldr	r3, [r7, #12]
 80007fc:	2b00      	cmp	r3, #0
 80007fe:	d008      	beq.n	8000812 <bsp_gpio_init+0x7e>
 8000800:	683b      	ldr	r3, [r7, #0]
 8000802:	1c99      	adds	r1, r3, #2
 8000804:	2301      	movs	r3, #1
 8000806:	2201      	movs	r2, #1
 8000808:	487c      	ldr	r0, [pc, #496]	; (80009fc <bsp_gpio_init+0x268>)
 800080a:	f000 ff0d 	bl	8001628 <KERNEL_LOG_ERROR>
 800080e:	2301      	movs	r3, #1
 8000810:	e0ed      	b.n	80009ee <bsp_gpio_init+0x25a>
 8000812:	683b      	ldr	r3, [r7, #0]
 8000814:	789b      	ldrb	r3, [r3, #2]
 8000816:	f003 0318 	and.w	r3, r3, #24
 800081a:	60fb      	str	r3, [r7, #12]
 800081c:	68fb      	ldr	r3, [r7, #12]
 800081e:	2b10      	cmp	r3, #16
 8000820:	d00e      	beq.n	8000840 <bsp_gpio_init+0xac>
 8000822:	68fb      	ldr	r3, [r7, #12]
 8000824:	2b08      	cmp	r3, #8
 8000826:	d00b      	beq.n	8000840 <bsp_gpio_init+0xac>
 8000828:	68fb      	ldr	r3, [r7, #12]
 800082a:	2b00      	cmp	r3, #0
 800082c:	d008      	beq.n	8000840 <bsp_gpio_init+0xac>
 800082e:	683b      	ldr	r3, [r7, #0]
 8000830:	1c99      	adds	r1, r3, #2
 8000832:	2301      	movs	r3, #1
 8000834:	2201      	movs	r2, #1
 8000836:	4871      	ldr	r0, [pc, #452]	; (80009fc <bsp_gpio_init+0x268>)
 8000838:	f000 fef6 	bl	8001628 <KERNEL_LOG_ERROR>
 800083c:	2301      	movs	r3, #1
 800083e:	e0d6      	b.n	80009ee <bsp_gpio_init+0x25a>
 8000840:	683b      	ldr	r3, [r7, #0]
 8000842:	78db      	ldrb	r3, [r3, #3]
 8000844:	2b03      	cmp	r3, #3
 8000846:	d908      	bls.n	800085a <bsp_gpio_init+0xc6>
 8000848:	683b      	ldr	r3, [r7, #0]
 800084a:	1cd9      	adds	r1, r3, #3
 800084c:	2301      	movs	r3, #1
 800084e:	2201      	movs	r2, #1
 8000850:	486b      	ldr	r0, [pc, #428]	; (8000a00 <bsp_gpio_init+0x26c>)
 8000852:	f000 fee9 	bl	8001628 <KERNEL_LOG_ERROR>
 8000856:	2301      	movs	r3, #1
 8000858:	e0c9      	b.n	80009ee <bsp_gpio_init+0x25a>
 800085a:	683b      	ldr	r3, [r7, #0]
 800085c:	791b      	ldrb	r3, [r3, #4]
 800085e:	2b0f      	cmp	r3, #15
 8000860:	d908      	bls.n	8000874 <bsp_gpio_init+0xe0>
 8000862:	683b      	ldr	r3, [r7, #0]
 8000864:	1d19      	adds	r1, r3, #4
 8000866:	2301      	movs	r3, #1
 8000868:	2201      	movs	r2, #1
 800086a:	4866      	ldr	r0, [pc, #408]	; (8000a04 <bsp_gpio_init+0x270>)
 800086c:	f000 fedc 	bl	8001628 <KERNEL_LOG_ERROR>
 8000870:	2301      	movs	r3, #1
 8000872:	e0bc      	b.n	80009ee <bsp_gpio_init+0x25a>
 8000874:	2300      	movs	r3, #0
 8000876:	74fb      	strb	r3, [r7, #19]
 8000878:	e0ae      	b.n	80009d8 <bsp_gpio_init+0x244>
 800087a:	683b      	ldr	r3, [r7, #0]
 800087c:	881b      	ldrh	r3, [r3, #0]
 800087e:	461a      	mov	r2, r3
 8000880:	7cfb      	ldrb	r3, [r7, #19]
 8000882:	fa42 f303 	asr.w	r3, r2, r3
 8000886:	f003 0301 	and.w	r3, r3, #1
 800088a:	2b00      	cmp	r3, #0
 800088c:	f000 80a1 	beq.w	80009d2 <bsp_gpio_init+0x23e>
 8000890:	683b      	ldr	r3, [r7, #0]
 8000892:	789b      	ldrb	r3, [r3, #2]
 8000894:	f003 0303 	and.w	r3, r3, #3
 8000898:	2b01      	cmp	r3, #1
 800089a:	d005      	beq.n	80008a8 <bsp_gpio_init+0x114>
 800089c:	683b      	ldr	r3, [r7, #0]
 800089e:	789b      	ldrb	r3, [r3, #2]
 80008a0:	f003 0303 	and.w	r3, r3, #3
 80008a4:	2b02      	cmp	r3, #2
 80008a6:	d132      	bne.n	800090e <bsp_gpio_init+0x17a>
 80008a8:	79fb      	ldrb	r3, [r7, #7]
 80008aa:	f503 1380 	add.w	r3, r3, #1048576	; 0x100000
 80008ae:	3380      	adds	r3, #128	; 0x80
 80008b0:	029b      	lsls	r3, r3, #10
 80008b2:	3304      	adds	r3, #4
 80008b4:	617b      	str	r3, [r7, #20]
 80008b6:	697b      	ldr	r3, [r7, #20]
 80008b8:	681b      	ldr	r3, [r3, #0]
 80008ba:	7cfa      	ldrb	r2, [r7, #19]
 80008bc:	2101      	movs	r1, #1
 80008be:	fa01 f202 	lsl.w	r2, r1, r2
 80008c2:	43d2      	mvns	r2, r2
 80008c4:	4013      	ands	r3, r2
 80008c6:	683a      	ldr	r2, [r7, #0]
 80008c8:	7892      	ldrb	r2, [r2, #2]
 80008ca:	f002 0103 	and.w	r1, r2, #3
 80008ce:	7cfa      	ldrb	r2, [r7, #19]
 80008d0:	fa01 f202 	lsl.w	r2, r1, r2
 80008d4:	431a      	orrs	r2, r3
 80008d6:	697b      	ldr	r3, [r7, #20]
 80008d8:	601a      	str	r2, [r3, #0]
 80008da:	79fb      	ldrb	r3, [r7, #7]
 80008dc:	f503 1380 	add.w	r3, r3, #1048576	; 0x100000
 80008e0:	3380      	adds	r3, #128	; 0x80
 80008e2:	029b      	lsls	r3, r3, #10
 80008e4:	3308      	adds	r3, #8
 80008e6:	617b      	str	r3, [r7, #20]
 80008e8:	697b      	ldr	r3, [r7, #20]
 80008ea:	681b      	ldr	r3, [r3, #0]
 80008ec:	7cfa      	ldrb	r2, [r7, #19]
 80008ee:	0052      	lsls	r2, r2, #1
 80008f0:	2101      	movs	r1, #1
 80008f2:	fa01 f202 	lsl.w	r2, r1, r2
 80008f6:	43d2      	mvns	r2, r2
 80008f8:	4013      	ands	r3, r2
 80008fa:	683a      	ldr	r2, [r7, #0]
 80008fc:	78d2      	ldrb	r2, [r2, #3]
 80008fe:	4611      	mov	r1, r2
 8000900:	7cfa      	ldrb	r2, [r7, #19]
 8000902:	0052      	lsls	r2, r2, #1
 8000904:	fa01 f202 	lsl.w	r2, r1, r2
 8000908:	431a      	orrs	r2, r3
 800090a:	697b      	ldr	r3, [r7, #20]
 800090c:	601a      	str	r2, [r3, #0]
 800090e:	683b      	ldr	r3, [r7, #0]
 8000910:	789b      	ldrb	r3, [r3, #2]
 8000912:	f003 0303 	and.w	r3, r3, #3
 8000916:	2b02      	cmp	r3, #2
 8000918:	d126      	bne.n	8000968 <bsp_gpio_init+0x1d4>
 800091a:	7cfb      	ldrb	r3, [r7, #19]
 800091c:	2b07      	cmp	r3, #7
 800091e:	d907      	bls.n	8000930 <bsp_gpio_init+0x19c>
 8000920:	79fb      	ldrb	r3, [r7, #7]
 8000922:	f503 1380 	add.w	r3, r3, #1048576	; 0x100000
 8000926:	3380      	adds	r3, #128	; 0x80
 8000928:	029b      	lsls	r3, r3, #10
 800092a:	3324      	adds	r3, #36	; 0x24
 800092c:	617b      	str	r3, [r7, #20]
 800092e:	e006      	b.n	800093e <bsp_gpio_init+0x1aa>
 8000930:	79fb      	ldrb	r3, [r7, #7]
 8000932:	f503 1380 	add.w	r3, r3, #1048576	; 0x100000
 8000936:	3380      	adds	r3, #128	; 0x80
 8000938:	029b      	lsls	r3, r3, #10
 800093a:	3320      	adds	r3, #32
 800093c:	617b      	str	r3, [r7, #20]
 800093e:	697b      	ldr	r3, [r7, #20]
 8000940:	681b      	ldr	r3, [r3, #0]
 8000942:	7cfa      	ldrb	r2, [r7, #19]
 8000944:	0092      	lsls	r2, r2, #2
 8000946:	2101      	movs	r1, #1
 8000948:	fa01 f202 	lsl.w	r2, r1, r2
 800094c:	43d2      	mvns	r2, r2
 800094e:	4013      	ands	r3, r2
 8000950:	683a      	ldr	r2, [r7, #0]
 8000952:	7912      	ldrb	r2, [r2, #4]
 8000954:	4611      	mov	r1, r2
 8000956:	7cfa      	ldrb	r2, [r7, #19]
 8000958:	f002 0207 	and.w	r2, r2, #7
 800095c:	0092      	lsls	r2, r2, #2
 800095e:	fa01 f202 	lsl.w	r2, r1, r2
 8000962:	431a      	orrs	r2, r3
 8000964:	697b      	ldr	r3, [r7, #20]
 8000966:	601a      	str	r2, [r3, #0]
 8000968:	79fb      	ldrb	r3, [r7, #7]
 800096a:	f503 1380 	add.w	r3, r3, #1048576	; 0x100000
 800096e:	3380      	adds	r3, #128	; 0x80
 8000970:	029b      	lsls	r3, r3, #10
 8000972:	617b      	str	r3, [r7, #20]
 8000974:	697b      	ldr	r3, [r7, #20]
 8000976:	681b      	ldr	r3, [r3, #0]
 8000978:	7cfa      	ldrb	r2, [r7, #19]
 800097a:	0052      	lsls	r2, r2, #1
 800097c:	2101      	movs	r1, #1
 800097e:	fa01 f202 	lsl.w	r2, r1, r2
 8000982:	43d2      	mvns	r2, r2
 8000984:	4013      	ands	r3, r2
 8000986:	683a      	ldr	r2, [r7, #0]
 8000988:	7892      	ldrb	r2, [r2, #2]
 800098a:	4611      	mov	r1, r2
 800098c:	7cfa      	ldrb	r2, [r7, #19]
 800098e:	0052      	lsls	r2, r2, #1
 8000990:	fa01 f202 	lsl.w	r2, r1, r2
 8000994:	431a      	orrs	r2, r3
 8000996:	697b      	ldr	r3, [r7, #20]
 8000998:	601a      	str	r2, [r3, #0]
 800099a:	79fb      	ldrb	r3, [r7, #7]
 800099c:	f503 1380 	add.w	r3, r3, #1048576	; 0x100000
 80009a0:	3380      	adds	r3, #128	; 0x80
 80009a2:	029b      	lsls	r3, r3, #10
 80009a4:	330c      	adds	r3, #12
 80009a6:	617b      	str	r3, [r7, #20]
 80009a8:	697b      	ldr	r3, [r7, #20]
 80009aa:	681b      	ldr	r3, [r3, #0]
 80009ac:	7cfa      	ldrb	r2, [r7, #19]
 80009ae:	0052      	lsls	r2, r2, #1
 80009b0:	2101      	movs	r1, #1
 80009b2:	fa01 f202 	lsl.w	r2, r1, r2
 80009b6:	43d2      	mvns	r2, r2
 80009b8:	4013      	ands	r3, r2
 80009ba:	683a      	ldr	r2, [r7, #0]
 80009bc:	7892      	ldrb	r2, [r2, #2]
 80009be:	10d2      	asrs	r2, r2, #3
 80009c0:	f002 0103 	and.w	r1, r2, #3
 80009c4:	7cfa      	ldrb	r2, [r7, #19]
 80009c6:	0052      	lsls	r2, r2, #1
 80009c8:	fa01 f202 	lsl.w	r2, r1, r2
 80009cc:	431a      	orrs	r2, r3
 80009ce:	697b      	ldr	r3, [r7, #20]
 80009d0:	601a      	str	r2, [r3, #0]
 80009d2:	7cfb      	ldrb	r3, [r7, #19]
 80009d4:	3301      	adds	r3, #1
 80009d6:	74fb      	strb	r3, [r7, #19]
 80009d8:	7cfb      	ldrb	r3, [r7, #19]
 80009da:	2b0e      	cmp	r3, #14
 80009dc:	f67f af4d 	bls.w	800087a <bsp_gpio_init+0xe6>
 80009e0:	1df9      	adds	r1, r7, #7
 80009e2:	2300      	movs	r3, #0
 80009e4:	2201      	movs	r2, #1
 80009e6:	4808      	ldr	r0, [pc, #32]	; (8000a08 <bsp_gpio_init+0x274>)
 80009e8:	f000 fdde 	bl	80015a8 <KERNEL_LOG_INFO>
 80009ec:	2300      	movs	r3, #0
 80009ee:	4618      	mov	r0, r3
 80009f0:	3718      	adds	r7, #24
 80009f2:	46bd      	mov	sp, r7
 80009f4:	bd80      	pop	{r7, pc}
 80009f6:	bf00      	nop
 80009f8:	08001868 	stmdaeq	r0, {r3, r5, r6, fp, ip}
 80009fc:	08001888 	stmdaeq	r0, {r3, r7, fp, ip}
 8000a00:	080018a0 	stmdaeq	r0, {r5, r7, fp, ip}
 8000a04:	080018b4 	stmdaeq	r0, {r2, r4, r5, r7, fp, ip}
 8000a08:	080018d8 	stmdaeq	r0, {r3, r4, r6, r7, fp, ip}

08000a0c <__bsp_init>:
 8000a0c:	b500      	push	{lr}
 8000a0e:	f7ff fe81 	bl	8000714 <bsp_flash_cache_enable>
 8000a12:	f7ff fe8d 	bl	8000730 <bsp_flash_prefetch_enable>
 8000a16:	f7ff fd51 	bl	80004bc <bsp_clk_sys_init>
 8000a1a:	bd00      	pop	{pc}

08000a1c <bsp_logger_write_hook>:
 8000a1c:	b580      	push	{r7, lr}
 8000a1e:	b082      	sub	sp, #8
 8000a20:	af00      	add	r7, sp, #0
 8000a22:	6078      	str	r0, [r7, #4]
 8000a24:	6039      	str	r1, [r7, #0]
 8000a26:	6839      	ldr	r1, [r7, #0]
 8000a28:	6878      	ldr	r0, [r7, #4]
 8000a2a:	f000 fb5f 	bl	80010ec <serial_write>
 8000a2e:	bf00      	nop
 8000a30:	3708      	adds	r7, #8
 8000a32:	46bd      	mov	sp, r7
 8000a34:	bd80      	pop	{r7, pc}
	...

08000a38 <bsp_pwr_set_scaling>:
 8000a38:	b580      	push	{r7, lr}
 8000a3a:	b082      	sub	sp, #8
 8000a3c:	af00      	add	r7, sp, #0
 8000a3e:	4603      	mov	r3, r0
 8000a40:	80fb      	strh	r3, [r7, #6]
 8000a42:	4a0d      	ldr	r2, [pc, #52]	; (8000a78 <bsp_pwr_set_scaling+0x40>)
 8000a44:	4b0c      	ldr	r3, [pc, #48]	; (8000a78 <bsp_pwr_set_scaling+0x40>)
 8000a46:	681b      	ldr	r3, [r3, #0]
 8000a48:	f423 4340 	bic.w	r3, r3, #49152	; 0xc000
 8000a4c:	88f9      	ldrh	r1, [r7, #6]
 8000a4e:	430b      	orrs	r3, r1
 8000a50:	6013      	str	r3, [r2, #0]
 8000a52:	bf00      	nop
 8000a54:	4b08      	ldr	r3, [pc, #32]	; (8000a78 <bsp_pwr_set_scaling+0x40>)
 8000a56:	681b      	ldr	r3, [r3, #0]
 8000a58:	f403 4340 	and.w	r3, r3, #49152	; 0xc000
 8000a5c:	88fa      	ldrh	r2, [r7, #6]
 8000a5e:	4293      	cmp	r3, r2
 8000a60:	d1f8      	bne.n	8000a54 <bsp_pwr_set_scaling+0x1c>
 8000a62:	1db9      	adds	r1, r7, #6
 8000a64:	2300      	movs	r3, #0
 8000a66:	2202      	movs	r2, #2
 8000a68:	4804      	ldr	r0, [pc, #16]	; (8000a7c <bsp_pwr_set_scaling+0x44>)
 8000a6a:	f000 fd9d 	bl	80015a8 <KERNEL_LOG_INFO>
 8000a6e:	2300      	movs	r3, #0
 8000a70:	4618      	mov	r0, r3
 8000a72:	3708      	adds	r7, #8
 8000a74:	46bd      	mov	sp, r7
 8000a76:	bd80      	pop	{r7, pc}
 8000a78:	40007000 	andmi	r7, r0, r0
 8000a7c:	080018ec 	stmdaeq	r0, {r2, r3, r5, r6, r7, fp, ip}

08000a80 <bsp_uart_init>:
 8000a80:	e92d 4ff0 	stmdb	sp!, {r4, r5, r6, r7, r8, r9, sl, fp, lr}
 8000a84:	b09d      	sub	sp, #116	; 0x74
 8000a86:	af00      	add	r7, sp, #0
 8000a88:	4603      	mov	r3, r0
 8000a8a:	64b9      	str	r1, [r7, #72]	; 0x48
 8000a8c:	f887 304f 	strb.w	r3, [r7, #79]	; 0x4f
 8000a90:	f897 304f 	ldrb.w	r3, [r7, #79]	; 0x4f
 8000a94:	2b01      	cmp	r3, #1
 8000a96:	d00d      	beq.n	8000ab4 <bsp_uart_init+0x34>
 8000a98:	2b03      	cmp	r3, #3
 8000a9a:	d014      	beq.n	8000ac6 <bsp_uart_init+0x46>
 8000a9c:	2b00      	cmp	r3, #0
 8000a9e:	d000      	beq.n	8000aa2 <bsp_uart_init+0x22>
 8000aa0:	e1de      	b.n	8000e60 <bsp_uart_init+0x3e0>
 8000aa2:	4b50      	ldr	r3, [pc, #320]	; (8000be4 <bsp_uart_init+0x164>)
 8000aa4:	66fb      	str	r3, [r7, #108]	; 0x6c
 8000aa6:	4b50      	ldr	r3, [pc, #320]	; (8000be8 <bsp_uart_init+0x168>)
 8000aa8:	66bb      	str	r3, [r7, #104]	; 0x68
 8000aaa:	4b50      	ldr	r3, [pc, #320]	; (8000bec <bsp_uart_init+0x16c>)
 8000aac:	667b      	str	r3, [r7, #100]	; 0x64
 8000aae:	4b50      	ldr	r3, [pc, #320]	; (8000bf0 <bsp_uart_init+0x170>)
 8000ab0:	663b      	str	r3, [r7, #96]	; 0x60
 8000ab2:	e011      	b.n	8000ad8 <bsp_uart_init+0x58>
 8000ab4:	4b4f      	ldr	r3, [pc, #316]	; (8000bf4 <bsp_uart_init+0x174>)
 8000ab6:	66fb      	str	r3, [r7, #108]	; 0x6c
 8000ab8:	4b4f      	ldr	r3, [pc, #316]	; (8000bf8 <bsp_uart_init+0x178>)
 8000aba:	66bb      	str	r3, [r7, #104]	; 0x68
 8000abc:	4b4f      	ldr	r3, [pc, #316]	; (8000bfc <bsp_uart_init+0x17c>)
 8000abe:	667b      	str	r3, [r7, #100]	; 0x64
 8000ac0:	4b4f      	ldr	r3, [pc, #316]	; (8000c00 <bsp_uart_init+0x180>)
 8000ac2:	663b      	str	r3, [r7, #96]	; 0x60
 8000ac4:	e008      	b.n	8000ad8 <bsp_uart_init+0x58>
 8000ac6:	4b4f      	ldr	r3, [pc, #316]	; (8000c04 <bsp_uart_init+0x184>)
 8000ac8:	66fb      	str	r3, [r7, #108]	; 0x6c
 8000aca:	4b4f      	ldr	r3, [pc, #316]	; (8000c08 <bsp_uart_init+0x188>)
 8000acc:	66bb      	str	r3, [r7, #104]	; 0x68
 8000ace:	4b4f      	ldr	r3, [pc, #316]	; (8000c0c <bsp_uart_init+0x18c>)
 8000ad0:	667b      	str	r3, [r7, #100]	; 0x64
 8000ad2:	4b4f      	ldr	r3, [pc, #316]	; (8000c10 <bsp_uart_init+0x190>)
 8000ad4:	663b      	str	r3, [r7, #96]	; 0x60
 8000ad6:	bf00      	nop
 8000ad8:	6efb      	ldr	r3, [r7, #108]	; 0x6c
 8000ada:	681b      	ldr	r3, [r3, #0]
 8000adc:	f423 421f 	bic.w	r2, r3, #40704	; 0x9f00
 8000ae0:	f022 02ff 	bic.w	r2, r2, #255	; 0xff
 8000ae4:	6efb      	ldr	r3, [r7, #108]	; 0x6c
 8000ae6:	601a      	str	r2, [r3, #0]
 8000ae8:	6efb      	ldr	r3, [r7, #108]	; 0x6c
 8000aea:	681a      	ldr	r2, [r3, #0]
 8000aec:	6cbb      	ldr	r3, [r7, #72]	; 0x48
 8000aee:	791b      	ldrb	r3, [r3, #4]
 8000af0:	2b08      	cmp	r3, #8
 8000af2:	d101      	bne.n	8000af8 <bsp_uart_init+0x78>
 8000af4:	2300      	movs	r3, #0
 8000af6:	e001      	b.n	8000afc <bsp_uart_init+0x7c>
 8000af8:	f44f 5380 	mov.w	r3, #4096	; 0x1000
 8000afc:	431a      	orrs	r2, r3
 8000afe:	6cbb      	ldr	r3, [r7, #72]	; 0x48
 8000b00:	799b      	ldrb	r3, [r3, #6]
 8000b02:	2b02      	cmp	r3, #2
 8000b04:	d003      	beq.n	8000b0e <bsp_uart_init+0x8e>
 8000b06:	6cbb      	ldr	r3, [r7, #72]	; 0x48
 8000b08:	799b      	ldrb	r3, [r3, #6]
 8000b0a:	2b00      	cmp	r3, #0
 8000b0c:	d101      	bne.n	8000b12 <bsp_uart_init+0x92>
 8000b0e:	2300      	movs	r3, #0
 8000b10:	e001      	b.n	8000b16 <bsp_uart_init+0x96>
 8000b12:	f44f 7300 	mov.w	r3, #512	; 0x200
 8000b16:	431a      	orrs	r2, r3
 8000b18:	6cbb      	ldr	r3, [r7, #72]	; 0x48
 8000b1a:	799b      	ldrb	r3, [r3, #6]
 8000b1c:	2b00      	cmp	r3, #0
 8000b1e:	d101      	bne.n	8000b24 <bsp_uart_init+0xa4>
 8000b20:	2300      	movs	r3, #0
 8000b22:	e001      	b.n	8000b28 <bsp_uart_init+0xa8>
 8000b24:	f44f 6380 	mov.w	r3, #1024	; 0x400
 8000b28:	4313      	orrs	r3, r2
 8000b2a:	f043 020c 	orr.w	r2, r3, #12
 8000b2e:	6efb      	ldr	r3, [r7, #108]	; 0x6c
 8000b30:	601a      	str	r2, [r3, #0]
 8000b32:	6ebb      	ldr	r3, [r7, #104]	; 0x68
 8000b34:	681b      	ldr	r3, [r3, #0]
 8000b36:	f423 42fe 	bic.w	r2, r3, #32512	; 0x7f00
 8000b3a:	f022 026f 	bic.w	r2, r2, #111	; 0x6f
 8000b3e:	6ebb      	ldr	r3, [r7, #104]	; 0x68
 8000b40:	601a      	str	r2, [r3, #0]
 8000b42:	6cbb      	ldr	r3, [r7, #72]	; 0x48
 8000b44:	795b      	ldrb	r3, [r3, #5]
 8000b46:	2b02      	cmp	r3, #2
 8000b48:	d00b      	beq.n	8000b62 <bsp_uart_init+0xe2>
 8000b4a:	2b03      	cmp	r3, #3
 8000b4c:	d010      	beq.n	8000b70 <bsp_uart_init+0xf0>
 8000b4e:	2b00      	cmp	r3, #0
 8000b50:	d000      	beq.n	8000b54 <bsp_uart_init+0xd4>
 8000b52:	e014      	b.n	8000b7e <bsp_uart_init+0xfe>
 8000b54:	6ebb      	ldr	r3, [r7, #104]	; 0x68
 8000b56:	681b      	ldr	r3, [r3, #0]
 8000b58:	f443 5280 	orr.w	r2, r3, #4096	; 0x1000
 8000b5c:	6ebb      	ldr	r3, [r7, #104]	; 0x68
 8000b5e:	601a      	str	r2, [r3, #0]
 8000b60:	e00d      	b.n	8000b7e <bsp_uart_init+0xfe>
 8000b62:	6ebb      	ldr	r3, [r7, #104]	; 0x68
 8000b64:	681b      	ldr	r3, [r3, #0]
 8000b66:	f443 5240 	orr.w	r2, r3, #12288	; 0x3000
 8000b6a:	6ebb      	ldr	r3, [r7, #104]	; 0x68
 8000b6c:	601a      	str	r2, [r3, #0]
 8000b6e:	e006      	b.n	8000b7e <bsp_uart_init+0xfe>
 8000b70:	6ebb      	ldr	r3, [r7, #104]	; 0x68
 8000b72:	681b      	ldr	r3, [r3, #0]
 8000b74:	f443 5200 	orr.w	r2, r3, #8192	; 0x2000
 8000b78:	6ebb      	ldr	r3, [r7, #104]	; 0x68
 8000b7a:	601a      	str	r2, [r3, #0]
 8000b7c:	bf00      	nop
 8000b7e:	6e7b      	ldr	r3, [r7, #100]	; 0x64
 8000b80:	681b      	ldr	r3, [r3, #0]
 8000b82:	f423 627f 	bic.w	r2, r3, #4080	; 0xff0
 8000b86:	f022 020f 	bic.w	r2, r2, #15
 8000b8a:	6e7b      	ldr	r3, [r7, #100]	; 0x64
 8000b8c:	601a      	str	r2, [r3, #0]
 8000b8e:	6cbb      	ldr	r3, [r7, #72]	; 0x48
 8000b90:	79db      	ldrb	r3, [r3, #7]
 8000b92:	2b03      	cmp	r3, #3
 8000b94:	d00b      	beq.n	8000bae <bsp_uart_init+0x12e>
 8000b96:	2b04      	cmp	r3, #4
 8000b98:	d010      	beq.n	8000bbc <bsp_uart_init+0x13c>
 8000b9a:	2b02      	cmp	r3, #2
 8000b9c:	d000      	beq.n	8000ba0 <bsp_uart_init+0x120>
 8000b9e:	e014      	b.n	8000bca <bsp_uart_init+0x14a>
 8000ba0:	6e7b      	ldr	r3, [r7, #100]	; 0x64
 8000ba2:	681b      	ldr	r3, [r3, #0]
 8000ba4:	f443 7200 	orr.w	r2, r3, #512	; 0x200
 8000ba8:	6e7b      	ldr	r3, [r7, #100]	; 0x64
 8000baa:	601a      	str	r2, [r3, #0]
 8000bac:	e00d      	b.n	8000bca <bsp_uart_init+0x14a>
 8000bae:	6e7b      	ldr	r3, [r7, #100]	; 0x64
 8000bb0:	681b      	ldr	r3, [r3, #0]
 8000bb2:	f443 7280 	orr.w	r2, r3, #256	; 0x100
 8000bb6:	6e7b      	ldr	r3, [r7, #100]	; 0x64
 8000bb8:	601a      	str	r2, [r3, #0]
 8000bba:	e006      	b.n	8000bca <bsp_uart_init+0x14a>
 8000bbc:	6e7b      	ldr	r3, [r7, #100]	; 0x64
 8000bbe:	681b      	ldr	r3, [r3, #0]
 8000bc0:	f443 7240 	orr.w	r2, r3, #768	; 0x300
 8000bc4:	6e7b      	ldr	r3, [r7, #100]	; 0x64
 8000bc6:	601a      	str	r2, [r3, #0]
 8000bc8:	bf00      	nop
 8000bca:	f897 304f 	ldrb.w	r3, [r7, #79]	; 0x4f
 8000bce:	2b00      	cmp	r3, #0
 8000bd0:	d003      	beq.n	8000bda <bsp_uart_init+0x15a>
 8000bd2:	f897 304f 	ldrb.w	r3, [r7, #79]	; 0x4f
 8000bd6:	2b03      	cmp	r3, #3
 8000bd8:	d11c      	bne.n	8000c14 <bsp_uart_init+0x194>
 8000bda:	2004      	movs	r0, #4
 8000bdc:	f7ff fcde 	bl	800059c <bsp_clocks_get_freq>
 8000be0:	65f8      	str	r0, [r7, #92]	; 0x5c
 8000be2:	e01b      	b.n	8000c1c <bsp_uart_init+0x19c>
 8000be4:	4001100c 	andmi	r1, r1, ip
 8000be8:	40011010 	andmi	r1, r1, r0, lsl r0
 8000bec:	40011014 	andmi	r1, r1, r4, lsl r0
 8000bf0:	40011008 	andmi	r1, r1, r8
 8000bf4:	4000440c 	andmi	r4, r0, ip, lsl #8
 8000bf8:	40004410 	andmi	r4, r0, r0, lsl r4
 8000bfc:	40004414 	andmi	r4, r0, r4, lsl r4
 8000c00:	40004408 	andmi	r4, r0, r8, lsl #8
 8000c04:	4001140c 	andmi	r1, r1, ip, lsl #8
 8000c08:	40011410 	andmi	r1, r1, r0, lsl r4
 8000c0c:	40011414 	andmi	r1, r1, r4, lsl r4
 8000c10:	40011408 	andmi	r1, r1, r8, lsl #8
 8000c14:	2003      	movs	r0, #3
 8000c16:	f7ff fcc1 	bl	800059c <bsp_clocks_get_freq>
 8000c1a:	65f8      	str	r0, [r7, #92]	; 0x5c
 8000c1c:	6dfb      	ldr	r3, [r7, #92]	; 0x5c
 8000c1e:	4618      	mov	r0, r3
 8000c20:	f04f 0100 	mov.w	r1, #0
 8000c24:	6cbb      	ldr	r3, [r7, #72]	; 0x48
 8000c26:	681b      	ldr	r3, [r3, #0]
 8000c28:	f04f 0400 	mov.w	r4, #0
 8000c2c:	ea4f 1904 	mov.w	r9, r4, lsl #4
 8000c30:	ea49 7913 	orr.w	r9, r9, r3, lsr #28
 8000c34:	ea4f 1803 	mov.w	r8, r3, lsl #4
 8000c38:	4642      	mov	r2, r8
 8000c3a:	464b      	mov	r3, r9
 8000c3c:	f000 fd14 	bl	8001668 <__aeabi_uldivmod>
 8000c40:	4603      	mov	r3, r0
 8000c42:	460c      	mov	r4, r1
 8000c44:	65bb      	str	r3, [r7, #88]	; 0x58
 8000c46:	6dfb      	ldr	r3, [r7, #92]	; 0x5c
 8000c48:	4619      	mov	r1, r3
 8000c4a:	f04f 0200 	mov.w	r2, #0
 8000c4e:	460b      	mov	r3, r1
 8000c50:	4614      	mov	r4, r2
 8000c52:	18db      	adds	r3, r3, r3
 8000c54:	eb44 0404 	adc.w	r4, r4, r4
 8000c58:	185b      	adds	r3, r3, r1
 8000c5a:	eb44 0402 	adc.w	r4, r4, r2
 8000c5e:	0166      	lsls	r6, r4, #5
 8000c60:	ea46 66d3 	orr.w	r6, r6, r3, lsr #27
 8000c64:	015d      	lsls	r5, r3, #5
 8000c66:	195b      	adds	r3, r3, r5
 8000c68:	eb44 0406 	adc.w	r4, r4, r6
 8000c6c:	185d      	adds	r5, r3, r1
 8000c6e:	eb44 0602 	adc.w	r6, r4, r2
 8000c72:	4628      	mov	r0, r5
 8000c74:	4631      	mov	r1, r6
 8000c76:	6cbb      	ldr	r3, [r7, #72]	; 0x48
 8000c78:	681b      	ldr	r3, [r3, #0]
 8000c7a:	f04f 0400 	mov.w	r4, #0
 8000c7e:	0122      	lsls	r2, r4, #4
 8000c80:	647a      	str	r2, [r7, #68]	; 0x44
 8000c82:	6c7a      	ldr	r2, [r7, #68]	; 0x44
 8000c84:	ea42 7213 	orr.w	r2, r2, r3, lsr #28
 8000c88:	647a      	str	r2, [r7, #68]	; 0x44
 8000c8a:	011b      	lsls	r3, r3, #4
 8000c8c:	643b      	str	r3, [r7, #64]	; 0x40
 8000c8e:	e9d7 2310 	ldrd	r2, r3, [r7, #64]	; 0x40
 8000c92:	f000 fce9 	bl	8001668 <__aeabi_uldivmod>
 8000c96:	4603      	mov	r3, r0
 8000c98:	460c      	mov	r4, r1
 8000c9a:	461d      	mov	r5, r3
 8000c9c:	4626      	mov	r6, r4
 8000c9e:	6dfb      	ldr	r3, [r7, #92]	; 0x5c
 8000ca0:	4618      	mov	r0, r3
 8000ca2:	f04f 0100 	mov.w	r1, #0
 8000ca6:	6cbb      	ldr	r3, [r7, #72]	; 0x48
 8000ca8:	681b      	ldr	r3, [r3, #0]
 8000caa:	f04f 0400 	mov.w	r4, #0
 8000cae:	0122      	lsls	r2, r4, #4
 8000cb0:	63fa      	str	r2, [r7, #60]	; 0x3c
 8000cb2:	6bfa      	ldr	r2, [r7, #60]	; 0x3c
 8000cb4:	ea42 7213 	orr.w	r2, r2, r3, lsr #28
 8000cb8:	63fa      	str	r2, [r7, #60]	; 0x3c
 8000cba:	011b      	lsls	r3, r3, #4
 8000cbc:	63bb      	str	r3, [r7, #56]	; 0x38
 8000cbe:	e9d7 230e 	ldrd	r2, r3, [r7, #56]	; 0x38
 8000cc2:	f000 fcd1 	bl	8001668 <__aeabi_uldivmod>
 8000cc6:	4603      	mov	r3, r0
 8000cc8:	460c      	mov	r4, r1
 8000cca:	4619      	mov	r1, r3
 8000ccc:	4622      	mov	r2, r4
 8000cce:	460b      	mov	r3, r1
 8000cd0:	4614      	mov	r4, r2
 8000cd2:	18db      	adds	r3, r3, r3
 8000cd4:	eb44 0404 	adc.w	r4, r4, r4
 8000cd8:	185b      	adds	r3, r3, r1
 8000cda:	eb44 0402 	adc.w	r4, r4, r2
 8000cde:	ea4f 1b44 	mov.w	fp, r4, lsl #5
 8000ce2:	ea4b 6bd3 	orr.w	fp, fp, r3, lsr #27
 8000ce6:	ea4f 1a43 	mov.w	sl, r3, lsl #5
 8000cea:	eb13 030a 	adds.w	r3, r3, sl
 8000cee:	eb44 040b 	adc.w	r4, r4, fp
 8000cf2:	185b      	adds	r3, r3, r1
 8000cf4:	eb44 0402 	adc.w	r4, r4, r2
 8000cf8:	1aeb      	subs	r3, r5, r3
 8000cfa:	eb66 0404 	sbc.w	r4, r6, r4
 8000cfe:	0122      	lsls	r2, r4, #4
 8000d00:	637a      	str	r2, [r7, #52]	; 0x34
 8000d02:	6b7a      	ldr	r2, [r7, #52]	; 0x34
 8000d04:	ea42 7213 	orr.w	r2, r2, r3, lsr #28
 8000d08:	637a      	str	r2, [r7, #52]	; 0x34
 8000d0a:	011b      	lsls	r3, r3, #4
 8000d0c:	633b      	str	r3, [r7, #48]	; 0x30
 8000d0e:	e9d7 010c 	ldrd	r0, r1, [r7, #48]	; 0x30
 8000d12:	3032      	adds	r0, #50	; 0x32
 8000d14:	f141 0100 	adc.w	r1, r1, #0
 8000d18:	f04f 0264 	mov.w	r2, #100	; 0x64
 8000d1c:	f04f 0300 	mov.w	r3, #0
 8000d20:	f000 fca2 	bl	8001668 <__aeabi_uldivmod>
 8000d24:	4603      	mov	r3, r0
 8000d26:	460c      	mov	r4, r1
 8000d28:	657b      	str	r3, [r7, #84]	; 0x54
 8000d2a:	6dfb      	ldr	r3, [r7, #92]	; 0x5c
 8000d2c:	4618      	mov	r0, r3
 8000d2e:	f04f 0100 	mov.w	r1, #0
 8000d32:	6cbb      	ldr	r3, [r7, #72]	; 0x48
 8000d34:	681b      	ldr	r3, [r3, #0]
 8000d36:	f04f 0400 	mov.w	r4, #0
 8000d3a:	0122      	lsls	r2, r4, #4
 8000d3c:	62fa      	str	r2, [r7, #44]	; 0x2c
 8000d3e:	6afa      	ldr	r2, [r7, #44]	; 0x2c
 8000d40:	ea42 7213 	orr.w	r2, r2, r3, lsr #28
 8000d44:	62fa      	str	r2, [r7, #44]	; 0x2c
 8000d46:	011b      	lsls	r3, r3, #4
 8000d48:	62bb      	str	r3, [r7, #40]	; 0x28
 8000d4a:	e9d7 230a 	ldrd	r2, r3, [r7, #40]	; 0x28
 8000d4e:	f000 fc8b 	bl	8001668 <__aeabi_uldivmod>
 8000d52:	4603      	mov	r3, r0
 8000d54:	460c      	mov	r4, r1
 8000d56:	ea4f 1803 	mov.w	r8, r3, lsl #4
 8000d5a:	6dfb      	ldr	r3, [r7, #92]	; 0x5c
 8000d5c:	4619      	mov	r1, r3
 8000d5e:	f04f 0200 	mov.w	r2, #0
 8000d62:	460b      	mov	r3, r1
 8000d64:	4614      	mov	r4, r2
 8000d66:	18db      	adds	r3, r3, r3
 8000d68:	eb44 0404 	adc.w	r4, r4, r4
 8000d6c:	185b      	adds	r3, r3, r1
 8000d6e:	eb44 0402 	adc.w	r4, r4, r2
 8000d72:	0160      	lsls	r0, r4, #5
 8000d74:	60f8      	str	r0, [r7, #12]
 8000d76:	68f8      	ldr	r0, [r7, #12]
 8000d78:	ea40 60d3 	orr.w	r0, r0, r3, lsr #27
 8000d7c:	60f8      	str	r0, [r7, #12]
 8000d7e:	0158      	lsls	r0, r3, #5
 8000d80:	60b8      	str	r0, [r7, #8]
 8000d82:	e9d7 5602 	ldrd	r5, r6, [r7, #8]
 8000d86:	18ed      	adds	r5, r5, r3
 8000d88:	eb46 0604 	adc.w	r6, r6, r4
 8000d8c:	462b      	mov	r3, r5
 8000d8e:	4634      	mov	r4, r6
 8000d90:	185d      	adds	r5, r3, r1
 8000d92:	eb44 0602 	adc.w	r6, r4, r2
 8000d96:	4628      	mov	r0, r5
 8000d98:	4631      	mov	r1, r6
 8000d9a:	6cbb      	ldr	r3, [r7, #72]	; 0x48
 8000d9c:	681b      	ldr	r3, [r3, #0]
 8000d9e:	f04f 0400 	mov.w	r4, #0
 8000da2:	0122      	lsls	r2, r4, #4
 8000da4:	627a      	str	r2, [r7, #36]	; 0x24
 8000da6:	6a7a      	ldr	r2, [r7, #36]	; 0x24
 8000da8:	ea42 7213 	orr.w	r2, r2, r3, lsr #28
 8000dac:	627a      	str	r2, [r7, #36]	; 0x24
 8000dae:	011b      	lsls	r3, r3, #4
 8000db0:	623b      	str	r3, [r7, #32]
 8000db2:	e9d7 2308 	ldrd	r2, r3, [r7, #32]
 8000db6:	f000 fc57 	bl	8001668 <__aeabi_uldivmod>
 8000dba:	4603      	mov	r3, r0
 8000dbc:	460c      	mov	r4, r1
 8000dbe:	461d      	mov	r5, r3
 8000dc0:	4626      	mov	r6, r4
 8000dc2:	6dfb      	ldr	r3, [r7, #92]	; 0x5c
 8000dc4:	4618      	mov	r0, r3
 8000dc6:	f04f 0100 	mov.w	r1, #0
 8000dca:	6cbb      	ldr	r3, [r7, #72]	; 0x48
 8000dcc:	681b      	ldr	r3, [r3, #0]
 8000dce:	f04f 0400 	mov.w	r4, #0
 8000dd2:	0122      	lsls	r2, r4, #4
 8000dd4:	61fa      	str	r2, [r7, #28]
 8000dd6:	69fa      	ldr	r2, [r7, #28]
 8000dd8:	ea42 7213 	orr.w	r2, r2, r3, lsr #28
 8000ddc:	61fa      	str	r2, [r7, #28]
 8000dde:	011b      	lsls	r3, r3, #4
 8000de0:	61bb      	str	r3, [r7, #24]
 8000de2:	e9d7 2306 	ldrd	r2, r3, [r7, #24]
 8000de6:	f000 fc3f 	bl	8001668 <__aeabi_uldivmod>
 8000dea:	4603      	mov	r3, r0
 8000dec:	460c      	mov	r4, r1
 8000dee:	4619      	mov	r1, r3
 8000df0:	4622      	mov	r2, r4
 8000df2:	460b      	mov	r3, r1
 8000df4:	4614      	mov	r4, r2
 8000df6:	18db      	adds	r3, r3, r3
 8000df8:	eb44 0404 	adc.w	r4, r4, r4
 8000dfc:	185b      	adds	r3, r3, r1
 8000dfe:	eb44 0402 	adc.w	r4, r4, r2
 8000e02:	0160      	lsls	r0, r4, #5
 8000e04:	6078      	str	r0, [r7, #4]
 8000e06:	6878      	ldr	r0, [r7, #4]
 8000e08:	ea40 60d3 	orr.w	r0, r0, r3, lsr #27
 8000e0c:	6078      	str	r0, [r7, #4]
 8000e0e:	0158      	lsls	r0, r3, #5
 8000e10:	6038      	str	r0, [r7, #0]
 8000e12:	e9d7 9a00 	ldrd	r9, sl, [r7]
 8000e16:	eb19 0903 	adds.w	r9, r9, r3
 8000e1a:	eb4a 0a04 	adc.w	sl, sl, r4
 8000e1e:	464b      	mov	r3, r9
 8000e20:	4654      	mov	r4, sl
 8000e22:	185b      	adds	r3, r3, r1
 8000e24:	eb44 0402 	adc.w	r4, r4, r2
 8000e28:	1aeb      	subs	r3, r5, r3
 8000e2a:	eb66 0404 	sbc.w	r4, r6, r4
 8000e2e:	0122      	lsls	r2, r4, #4
 8000e30:	617a      	str	r2, [r7, #20]
 8000e32:	697a      	ldr	r2, [r7, #20]
 8000e34:	ea42 7213 	orr.w	r2, r2, r3, lsr #28
 8000e38:	617a      	str	r2, [r7, #20]
 8000e3a:	011b      	lsls	r3, r3, #4
 8000e3c:	613b      	str	r3, [r7, #16]
 8000e3e:	e9d7 0104 	ldrd	r0, r1, [r7, #16]
 8000e42:	3032      	adds	r0, #50	; 0x32
 8000e44:	f141 0100 	adc.w	r1, r1, #0
 8000e48:	f04f 0264 	mov.w	r2, #100	; 0x64
 8000e4c:	f04f 0300 	mov.w	r3, #0
 8000e50:	f000 fc0a 	bl	8001668 <__aeabi_uldivmod>
 8000e54:	4603      	mov	r3, r0
 8000e56:	460c      	mov	r4, r1
 8000e58:	ea48 0203 	orr.w	r2, r8, r3
 8000e5c:	6e3b      	ldr	r3, [r7, #96]	; 0x60
 8000e5e:	601a      	str	r2, [r3, #0]
 8000e60:	3774      	adds	r7, #116	; 0x74
 8000e62:	46bd      	mov	sp, r7
 8000e64:	e8bd 8ff0 	ldmia.w	sp!, {r4, r5, r6, r7, r8, r9, sl, fp, pc}

08000e68 <bsp_usart_disable>:
 8000e68:	b480      	push	{r7}
 8000e6a:	b083      	sub	sp, #12
 8000e6c:	af00      	add	r7, sp, #0
 8000e6e:	4603      	mov	r3, r0
 8000e70:	71fb      	strb	r3, [r7, #7]
 8000e72:	79fb      	ldrb	r3, [r7, #7]
 8000e74:	2b01      	cmp	r3, #1
 8000e76:	d00b      	beq.n	8000e90 <bsp_usart_disable+0x28>
 8000e78:	2b03      	cmp	r3, #3
 8000e7a:	d010      	beq.n	8000e9e <bsp_usart_disable+0x36>
 8000e7c:	2b00      	cmp	r3, #0
 8000e7e:	d000      	beq.n	8000e82 <bsp_usart_disable+0x1a>
 8000e80:	e014      	b.n	8000eac <bsp_usart_disable+0x44>
 8000e82:	4a0d      	ldr	r2, [pc, #52]	; (8000eb8 <bsp_usart_disable+0x50>)
 8000e84:	4b0c      	ldr	r3, [pc, #48]	; (8000eb8 <bsp_usart_disable+0x50>)
 8000e86:	681b      	ldr	r3, [r3, #0]
 8000e88:	f423 5300 	bic.w	r3, r3, #8192	; 0x2000
 8000e8c:	6013      	str	r3, [r2, #0]
 8000e8e:	e00d      	b.n	8000eac <bsp_usart_disable+0x44>
 8000e90:	4a0a      	ldr	r2, [pc, #40]	; (8000ebc <bsp_usart_disable+0x54>)
 8000e92:	4b0a      	ldr	r3, [pc, #40]	; (8000ebc <bsp_usart_disable+0x54>)
 8000e94:	681b      	ldr	r3, [r3, #0]
 8000e96:	f423 5300 	bic.w	r3, r3, #8192	; 0x2000
 8000e9a:	6013      	str	r3, [r2, #0]
 8000e9c:	e006      	b.n	8000eac <bsp_usart_disable+0x44>
 8000e9e:	4a08      	ldr	r2, [pc, #32]	; (8000ec0 <bsp_usart_disable+0x58>)
 8000ea0:	4b07      	ldr	r3, [pc, #28]	; (8000ec0 <bsp_usart_disable+0x58>)
 8000ea2:	681b      	ldr	r3, [r3, #0]
 8000ea4:	f423 5300 	bic.w	r3, r3, #8192	; 0x2000
 8000ea8:	6013      	str	r3, [r2, #0]
 8000eaa:	bf00      	nop
 8000eac:	370c      	adds	r7, #12
 8000eae:	46bd      	mov	sp, r7
 8000eb0:	f85d 7b04 	ldr.w	r7, [sp], #4
 8000eb4:	4770      	bx	lr
 8000eb6:	bf00      	nop
 8000eb8:	4001100c 	andmi	r1, r1, ip
 8000ebc:	4000440c 	andmi	r4, r0, ip, lsl #8
 8000ec0:	4001140c 	andmi	r1, r1, ip, lsl #8

08000ec4 <bsp_usart_enable>:
 8000ec4:	b480      	push	{r7}
 8000ec6:	b083      	sub	sp, #12
 8000ec8:	af00      	add	r7, sp, #0
 8000eca:	4603      	mov	r3, r0
 8000ecc:	71fb      	strb	r3, [r7, #7]
 8000ece:	79fb      	ldrb	r3, [r7, #7]
 8000ed0:	2b01      	cmp	r3, #1
 8000ed2:	d00b      	beq.n	8000eec <bsp_usart_enable+0x28>
 8000ed4:	2b03      	cmp	r3, #3
 8000ed6:	d010      	beq.n	8000efa <bsp_usart_enable+0x36>
 8000ed8:	2b00      	cmp	r3, #0
 8000eda:	d000      	beq.n	8000ede <bsp_usart_enable+0x1a>
 8000edc:	e014      	b.n	8000f08 <bsp_usart_enable+0x44>
 8000ede:	4a0d      	ldr	r2, [pc, #52]	; (8000f14 <bsp_usart_enable+0x50>)
 8000ee0:	4b0c      	ldr	r3, [pc, #48]	; (8000f14 <bsp_usart_enable+0x50>)
 8000ee2:	681b      	ldr	r3, [r3, #0]
 8000ee4:	f443 5300 	orr.w	r3, r3, #8192	; 0x2000
 8000ee8:	6013      	str	r3, [r2, #0]
 8000eea:	e00d      	b.n	8000f08 <bsp_usart_enable+0x44>
 8000eec:	4a0a      	ldr	r2, [pc, #40]	; (8000f18 <bsp_usart_enable+0x54>)
 8000eee:	4b0a      	ldr	r3, [pc, #40]	; (8000f18 <bsp_usart_enable+0x54>)
 8000ef0:	681b      	ldr	r3, [r3, #0]
 8000ef2:	f443 5300 	orr.w	r3, r3, #8192	; 0x2000
 8000ef6:	6013      	str	r3, [r2, #0]
 8000ef8:	e006      	b.n	8000f08 <bsp_usart_enable+0x44>
 8000efa:	4a08      	ldr	r2, [pc, #32]	; (8000f1c <bsp_usart_enable+0x58>)
 8000efc:	4b07      	ldr	r3, [pc, #28]	; (8000f1c <bsp_usart_enable+0x58>)
 8000efe:	681b      	ldr	r3, [r3, #0]
 8000f00:	f443 5300 	orr.w	r3, r3, #8192	; 0x2000
 8000f04:	6013      	str	r3, [r2, #0]
 8000f06:	bf00      	nop
 8000f08:	370c      	adds	r7, #12
 8000f0a:	46bd      	mov	sp, r7
 8000f0c:	f85d 7b04 	ldr.w	r7, [sp], #4
 8000f10:	4770      	bx	lr
 8000f12:	bf00      	nop
 8000f14:	4001100c 	andmi	r1, r1, ip
 8000f18:	4000440c 	andmi	r4, r0, ip, lsl #8
 8000f1c:	4001140c 	andmi	r1, r1, ip, lsl #8

08000f20 <serial_init>:
 8000f20:	b580      	push	{r7, lr}
 8000f22:	b084      	sub	sp, #16
 8000f24:	af00      	add	r7, sp, #0
 8000f26:	6078      	str	r0, [r7, #4]
 8000f28:	4b67      	ldr	r3, [pc, #412]	; (80010c8 <serial_init+0x1a8>)
 8000f2a:	781b      	ldrb	r3, [r3, #0]
 8000f2c:	2b00      	cmp	r3, #0
 8000f2e:	d007      	beq.n	8000f40 <serial_init+0x20>
 8000f30:	2302      	movs	r3, #2
 8000f32:	2200      	movs	r2, #0
 8000f34:	2100      	movs	r1, #0
 8000f36:	4865      	ldr	r0, [pc, #404]	; (80010cc <serial_init+0x1ac>)
 8000f38:	f000 fb76 	bl	8001628 <KERNEL_LOG_ERROR>
 8000f3c:	2302      	movs	r3, #2
 8000f3e:	e0bf      	b.n	80010c0 <serial_init+0x1a0>
 8000f40:	687b      	ldr	r3, [r7, #4]
 8000f42:	2b00      	cmp	r3, #0
 8000f44:	d107      	bne.n	8000f56 <serial_init+0x36>
 8000f46:	2304      	movs	r3, #4
 8000f48:	2200      	movs	r2, #0
 8000f4a:	2100      	movs	r1, #0
 8000f4c:	4860      	ldr	r0, [pc, #384]	; (80010d0 <serial_init+0x1b0>)
 8000f4e:	f000 fb6b 	bl	8001628 <KERNEL_LOG_ERROR>
 8000f52:	2304      	movs	r3, #4
 8000f54:	e0b4      	b.n	80010c0 <serial_init+0x1a0>
 8000f56:	687b      	ldr	r3, [r7, #4]
 8000f58:	681b      	ldr	r3, [r3, #0]
 8000f5a:	f5b3 4f61 	cmp.w	r3, #57600	; 0xe100
 8000f5e:	d031      	beq.n	8000fc4 <serial_init+0xa4>
 8000f60:	f5b3 4f61 	cmp.w	r3, #57600	; 0xe100
 8000f64:	d813      	bhi.n	8000f8e <serial_init+0x6e>
 8000f66:	f5b3 5f16 	cmp.w	r3, #9600	; 0x2580
 8000f6a:	d02b      	beq.n	8000fc4 <serial_init+0xa4>
 8000f6c:	f5b3 5f16 	cmp.w	r3, #9600	; 0x2580
 8000f70:	d806      	bhi.n	8000f80 <serial_init+0x60>
 8000f72:	f5b3 6f96 	cmp.w	r3, #1200	; 0x4b0
 8000f76:	d025      	beq.n	8000fc4 <serial_init+0xa4>
 8000f78:	f5b3 6f16 	cmp.w	r3, #2400	; 0x960
 8000f7c:	d022      	beq.n	8000fc4 <serial_init+0xa4>
 8000f7e:	e019      	b.n	8000fb4 <serial_init+0x94>
 8000f80:	f5b3 4f96 	cmp.w	r3, #19200	; 0x4b00
 8000f84:	d01e      	beq.n	8000fc4 <serial_init+0xa4>
 8000f86:	f5b3 4f16 	cmp.w	r3, #38400	; 0x9600
 8000f8a:	d01b      	beq.n	8000fc4 <serial_init+0xa4>
 8000f8c:	e012      	b.n	8000fb4 <serial_init+0x94>
 8000f8e:	f5b3 2fe1 	cmp.w	r3, #460800	; 0x70800
 8000f92:	d017      	beq.n	8000fc4 <serial_init+0xa4>
 8000f94:	f5b3 2fe1 	cmp.w	r3, #460800	; 0x70800
 8000f98:	d806      	bhi.n	8000fa8 <serial_init+0x88>
 8000f9a:	f5b3 3fe1 	cmp.w	r3, #115200	; 0x1c200
 8000f9e:	d011      	beq.n	8000fc4 <serial_init+0xa4>
 8000fa0:	f5b3 3f7a 	cmp.w	r3, #256000	; 0x3e800
 8000fa4:	d00e      	beq.n	8000fc4 <serial_init+0xa4>
 8000fa6:	e005      	b.n	8000fb4 <serial_init+0x94>
 8000fa8:	f5b3 2f61 	cmp.w	r3, #921600	; 0xe1000
 8000fac:	d00a      	beq.n	8000fc4 <serial_init+0xa4>
 8000fae:	f5b3 1fe1 	cmp.w	r3, #1843200	; 0x1c2000
 8000fb2:	d007      	beq.n	8000fc4 <serial_init+0xa4>
 8000fb4:	6879      	ldr	r1, [r7, #4]
 8000fb6:	2301      	movs	r3, #1
 8000fb8:	2204      	movs	r2, #4
 8000fba:	4846      	ldr	r0, [pc, #280]	; (80010d4 <serial_init+0x1b4>)
 8000fbc:	f000 fb34 	bl	8001628 <KERNEL_LOG_ERROR>
 8000fc0:	2301      	movs	r3, #1
 8000fc2:	e07d      	b.n	80010c0 <serial_init+0x1a0>
 8000fc4:	bf00      	nop
 8000fc6:	687b      	ldr	r3, [r7, #4]
 8000fc8:	791b      	ldrb	r3, [r3, #4]
 8000fca:	3b08      	subs	r3, #8
 8000fcc:	2b01      	cmp	r3, #1
 8000fce:	d908      	bls.n	8000fe2 <serial_init+0xc2>
 8000fd0:	687b      	ldr	r3, [r7, #4]
 8000fd2:	1d19      	adds	r1, r3, #4
 8000fd4:	2301      	movs	r3, #1
 8000fd6:	2201      	movs	r2, #1
 8000fd8:	483f      	ldr	r0, [pc, #252]	; (80010d8 <serial_init+0x1b8>)
 8000fda:	f000 fb25 	bl	8001628 <KERNEL_LOG_ERROR>
 8000fde:	2301      	movs	r3, #1
 8000fe0:	e06e      	b.n	80010c0 <serial_init+0x1a0>
 8000fe2:	bf00      	nop
 8000fe4:	687b      	ldr	r3, [r7, #4]
 8000fe6:	795b      	ldrb	r3, [r3, #5]
 8000fe8:	3300      	adds	r3, #0
 8000fea:	2b03      	cmp	r3, #3
 8000fec:	d908      	bls.n	8001000 <serial_init+0xe0>
 8000fee:	687b      	ldr	r3, [r7, #4]
 8000ff0:	1d59      	adds	r1, r3, #5
 8000ff2:	2301      	movs	r3, #1
 8000ff4:	2201      	movs	r2, #1
 8000ff6:	4839      	ldr	r0, [pc, #228]	; (80010dc <serial_init+0x1bc>)
 8000ff8:	f000 fb16 	bl	8001628 <KERNEL_LOG_ERROR>
 8000ffc:	2301      	movs	r3, #1
 8000ffe:	e05f      	b.n	80010c0 <serial_init+0x1a0>
 8001000:	bf00      	nop
 8001002:	687b      	ldr	r3, [r7, #4]
 8001004:	799b      	ldrb	r3, [r3, #6]
 8001006:	3300      	adds	r3, #0
 8001008:	2b02      	cmp	r3, #2
 800100a:	d908      	bls.n	800101e <serial_init+0xfe>
 800100c:	687b      	ldr	r3, [r7, #4]
 800100e:	1d99      	adds	r1, r3, #6
 8001010:	2301      	movs	r3, #1
 8001012:	2201      	movs	r2, #1
 8001014:	4832      	ldr	r0, [pc, #200]	; (80010e0 <serial_init+0x1c0>)
 8001016:	f000 fb07 	bl	8001628 <KERNEL_LOG_ERROR>
 800101a:	2301      	movs	r3, #1
 800101c:	e050      	b.n	80010c0 <serial_init+0x1a0>
 800101e:	bf00      	nop
 8001020:	687b      	ldr	r3, [r7, #4]
 8001022:	79db      	ldrb	r3, [r3, #7]
 8001024:	2b00      	cmp	r3, #0
 8001026:	d00d      	beq.n	8001044 <serial_init+0x124>
 8001028:	2b00      	cmp	r3, #0
 800102a:	db02      	blt.n	8001032 <serial_init+0x112>
 800102c:	3b02      	subs	r3, #2
 800102e:	2b02      	cmp	r3, #2
 8001030:	d908      	bls.n	8001044 <serial_init+0x124>
 8001032:	687b      	ldr	r3, [r7, #4]
 8001034:	1dd9      	adds	r1, r3, #7
 8001036:	2301      	movs	r3, #1
 8001038:	2201      	movs	r2, #1
 800103a:	482a      	ldr	r0, [pc, #168]	; (80010e4 <serial_init+0x1c4>)
 800103c:	f000 faf4 	bl	8001628 <KERNEL_LOG_ERROR>
 8001040:	2301      	movs	r3, #1
 8001042:	e03d      	b.n	80010c0 <serial_init+0x1a0>
 8001044:	bf00      	nop
 8001046:	2000      	movs	r0, #0
 8001048:	f7ff f98c 	bl	8000364 <bsp_clk_gpio_enable>
 800104c:	4603      	mov	r3, r0
 800104e:	73fb      	strb	r3, [r7, #15]
 8001050:	7bfb      	ldrb	r3, [r7, #15]
 8001052:	2b00      	cmp	r3, #0
 8001054:	d001      	beq.n	800105a <serial_init+0x13a>
 8001056:	7bfb      	ldrb	r3, [r7, #15]
 8001058:	e032      	b.n	80010c0 <serial_init+0x1a0>
 800105a:	2001      	movs	r0, #1
 800105c:	f7ff f9d8 	bl	8000410 <bsp_clk_usart_enable>
 8001060:	4603      	mov	r3, r0
 8001062:	73fb      	strb	r3, [r7, #15]
 8001064:	7bfb      	ldrb	r3, [r7, #15]
 8001066:	2b00      	cmp	r3, #0
 8001068:	d001      	beq.n	800106e <serial_init+0x14e>
 800106a:	7bfb      	ldrb	r3, [r7, #15]
 800106c:	e028      	b.n	80010c0 <serial_init+0x1a0>
 800106e:	230c      	movs	r3, #12
 8001070:	813b      	strh	r3, [r7, #8]
 8001072:	2302      	movs	r3, #2
 8001074:	72bb      	strb	r3, [r7, #10]
 8001076:	2307      	movs	r3, #7
 8001078:	733b      	strb	r3, [r7, #12]
 800107a:	2303      	movs	r3, #3
 800107c:	72fb      	strb	r3, [r7, #11]
 800107e:	f107 0308 	add.w	r3, r7, #8
 8001082:	4619      	mov	r1, r3
 8001084:	2000      	movs	r0, #0
 8001086:	f7ff fb85 	bl	8000794 <bsp_gpio_init>
 800108a:	4603      	mov	r3, r0
 800108c:	73fb      	strb	r3, [r7, #15]
 800108e:	7bfb      	ldrb	r3, [r7, #15]
 8001090:	2b00      	cmp	r3, #0
 8001092:	d001      	beq.n	8001098 <serial_init+0x178>
 8001094:	7bfb      	ldrb	r3, [r7, #15]
 8001096:	e013      	b.n	80010c0 <serial_init+0x1a0>
 8001098:	2001      	movs	r0, #1
 800109a:	f7ff fee5 	bl	8000e68 <bsp_usart_disable>
 800109e:	6879      	ldr	r1, [r7, #4]
 80010a0:	2001      	movs	r0, #1
 80010a2:	f7ff fced 	bl	8000a80 <bsp_uart_init>
 80010a6:	2001      	movs	r0, #1
 80010a8:	f7ff ff0c 	bl	8000ec4 <bsp_usart_enable>
 80010ac:	2300      	movs	r3, #0
 80010ae:	2200      	movs	r2, #0
 80010b0:	2100      	movs	r1, #0
 80010b2:	480d      	ldr	r0, [pc, #52]	; (80010e8 <serial_init+0x1c8>)
 80010b4:	f000 fa78 	bl	80015a8 <KERNEL_LOG_INFO>
 80010b8:	4b03      	ldr	r3, [pc, #12]	; (80010c8 <serial_init+0x1a8>)
 80010ba:	2201      	movs	r2, #1
 80010bc:	701a      	strb	r2, [r3, #0]
 80010be:	2300      	movs	r3, #0
 80010c0:	4618      	mov	r0, r3
 80010c2:	3710      	adds	r7, #16
 80010c4:	46bd      	mov	sp, r7
 80010c6:	bd80      	pop	{r7, pc}
 80010c8:	20000005 	andcs	r0, r0, r5
 80010cc:	08001908 	stmdaeq	r0, {r3, r8, fp, ip}
 80010d0:	08001924 	stmdaeq	r0, {r2, r5, r8, fp, ip}
 80010d4:	08001948 	stmdaeq	r0, {r3, r6, r8, fp, ip}
 80010d8:	08001960 	stmdaeq	r0, {r5, r6, r8, fp, ip}
 80010dc:	0800197c 	stmdaeq	r0, {r2, r3, r4, r5, r6, r8, fp, ip}
 80010e0:	08001994 	stmdaeq	r0, {r2, r4, r7, r8, fp, ip}
 80010e4:	080019b0 	stmdaeq	r0, {r4, r5, r7, r8, fp, ip}
 80010e8:	080019cc 	stmdaeq	r0, {r2, r3, r6, r7, r8, fp, ip}

080010ec <serial_write>:
 80010ec:	b480      	push	{r7}
 80010ee:	b085      	sub	sp, #20
 80010f0:	af00      	add	r7, sp, #0
 80010f2:	6078      	str	r0, [r7, #4]
 80010f4:	6039      	str	r1, [r7, #0]
 80010f6:	4b12      	ldr	r3, [pc, #72]	; (8001140 <serial_write+0x54>)
 80010f8:	781b      	ldrb	r3, [r3, #0]
 80010fa:	2b00      	cmp	r3, #0
 80010fc:	d101      	bne.n	8001102 <serial_write+0x16>
 80010fe:	2302      	movs	r3, #2
 8001100:	e017      	b.n	8001132 <serial_write+0x46>
 8001102:	2300      	movs	r3, #0
 8001104:	60fb      	str	r3, [r7, #12]
 8001106:	e00f      	b.n	8001128 <serial_write+0x3c>
 8001108:	bf00      	nop
 800110a:	4b0e      	ldr	r3, [pc, #56]	; (8001144 <serial_write+0x58>)
 800110c:	681b      	ldr	r3, [r3, #0]
 800110e:	f003 0380 	and.w	r3, r3, #128	; 0x80
 8001112:	2b00      	cmp	r3, #0
 8001114:	d0f9      	beq.n	800110a <serial_write+0x1e>
 8001116:	490c      	ldr	r1, [pc, #48]	; (8001148 <serial_write+0x5c>)
 8001118:	687b      	ldr	r3, [r7, #4]
 800111a:	1c5a      	adds	r2, r3, #1
 800111c:	607a      	str	r2, [r7, #4]
 800111e:	781b      	ldrb	r3, [r3, #0]
 8001120:	600b      	str	r3, [r1, #0]
 8001122:	68fb      	ldr	r3, [r7, #12]
 8001124:	3301      	adds	r3, #1
 8001126:	60fb      	str	r3, [r7, #12]
 8001128:	68fa      	ldr	r2, [r7, #12]
 800112a:	683b      	ldr	r3, [r7, #0]
 800112c:	429a      	cmp	r2, r3
 800112e:	d3eb      	bcc.n	8001108 <serial_write+0x1c>
 8001130:	2300      	movs	r3, #0
 8001132:	4618      	mov	r0, r3
 8001134:	3714      	adds	r7, #20
 8001136:	46bd      	mov	sp, r7
 8001138:	f85d 7b04 	ldr.w	r7, [sp], #4
 800113c:	4770      	bx	lr
 800113e:	bf00      	nop
 8001140:	20000005 	andcs	r0, r0, r5
 8001144:	40004400 	andmi	r4, r0, r0, lsl #8
 8001148:	40004404 	andmi	r4, r0, r4, lsl #8

0800114c <cpu_timer_enable>:
 800114c:	b480      	push	{r7}
 800114e:	b083      	sub	sp, #12
 8001150:	af00      	add	r7, sp, #0
 8001152:	4603      	mov	r3, r0
 8001154:	71fb      	strb	r3, [r7, #7]
 8001156:	490a      	ldr	r1, [pc, #40]	; (8001180 <cpu_timer_enable+0x34>)
 8001158:	4b09      	ldr	r3, [pc, #36]	; (8001180 <cpu_timer_enable+0x34>)
 800115a:	681a      	ldr	r2, [r3, #0]
 800115c:	79fb      	ldrb	r3, [r7, #7]
 800115e:	2b00      	cmp	r3, #0
 8001160:	d001      	beq.n	8001166 <cpu_timer_enable+0x1a>
 8001162:	2302      	movs	r3, #2
 8001164:	e000      	b.n	8001168 <cpu_timer_enable+0x1c>
 8001166:	2300      	movs	r3, #0
 8001168:	4313      	orrs	r3, r2
 800116a:	f043 0305 	orr.w	r3, r3, #5
 800116e:	600b      	str	r3, [r1, #0]
 8001170:	2300      	movs	r3, #0
 8001172:	4618      	mov	r0, r3
 8001174:	370c      	adds	r7, #12
 8001176:	46bd      	mov	sp, r7
 8001178:	f85d 7b04 	ldr.w	r7, [sp], #4
 800117c:	4770      	bx	lr
 800117e:	bf00      	nop
 8001180:	e000e010 	and	lr, r0, r0, lsl r0

08001184 <cpu_timer_disable>:
 8001184:	b480      	push	{r7}
 8001186:	af00      	add	r7, sp, #0
 8001188:	4a05      	ldr	r2, [pc, #20]	; (80011a0 <cpu_timer_disable+0x1c>)
 800118a:	4b05      	ldr	r3, [pc, #20]	; (80011a0 <cpu_timer_disable+0x1c>)
 800118c:	681b      	ldr	r3, [r3, #0]
 800118e:	f023 0303 	bic.w	r3, r3, #3
 8001192:	6013      	str	r3, [r2, #0]
 8001194:	2300      	movs	r3, #0
 8001196:	4618      	mov	r0, r3
 8001198:	46bd      	mov	sp, r7
 800119a:	f85d 7b04 	ldr.w	r7, [sp], #4
 800119e:	4770      	bx	lr
 80011a0:	e000e010 	and	lr, r0, r0, lsl r0

080011a4 <cpu_timer_set_frequency>:
 80011a4:	b580      	push	{r7, lr}
 80011a6:	b084      	sub	sp, #16
 80011a8:	af00      	add	r7, sp, #0
 80011aa:	6078      	str	r0, [r7, #4]
 80011ac:	687b      	ldr	r3, [r7, #4]
 80011ae:	2b05      	cmp	r3, #5
 80011b0:	d904      	bls.n	80011bc <cpu_timer_set_frequency+0x18>
 80011b2:	687b      	ldr	r3, [r7, #4]
 80011b4:	f242 7210 	movw	r2, #10000	; 0x2710
 80011b8:	4293      	cmp	r3, r2
 80011ba:	d907      	bls.n	80011cc <cpu_timer_set_frequency+0x28>
 80011bc:	2301      	movs	r3, #1
 80011be:	2200      	movs	r2, #0
 80011c0:	2100      	movs	r1, #0
 80011c2:	4810      	ldr	r0, [pc, #64]	; (8001204 <cpu_timer_set_frequency+0x60>)
 80011c4:	f000 fa30 	bl	8001628 <KERNEL_LOG_ERROR>
 80011c8:	2301      	movs	r3, #1
 80011ca:	e017      	b.n	80011fc <cpu_timer_set_frequency+0x58>
 80011cc:	f107 0308 	add.w	r3, r7, #8
 80011d0:	4618      	mov	r0, r3
 80011d2:	f7ff fa81 	bl	80006d8 <bsp_get_cpu_freq>
 80011d6:	4603      	mov	r3, r0
 80011d8:	73fb      	strb	r3, [r7, #15]
 80011da:	7bfb      	ldrb	r3, [r7, #15]
 80011dc:	2b00      	cmp	r3, #0
 80011de:	d001      	beq.n	80011e4 <cpu_timer_set_frequency+0x40>
 80011e0:	7bfb      	ldrb	r3, [r7, #15]
 80011e2:	e00b      	b.n	80011fc <cpu_timer_set_frequency+0x58>
 80011e4:	68ba      	ldr	r2, [r7, #8]
 80011e6:	687b      	ldr	r3, [r7, #4]
 80011e8:	fbb2 f3f3 	udiv	r3, r2, r3
 80011ec:	60bb      	str	r3, [r7, #8]
 80011ee:	4a06      	ldr	r2, [pc, #24]	; (8001208 <cpu_timer_set_frequency+0x64>)
 80011f0:	68bb      	ldr	r3, [r7, #8]
 80011f2:	6013      	str	r3, [r2, #0]
 80011f4:	4a05      	ldr	r2, [pc, #20]	; (800120c <cpu_timer_set_frequency+0x68>)
 80011f6:	687b      	ldr	r3, [r7, #4]
 80011f8:	6013      	str	r3, [r2, #0]
 80011fa:	2300      	movs	r3, #0
 80011fc:	4618      	mov	r0, r3
 80011fe:	3710      	adds	r7, #16
 8001200:	46bd      	mov	sp, r7
 8001202:	bd80      	pop	{r7, pc}
 8001204:	080019e0 	stmdaeq	r0, {r5, r6, r7, r8, fp, ip}
 8001208:	e000e014 	and	lr, r0, r4, lsl r0
 800120c:	20000008 	andcs	r0, r0, r8

08001210 <cpu_timer_get_frequency>:
 8001210:	b480      	push	{r7}
 8001212:	b083      	sub	sp, #12
 8001214:	af00      	add	r7, sp, #0
 8001216:	6078      	str	r0, [r7, #4]
 8001218:	687b      	ldr	r3, [r7, #4]
 800121a:	2b00      	cmp	r3, #0
 800121c:	d101      	bne.n	8001222 <cpu_timer_get_frequency+0x12>
 800121e:	2304      	movs	r3, #4
 8001220:	e004      	b.n	800122c <cpu_timer_get_frequency+0x1c>
 8001222:	4b05      	ldr	r3, [pc, #20]	; (8001238 <cpu_timer_get_frequency+0x28>)
 8001224:	681a      	ldr	r2, [r3, #0]
 8001226:	687b      	ldr	r3, [r7, #4]
 8001228:	601a      	str	r2, [r3, #0]
 800122a:	2300      	movs	r3, #0
 800122c:	4618      	mov	r0, r3
 800122e:	370c      	adds	r7, #12
 8001230:	46bd      	mov	sp, r7
 8001232:	f85d 7b04 	ldr.w	r7, [sp], #4
 8001236:	4770      	bx	lr
 8001238:	20000008 	andcs	r0, r0, r8

0800123c <__fpu_init>:
 800123c:	f04f 4040 	mov.w	r0, #3221225472	; 0xc0000000
 8001240:	4905      	ldr	r1, [pc, #20]	; (8001258 <__fpu_init+0x1c>)
 8001242:	6008      	str	r0, [r1, #0]
 8001244:	4905      	ldr	r1, [pc, #20]	; (800125c <__fpu_init+0x20>)
 8001246:	6808      	ldr	r0, [r1, #0]
 8001248:	f440 0070 	orr.w	r0, r0, #15728640	; 0xf00000
 800124c:	6008      	str	r0, [r1, #0]
 800124e:	f3bf 8f4f 	dsb	sy
 8001252:	f3bf 8f6f 	isb	sy
 8001256:	4770      	bx	lr
 8001258:	e000ef34 	and	lr, r0, r4, lsr pc
 800125c:	e000ed88 	and	lr, r0, r8, lsl #27

08001260 <__exc_undef_handler>:
 8001260:	f7ff bffe 	b.w	8001260 <__exc_undef_handler>

08001264 <__global_int_entry>:
 8001264:	b500      	push	{lr}
 8001266:	f000 f8b7 	bl	80013d8 <kernel_global_interrupt_handler>
 800126a:	bd00      	pop	{pc}

0800126c <__exc_nmi_handler>:
 800126c:	f04f 0300 	mov.w	r3, #0
 8001270:	e7f8      	b.n	8001264 <__global_int_entry>

08001272 <__exc_hardfault_handler>:
 8001272:	f04f 0301 	mov.w	r3, #1
 8001276:	e7f5      	b.n	8001264 <__global_int_entry>

08001278 <__exc_mpu_handler>:
 8001278:	f04f 0302 	mov.w	r3, #2
 800127c:	e7f2      	b.n	8001264 <__global_int_entry>

0800127e <__exc_bus_handler>:
 800127e:	f04f 0300 	mov.w	r3, #0
 8001282:	e7ef      	b.n	8001264 <__global_int_entry>

08001284 <__exc_svc_handler>:
 8001284:	f04f 030a 	mov.w	r3, #10
 8001288:	f04f 030a 	mov.w	r3, #10
 800128c:	e7ea      	b.n	8001264 <__global_int_entry>

0800128e <__exc_debug_handler>:
 800128e:	f04f 030e 	mov.w	r3, #14
 8001292:	e7e7      	b.n	8001264 <__global_int_entry>

08001294 <__extint_0>:
 8001294:	e7fe      	b.n	8001294 <__extint_0>
	...

08001298 <__nvic_init>:
 8001298:	b500      	push	{lr}
 800129a:	f64f 70ff 	movw	r0, #65535	; 0xffff
 800129e:	490f      	ldr	r1, [pc, #60]	; (80012dc <__nvic_set_prio_group_count_end+0x6>)
 80012a0:	6008      	str	r0, [r1, #0]
 80012a2:	f04f 0002 	mov.w	r0, #2
 80012a6:	f000 f801 	bl	80012ac <__nvic_set_prio_group_count>
 80012aa:	bd00      	pop	{pc}

080012ac <__nvic_set_prio_group_count>:
 80012ac:	b408      	push	{r3}
 80012ae:	f04f 0107 	mov.w	r1, #7
 80012b2:	4288      	cmp	r0, r1
 80012b4:	dc0f      	bgt.n	80012d6 <__nvic_set_prio_group_count_end>
 80012b6:	ea4f 2000 	mov.w	r0, r0, lsl #8
 80012ba:	4909      	ldr	r1, [pc, #36]	; (80012e0 <__nvic_set_prio_group_count_end+0xa>)
 80012bc:	680a      	ldr	r2, [r1, #0]
 80012be:	f64f 73ff 	movw	r3, #65535	; 0xffff
 80012c2:	ea02 0203 	and.w	r2, r2, r3
 80012c6:	4b07      	ldr	r3, [pc, #28]	; (80012e4 <__nvic_set_prio_group_count_end+0xe>)
 80012c8:	f422 62e0 	bic.w	r2, r2, #1792	; 0x700
 80012cc:	ea42 0200 	orr.w	r2, r2, r0
 80012d0:	ea42 0203 	orr.w	r2, r2, r3
 80012d4:	600a      	str	r2, [r1, #0]

080012d6 <__nvic_set_prio_group_count_end>:
 80012d6:	bc08      	pop	{r3}
 80012d8:	4770      	bx	lr
 80012da:	e1000000 	mrs	r0, (UNDEF: 0)
 80012de:	ed0ce000 	stc	0, cr14, [ip, #-0]
 80012e2:	0000e000 	andeq	lr, r0, r0
 80012e6:	b48005fa 	strlt	r0, [r0], #1530	; 0x5fa

080012e8 <kernel_panic>:
 80012e8:	b480      	push	{r7}
 80012ea:	b083      	sub	sp, #12
 80012ec:	af00      	add	r7, sp, #0
 80012ee:	4603      	mov	r3, r0
 80012f0:	71fb      	strb	r3, [r7, #7]
 80012f2:	e7fe      	b.n	80012f2 <kernel_panic+0xa>

080012f4 <early_init>:
 80012f4:	b580      	push	{r7, lr}
 80012f6:	b084      	sub	sp, #16
 80012f8:	af00      	add	r7, sp, #0
 80012fa:	4a19      	ldr	r2, [pc, #100]	; (8001360 <early_init+0x6c>)
 80012fc:	1d3b      	adds	r3, r7, #4
 80012fe:	e892 0003 	ldmia.w	r2, {r0, r1}
 8001302:	e883 0003 	stmia.w	r3, {r0, r1}
 8001306:	4b17      	ldr	r3, [pc, #92]	; (8001364 <early_init+0x70>)
 8001308:	603b      	str	r3, [r7, #0]
 800130a:	463b      	mov	r3, r7
 800130c:	4618      	mov	r0, r3
 800130e:	f000 f92f 	bl	8001570 <kernel_logger_init>
 8001312:	4603      	mov	r3, r0
 8001314:	73fb      	strb	r3, [r7, #15]
 8001316:	7bfb      	ldrb	r3, [r7, #15]
 8001318:	2b00      	cmp	r3, #0
 800131a:	d003      	beq.n	8001324 <early_init+0x30>
 800131c:	7bfb      	ldrb	r3, [r7, #15]
 800131e:	4618      	mov	r0, r3
 8001320:	f7ff ffe2 	bl	80012e8 <kernel_panic>
 8001324:	1d3b      	adds	r3, r7, #4
 8001326:	4618      	mov	r0, r3
 8001328:	f7ff fdfa 	bl	8000f20 <serial_init>
 800132c:	4603      	mov	r3, r0
 800132e:	73fb      	strb	r3, [r7, #15]
 8001330:	7bfb      	ldrb	r3, [r7, #15]
 8001332:	2b00      	cmp	r3, #0
 8001334:	d00a      	beq.n	800134c <early_init+0x58>
 8001336:	7bfb      	ldrb	r3, [r7, #15]
 8001338:	f107 010f 	add.w	r1, r7, #15
 800133c:	2201      	movs	r2, #1
 800133e:	480a      	ldr	r0, [pc, #40]	; (8001368 <early_init+0x74>)
 8001340:	f000 f972 	bl	8001628 <KERNEL_LOG_ERROR>
 8001344:	7bfb      	ldrb	r3, [r7, #15]
 8001346:	4618      	mov	r0, r3
 8001348:	f7ff ffce 	bl	80012e8 <kernel_panic>
 800134c:	7bfb      	ldrb	r3, [r7, #15]
 800134e:	2200      	movs	r2, #0
 8001350:	2100      	movs	r1, #0
 8001352:	4806      	ldr	r0, [pc, #24]	; (800136c <early_init+0x78>)
 8001354:	f000 f928 	bl	80015a8 <KERNEL_LOG_INFO>
 8001358:	bf00      	nop
 800135a:	3710      	adds	r7, #16
 800135c:	46bd      	mov	sp, r7
 800135e:	bd80      	pop	{r7, pc}
 8001360:	08001a3c 	stmdaeq	r0, {r2, r3, r4, r5, r9, fp, ip}
 8001364:	08000a1d 	stmdaeq	r0, {r0, r2, r3, r4, r9, fp}
 8001368:	08001a0c 	stmdaeq	r0, {r2, r3, r9, fp, ip}
 800136c:	08001a28 	stmdaeq	r0, {r3, r5, r9, fp, ip}

08001370 <kernel_kickstart>:
 8001370:	b580      	push	{r7, lr}
 8001372:	b082      	sub	sp, #8
 8001374:	af00      	add	r7, sp, #0
 8001376:	f7ff ffbd 	bl	80012f4 <early_init>
 800137a:	2064      	movs	r0, #100	; 0x64
 800137c:	f7ff ff12 	bl	80011a4 <cpu_timer_set_frequency>
 8001380:	4603      	mov	r3, r0
 8001382:	71fb      	strb	r3, [r7, #7]
 8001384:	79fb      	ldrb	r3, [r7, #7]
 8001386:	2b00      	cmp	r3, #0
 8001388:	d009      	beq.n	800139e <kernel_kickstart+0x2e>
 800138a:	79fb      	ldrb	r3, [r7, #7]
 800138c:	1df9      	adds	r1, r7, #7
 800138e:	2201      	movs	r2, #1
 8001390:	480f      	ldr	r0, [pc, #60]	; (80013d0 <kernel_kickstart+0x60>)
 8001392:	f000 f949 	bl	8001628 <KERNEL_LOG_ERROR>
 8001396:	79fb      	ldrb	r3, [r7, #7]
 8001398:	4618      	mov	r0, r3
 800139a:	f7ff ffa5 	bl	80012e8 <kernel_panic>
 800139e:	2001      	movs	r0, #1
 80013a0:	f7ff fed4 	bl	800114c <cpu_timer_enable>
 80013a4:	4603      	mov	r3, r0
 80013a6:	71fb      	strb	r3, [r7, #7]
 80013a8:	79fb      	ldrb	r3, [r7, #7]
 80013aa:	2b00      	cmp	r3, #0
 80013ac:	d009      	beq.n	80013c2 <kernel_kickstart+0x52>
 80013ae:	79fb      	ldrb	r3, [r7, #7]
 80013b0:	1df9      	adds	r1, r7, #7
 80013b2:	2201      	movs	r2, #1
 80013b4:	4806      	ldr	r0, [pc, #24]	; (80013d0 <kernel_kickstart+0x60>)
 80013b6:	f000 f937 	bl	8001628 <KERNEL_LOG_ERROR>
 80013ba:	79fb      	ldrb	r3, [r7, #7]
 80013bc:	4618      	mov	r0, r3
 80013be:	f7ff ff93 	bl	80012e8 <kernel_panic>
 80013c2:	2300      	movs	r3, #0
 80013c4:	2200      	movs	r2, #0
 80013c6:	2100      	movs	r1, #0
 80013c8:	4802      	ldr	r0, [pc, #8]	; (80013d4 <kernel_kickstart+0x64>)
 80013ca:	f000 f8ed 	bl	80015a8 <KERNEL_LOG_INFO>
 80013ce:	e7fe      	b.n	80013ce <kernel_kickstart+0x5e>
 80013d0:	08001a44 	stmdaeq	r0, {r2, r6, r9, fp, ip}
 80013d4:	08001a64 	stmdaeq	r0, {r2, r5, r6, r9, fp, ip}

080013d8 <kernel_global_interrupt_handler>:
 80013d8:	b480      	push	{r7}
 80013da:	b085      	sub	sp, #20
 80013dc:	af00      	add	r7, sp, #0
 80013de:	60f8      	str	r0, [r7, #12]
 80013e0:	60b9      	str	r1, [r7, #8]
 80013e2:	607a      	str	r2, [r7, #4]
 80013e4:	bf00      	nop
 80013e6:	3714      	adds	r7, #20
 80013e8:	46bd      	mov	sp, r7
 80013ea:	f85d 7b04 	ldr.w	r7, [sp], #4
 80013ee:	4770      	bx	lr

080013f0 <byte_to_str>:
 80013f0:	b480      	push	{r7}
 80013f2:	b083      	sub	sp, #12
 80013f4:	af00      	add	r7, sp, #0
 80013f6:	6078      	str	r0, [r7, #4]
 80013f8:	460b      	mov	r3, r1
 80013fa:	70fb      	strb	r3, [r7, #3]
 80013fc:	78fb      	ldrb	r3, [r7, #3]
 80013fe:	f003 030f 	and.w	r3, r3, #15
 8001402:	4a07      	ldr	r2, [pc, #28]	; (8001420 <byte_to_str+0x30>)
 8001404:	5cd2      	ldrb	r2, [r2, r3]
 8001406:	687b      	ldr	r3, [r7, #4]
 8001408:	701a      	strb	r2, [r3, #0]
 800140a:	687b      	ldr	r3, [r7, #4]
 800140c:	3301      	adds	r3, #1
 800140e:	2230      	movs	r2, #48	; 0x30
 8001410:	701a      	strb	r2, [r3, #0]
 8001412:	bf00      	nop
 8001414:	370c      	adds	r7, #12
 8001416:	46bd      	mov	sp, r7
 8001418:	f85d 7b04 	ldr.w	r7, [sp], #4
 800141c:	4770      	bx	lr
 800141e:	bf00      	nop
 8001420:	08001a78 	stmdaeq	r0, {r3, r4, r5, r6, r9, fp, ip}

08001424 <state_to_str>:
 8001424:	b480      	push	{r7}
 8001426:	b085      	sub	sp, #20
 8001428:	af00      	add	r7, sp, #0
 800142a:	6078      	str	r0, [r7, #4]
 800142c:	460b      	mov	r3, r1
 800142e:	70fb      	strb	r3, [r7, #3]
 8001430:	78fb      	ldrb	r3, [r7, #3]
 8001432:	60bb      	str	r3, [r7, #8]
 8001434:	2300      	movs	r3, #0
 8001436:	60fb      	str	r3, [r7, #12]
 8001438:	e00f      	b.n	800145a <state_to_str+0x36>
 800143a:	687a      	ldr	r2, [r7, #4]
 800143c:	68fb      	ldr	r3, [r7, #12]
 800143e:	4413      	add	r3, r2
 8001440:	68fa      	ldr	r2, [r7, #12]
 8001442:	00d2      	lsls	r2, r2, #3
 8001444:	68b9      	ldr	r1, [r7, #8]
 8001446:	fa21 f202 	lsr.w	r2, r1, r2
 800144a:	f002 020f 	and.w	r2, r2, #15
 800144e:	490d      	ldr	r1, [pc, #52]	; (8001484 <state_to_str+0x60>)
 8001450:	5c8a      	ldrb	r2, [r1, r2]
 8001452:	701a      	strb	r2, [r3, #0]
 8001454:	68fb      	ldr	r3, [r7, #12]
 8001456:	3301      	adds	r3, #1
 8001458:	60fb      	str	r3, [r7, #12]
 800145a:	68fb      	ldr	r3, [r7, #12]
 800145c:	2b00      	cmp	r3, #0
 800145e:	d0ec      	beq.n	800143a <state_to_str+0x16>
 8001460:	e007      	b.n	8001472 <state_to_str+0x4e>
 8001462:	687a      	ldr	r2, [r7, #4]
 8001464:	68fb      	ldr	r3, [r7, #12]
 8001466:	4413      	add	r3, r2
 8001468:	2200      	movs	r2, #0
 800146a:	701a      	strb	r2, [r3, #0]
 800146c:	68fb      	ldr	r3, [r7, #12]
 800146e:	3301      	adds	r3, #1
 8001470:	60fb      	str	r3, [r7, #12]
 8001472:	68fb      	ldr	r3, [r7, #12]
 8001474:	2b03      	cmp	r3, #3
 8001476:	d9f4      	bls.n	8001462 <state_to_str+0x3e>
 8001478:	bf00      	nop
 800147a:	3714      	adds	r7, #20
 800147c:	46bd      	mov	sp, r7
 800147e:	f85d 7b04 	ldr.w	r7, [sp], #4
 8001482:	4770      	bx	lr
 8001484:	08001a78 	stmdaeq	r0, {r3, r4, r5, r6, r9, fp, ip}

08001488 <strlen>:
 8001488:	b480      	push	{r7}
 800148a:	b085      	sub	sp, #20
 800148c:	af00      	add	r7, sp, #0
 800148e:	6078      	str	r0, [r7, #4]
 8001490:	2300      	movs	r3, #0
 8001492:	60fb      	str	r3, [r7, #12]
 8001494:	e002      	b.n	800149c <strlen+0x14>
 8001496:	68fb      	ldr	r3, [r7, #12]
 8001498:	3301      	adds	r3, #1
 800149a:	60fb      	str	r3, [r7, #12]
 800149c:	687b      	ldr	r3, [r7, #4]
 800149e:	1c5a      	adds	r2, r3, #1
 80014a0:	607a      	str	r2, [r7, #4]
 80014a2:	781b      	ldrb	r3, [r3, #0]
 80014a4:	2b00      	cmp	r3, #0
 80014a6:	d1f6      	bne.n	8001496 <strlen+0xe>
 80014a8:	68fb      	ldr	r3, [r7, #12]
 80014aa:	4618      	mov	r0, r3
 80014ac:	3714      	adds	r7, #20
 80014ae:	46bd      	mov	sp, r7
 80014b0:	f85d 7b04 	ldr.w	r7, [sp], #4
 80014b4:	4770      	bx	lr

080014b6 <logger_log>:
 80014b6:	b590      	push	{r4, r7, lr}
 80014b8:	b087      	sub	sp, #28
 80014ba:	af00      	add	r7, sp, #0
 80014bc:	60f8      	str	r0, [r7, #12]
 80014be:	60b9      	str	r1, [r7, #8]
 80014c0:	607a      	str	r2, [r7, #4]
 80014c2:	70fb      	strb	r3, [r7, #3]
 80014c4:	4b26      	ldr	r3, [pc, #152]	; (8001560 <logger_log+0xaa>)
 80014c6:	681c      	ldr	r4, [r3, #0]
 80014c8:	68f8      	ldr	r0, [r7, #12]
 80014ca:	f7ff ffdd 	bl	8001488 <strlen>
 80014ce:	4603      	mov	r3, r0
 80014d0:	4619      	mov	r1, r3
 80014d2:	68f8      	ldr	r0, [r7, #12]
 80014d4:	47a0      	blx	r4
 80014d6:	687b      	ldr	r3, [r7, #4]
 80014d8:	2b00      	cmp	r3, #0
 80014da:	d01f      	beq.n	800151c <logger_log+0x66>
 80014dc:	4b20      	ldr	r3, [pc, #128]	; (8001560 <logger_log+0xaa>)
 80014de:	681b      	ldr	r3, [r3, #0]
 80014e0:	2109      	movs	r1, #9
 80014e2:	4820      	ldr	r0, [pc, #128]	; (8001564 <logger_log+0xae>)
 80014e4:	4798      	blx	r3
 80014e6:	2300      	movs	r3, #0
 80014e8:	617b      	str	r3, [r7, #20]
 80014ea:	e013      	b.n	8001514 <logger_log+0x5e>
 80014ec:	68bb      	ldr	r3, [r7, #8]
 80014ee:	1c5a      	adds	r2, r3, #1
 80014f0:	60ba      	str	r2, [r7, #8]
 80014f2:	781a      	ldrb	r2, [r3, #0]
 80014f4:	f107 0310 	add.w	r3, r7, #16
 80014f8:	4611      	mov	r1, r2
 80014fa:	4618      	mov	r0, r3
 80014fc:	f7ff ff78 	bl	80013f0 <byte_to_str>
 8001500:	4b17      	ldr	r3, [pc, #92]	; (8001560 <logger_log+0xaa>)
 8001502:	681b      	ldr	r3, [r3, #0]
 8001504:	f107 0210 	add.w	r2, r7, #16
 8001508:	2102      	movs	r1, #2
 800150a:	4610      	mov	r0, r2
 800150c:	4798      	blx	r3
 800150e:	697b      	ldr	r3, [r7, #20]
 8001510:	3301      	adds	r3, #1
 8001512:	617b      	str	r3, [r7, #20]
 8001514:	697a      	ldr	r2, [r7, #20]
 8001516:	687b      	ldr	r3, [r7, #4]
 8001518:	429a      	cmp	r2, r3
 800151a:	d3e7      	bcc.n	80014ec <logger_log+0x36>
 800151c:	4b10      	ldr	r3, [pc, #64]	; (8001560 <logger_log+0xaa>)
 800151e:	681b      	ldr	r3, [r3, #0]
 8001520:	2105      	movs	r1, #5
 8001522:	4811      	ldr	r0, [pc, #68]	; (8001568 <logger_log+0xb2>)
 8001524:	4798      	blx	r3
 8001526:	78fa      	ldrb	r2, [r7, #3]
 8001528:	f107 0310 	add.w	r3, r7, #16
 800152c:	4611      	mov	r1, r2
 800152e:	4618      	mov	r0, r3
 8001530:	f7ff ff78 	bl	8001424 <state_to_str>
 8001534:	4b0a      	ldr	r3, [pc, #40]	; (8001560 <logger_log+0xaa>)
 8001536:	681c      	ldr	r4, [r3, #0]
 8001538:	f107 0310 	add.w	r3, r7, #16
 800153c:	4618      	mov	r0, r3
 800153e:	f7ff ffa3 	bl	8001488 <strlen>
 8001542:	4602      	mov	r2, r0
 8001544:	f107 0310 	add.w	r3, r7, #16
 8001548:	4611      	mov	r1, r2
 800154a:	4618      	mov	r0, r3
 800154c:	47a0      	blx	r4
 800154e:	4b04      	ldr	r3, [pc, #16]	; (8001560 <logger_log+0xaa>)
 8001550:	681b      	ldr	r3, [r3, #0]
 8001552:	2102      	movs	r1, #2
 8001554:	4805      	ldr	r0, [pc, #20]	; (800156c <logger_log+0xb6>)
 8001556:	4798      	blx	r3
 8001558:	bf00      	nop
 800155a:	371c      	adds	r7, #28
 800155c:	46bd      	mov	sp, r7
 800155e:	bd90      	pop	{r4, r7, pc}
 8001560:	20000000 	andcs	r0, r0, r0
 8001564:	08001a88 	stmdaeq	r0, {r3, r7, r9, fp, ip}
 8001568:	08001a94 	stmdaeq	r0, {r2, r4, r7, r9, fp, ip}
 800156c:	08001a9c 	stmdaeq	r0, {r2, r3, r4, r7, r9, fp, ip}

08001570 <kernel_logger_init>:
 8001570:	b480      	push	{r7}
 8001572:	b083      	sub	sp, #12
 8001574:	af00      	add	r7, sp, #0
 8001576:	6078      	str	r0, [r7, #4]
 8001578:	687b      	ldr	r3, [r7, #4]
 800157a:	2b00      	cmp	r3, #0
 800157c:	d101      	bne.n	8001582 <kernel_logger_init+0x12>
 800157e:	2304      	movs	r3, #4
 8001580:	e007      	b.n	8001592 <kernel_logger_init+0x22>
 8001582:	4a07      	ldr	r2, [pc, #28]	; (80015a0 <kernel_logger_init+0x30>)
 8001584:	687b      	ldr	r3, [r7, #4]
 8001586:	681b      	ldr	r3, [r3, #0]
 8001588:	6013      	str	r3, [r2, #0]
 800158a:	4b06      	ldr	r3, [pc, #24]	; (80015a4 <kernel_logger_init+0x34>)
 800158c:	2201      	movs	r2, #1
 800158e:	701a      	strb	r2, [r3, #0]
 8001590:	2300      	movs	r3, #0
 8001592:	4618      	mov	r0, r3
 8001594:	370c      	adds	r7, #12
 8001596:	46bd      	mov	sp, r7
 8001598:	f85d 7b04 	ldr.w	r7, [sp], #4
 800159c:	4770      	bx	lr
 800159e:	bf00      	nop
 80015a0:	20000000 	andcs	r0, r0, r0
 80015a4:	2000000c 	andcs	r0, r0, ip

080015a8 <KERNEL_LOG_INFO>:
 80015a8:	b580      	push	{r7, lr}
 80015aa:	b084      	sub	sp, #16
 80015ac:	af00      	add	r7, sp, #0
 80015ae:	60f8      	str	r0, [r7, #12]
 80015b0:	60b9      	str	r1, [r7, #8]
 80015b2:	607a      	str	r2, [r7, #4]
 80015b4:	70fb      	strb	r3, [r7, #3]
 80015b6:	4b09      	ldr	r3, [pc, #36]	; (80015dc <KERNEL_LOG_INFO+0x34>)
 80015b8:	781b      	ldrb	r3, [r3, #0]
 80015ba:	2b00      	cmp	r3, #0
 80015bc:	d00a      	beq.n	80015d4 <KERNEL_LOG_INFO+0x2c>
 80015be:	4b08      	ldr	r3, [pc, #32]	; (80015e0 <KERNEL_LOG_INFO+0x38>)
 80015c0:	681b      	ldr	r3, [r3, #0]
 80015c2:	2107      	movs	r1, #7
 80015c4:	4807      	ldr	r0, [pc, #28]	; (80015e4 <KERNEL_LOG_INFO+0x3c>)
 80015c6:	4798      	blx	r3
 80015c8:	78fb      	ldrb	r3, [r7, #3]
 80015ca:	687a      	ldr	r2, [r7, #4]
 80015cc:	68b9      	ldr	r1, [r7, #8]
 80015ce:	68f8      	ldr	r0, [r7, #12]
 80015d0:	f7ff ff71 	bl	80014b6 <logger_log>
 80015d4:	bf00      	nop
 80015d6:	3710      	adds	r7, #16
 80015d8:	46bd      	mov	sp, r7
 80015da:	bd80      	pop	{r7, pc}
 80015dc:	2000000c 	andcs	r0, r0, ip
 80015e0:	20000000 	andcs	r0, r0, r0
 80015e4:	08001aa0 	stmdaeq	r0, {r5, r7, r9, fp, ip}

080015e8 <KERNEL_LOG_WARNING>:
 80015e8:	b580      	push	{r7, lr}
 80015ea:	b084      	sub	sp, #16
 80015ec:	af00      	add	r7, sp, #0
 80015ee:	60f8      	str	r0, [r7, #12]
 80015f0:	60b9      	str	r1, [r7, #8]
 80015f2:	607a      	str	r2, [r7, #4]
 80015f4:	70fb      	strb	r3, [r7, #3]
 80015f6:	4b09      	ldr	r3, [pc, #36]	; (800161c <KERNEL_LOG_WARNING+0x34>)
 80015f8:	781b      	ldrb	r3, [r3, #0]
 80015fa:	2b00      	cmp	r3, #0
 80015fc:	d00a      	beq.n	8001614 <KERNEL_LOG_WARNING+0x2c>
 80015fe:	4b08      	ldr	r3, [pc, #32]	; (8001620 <KERNEL_LOG_WARNING+0x38>)
 8001600:	681b      	ldr	r3, [r3, #0]
 8001602:	2107      	movs	r1, #7
 8001604:	4807      	ldr	r0, [pc, #28]	; (8001624 <KERNEL_LOG_WARNING+0x3c>)
 8001606:	4798      	blx	r3
 8001608:	78fb      	ldrb	r3, [r7, #3]
 800160a:	687a      	ldr	r2, [r7, #4]
 800160c:	68b9      	ldr	r1, [r7, #8]
 800160e:	68f8      	ldr	r0, [r7, #12]
 8001610:	f7ff ff51 	bl	80014b6 <logger_log>
 8001614:	bf00      	nop
 8001616:	3710      	adds	r7, #16
 8001618:	46bd      	mov	sp, r7
 800161a:	bd80      	pop	{r7, pc}
 800161c:	2000000c 	andcs	r0, r0, ip
 8001620:	20000000 	andcs	r0, r0, r0
 8001624:	08001aa8 	stmdaeq	r0, {r3, r5, r7, r9, fp, ip}

08001628 <KERNEL_LOG_ERROR>:
 8001628:	b580      	push	{r7, lr}
 800162a:	b084      	sub	sp, #16
 800162c:	af00      	add	r7, sp, #0
 800162e:	60f8      	str	r0, [r7, #12]
 8001630:	60b9      	str	r1, [r7, #8]
 8001632:	607a      	str	r2, [r7, #4]
 8001634:	70fb      	strb	r3, [r7, #3]
 8001636:	4b09      	ldr	r3, [pc, #36]	; (800165c <KERNEL_LOG_ERROR+0x34>)
 8001638:	781b      	ldrb	r3, [r3, #0]
 800163a:	2b00      	cmp	r3, #0
 800163c:	d00a      	beq.n	8001654 <KERNEL_LOG_ERROR+0x2c>
 800163e:	4b08      	ldr	r3, [pc, #32]	; (8001660 <KERNEL_LOG_ERROR+0x38>)
 8001640:	681b      	ldr	r3, [r3, #0]
 8001642:	2108      	movs	r1, #8
 8001644:	4807      	ldr	r0, [pc, #28]	; (8001664 <KERNEL_LOG_ERROR+0x3c>)
 8001646:	4798      	blx	r3
 8001648:	78fb      	ldrb	r3, [r7, #3]
 800164a:	687a      	ldr	r2, [r7, #4]
 800164c:	68b9      	ldr	r1, [r7, #8]
 800164e:	68f8      	ldr	r0, [r7, #12]
 8001650:	f7ff ff31 	bl	80014b6 <logger_log>
 8001654:	bf00      	nop
 8001656:	3710      	adds	r7, #16
 8001658:	46bd      	mov	sp, r7
 800165a:	bd80      	pop	{r7, pc}
 800165c:	2000000c 	andcs	r0, r0, ip
 8001660:	20000000 	andcs	r0, r0, r0
 8001664:	08001ab0 	stmdaeq	r0, {r4, r5, r7, r9, fp, ip}

08001668 <__aeabi_uldivmod>:
 8001668:	2b00      	cmp	r3, #0
 800166a:	d126      	bne.n	80016ba <L_large_denom>
 800166c:	2a00      	cmp	r2, #0
 800166e:	d01a      	beq.n	80016a6 <L_divison_by_0>
 8001670:	2900      	cmp	r1, #0
 8001672:	d019      	beq.n	80016a8 <L_fallback_32bits>
 8001674:	b5f0      	push	{r4, r5, r6, r7, lr}
 8001676:	2501      	movs	r5, #1
 8001678:	1c17      	adds	r7, r2, #0
 800167a:	d406      	bmi.n	800168a <L_upper_result>
 800167c:	42b9      	cmp	r1, r7
 800167e:	d304      	bcc.n	800168a <L_upper_result>

08001680 <L_denom_shift_loop1>:
 8001680:	006d      	lsls	r5, r5, #1
 8001682:	007f      	lsls	r7, r7, #1
 8001684:	d401      	bmi.n	800168a <L_upper_result>
 8001686:	42b9      	cmp	r1, r7
 8001688:	d2fa      	bcs.n	8001680 <L_denom_shift_loop1>

0800168a <L_upper_result>:
 800168a:	460b      	mov	r3, r1
 800168c:	4602      	mov	r2, r0
 800168e:	2100      	movs	r1, #0

08001690 <L_sub_loop1>:
 8001690:	42bb      	cmp	r3, r7
 8001692:	d301      	bcc.n	8001698 <L_dont_sub1>
 8001694:	1bdb      	subs	r3, r3, r7
 8001696:	4329      	orrs	r1, r5

08001698 <L_dont_sub1>:
 8001698:	087f      	lsrs	r7, r7, #1
 800169a:	086d      	lsrs	r5, r5, #1
 800169c:	d1f8      	bne.n	8001690 <L_sub_loop1>
 800169e:	2501      	movs	r5, #1
 80016a0:	07ed      	lsls	r5, r5, #31
 80016a2:	2600      	movs	r6, #0
 80016a4:	e01b      	b.n	80016de <L_lower_result>

080016a6 <L_divison_by_0>:
 80016a6:	e029      	b.n	80016fc <__aeabi_ldiv0>

080016a8 <L_fallback_32bits>:
 80016a8:	4601      	mov	r1, r0
 80016aa:	fbb0 f0f2 	udiv	r0, r0, r2
 80016ae:	fb00 f302 	mul.w	r3, r0, r2
 80016b2:	1a9a      	subs	r2, r3, r2
 80016b4:	2100      	movs	r1, #0
 80016b6:	2300      	movs	r3, #0
 80016b8:	4770      	bx	lr

080016ba <L_large_denom>:
 80016ba:	b5f0      	push	{r4, r5, r6, r7, lr}
 80016bc:	461f      	mov	r7, r3
 80016be:	4616      	mov	r6, r2
 80016c0:	460b      	mov	r3, r1
 80016c2:	4602      	mov	r2, r0
 80016c4:	2100      	movs	r1, #0
 80016c6:	2501      	movs	r5, #1
 80016c8:	3700      	adds	r7, #0
 80016ca:	d408      	bmi.n	80016de <L_lower_result>
 80016cc:	42bb      	cmp	r3, r7
 80016ce:	d306      	bcc.n	80016de <L_lower_result>

080016d0 <L_denom_shift_loop4>:
 80016d0:	006d      	lsls	r5, r5, #1
 80016d2:	007f      	lsls	r7, r7, #1
 80016d4:	0076      	lsls	r6, r6, #1
 80016d6:	414f      	adcs	r7, r1
 80016d8:	d401      	bmi.n	80016de <L_lower_result>
 80016da:	42bb      	cmp	r3, r7
 80016dc:	d2f8      	bcs.n	80016d0 <L_denom_shift_loop4>

080016de <L_lower_result>:
 80016de:	2000      	movs	r0, #0

080016e0 <L_sub_loop4>:
 80016e0:	461c      	mov	r4, r3
 80016e2:	42b2      	cmp	r2, r6
 80016e4:	41bc      	sbcs	r4, r7
 80016e6:	d302      	bcc.n	80016ee <L_dont_sub4>
 80016e8:	1b92      	subs	r2, r2, r6
 80016ea:	41bb      	sbcs	r3, r7
 80016ec:	4328      	orrs	r0, r5

080016ee <L_dont_sub4>:
 80016ee:	07fc      	lsls	r4, r7, #31
 80016f0:	0876      	lsrs	r6, r6, #1
 80016f2:	087f      	lsrs	r7, r7, #1
 80016f4:	4326      	orrs	r6, r4
 80016f6:	086d      	lsrs	r5, r5, #1
 80016f8:	d1f2      	bne.n	80016e0 <L_sub_loop4>
 80016fa:	bdf0      	pop	{r4, r5, r6, r7, pc}

080016fc <__aeabi_ldiv0>:
 80016fc:	2005      	movs	r0, #5
 80016fe:	f7ff fdf3 	bl	80012e8 <kernel_panic>

08001702 <__aeabi_ldivmod>:
 8001702:	2900      	cmp	r1, #0
 8001704:	da1c      	bge.n	8001740 <L_num_pos>
 8001706:	b510      	push	{r4, lr}
 8001708:	2400      	movs	r4, #0
 800170a:	4240      	negs	r0, r0
 800170c:	418c      	sbcs	r4, r1
 800170e:	4621      	mov	r1, r4
 8001710:	2b00      	cmp	r3, #0
 8001712:	da0a      	bge.n	800172a <L_neg_both>
 8001714:	2400      	movs	r4, #0
 8001716:	4252      	negs	r2, r2
 8001718:	419c      	sbcs	r4, r3
 800171a:	4623      	mov	r3, r4
 800171c:	f7ff ffa4 	bl	8001668 <__aeabi_uldivmod>
 8001720:	2400      	movs	r4, #0
 8001722:	4252      	negs	r2, r2
 8001724:	419c      	sbcs	r4, r3
 8001726:	4623      	mov	r3, r4
 8001728:	bd10      	pop	{r4, pc}

0800172a <L_neg_both>:
 800172a:	f7ff ff9d 	bl	8001668 <__aeabi_uldivmod>
 800172e:	2400      	movs	r4, #0
 8001730:	4240      	negs	r0, r0
 8001732:	418c      	sbcs	r4, r1
 8001734:	4621      	mov	r1, r4
 8001736:	2400      	movs	r4, #0
 8001738:	4252      	negs	r2, r2
 800173a:	419c      	sbcs	r4, r3
 800173c:	4623      	mov	r3, r4
 800173e:	bd10      	pop	{r4, pc}

08001740 <L_num_pos>:
 8001740:	2b00      	cmp	r3, #0
 8001742:	f6bf af91 	bge.w	8001668 <__aeabi_uldivmod>
 8001746:	b510      	push	{r4, lr}
 8001748:	2400      	movs	r4, #0
 800174a:	4252      	negs	r2, r2
 800174c:	419c      	sbcs	r4, r3
 800174e:	4623      	mov	r3, r4
 8001750:	f7ff ff8a 	bl	8001668 <__aeabi_uldivmod>
 8001754:	2400      	movs	r4, #0
 8001756:	4240      	negs	r0, r0
 8001758:	418c      	sbcs	r4, r1
 800175a:	4621      	mov	r1, r4
 800175c:	bd10      	pop	{r4, pc}
	...

Disassembly of section .rodata:

08001760 <_start_rodata>:
 8001760:	00040002 	andeq	r0, r4, r2
 8001764:	00100008 	andseq	r0, r0, r8
 8001768:	00800040 	addeq	r0, r0, r0, asr #32
 800176c:	02000100 	andeq	r0, r0, #0, 2

08001770 <bsp_ppre_factor_lookup>:
 8001770:	10080402 	andne	r0, r8, r2, lsl #8
 8001774:	6e6f7257 	mcrvs	2, 3, r7, cr15, cr7, {2}
 8001778:	50472067 	subpl	r2, r7, r7, rrx
 800177c:	69204f49 	stmdbvs	r0!, {r0, r3, r6, r8, r9, sl, fp, lr}
 8001780:	746e6564 	strbtvc	r6, [lr], #-1380	; 0xfffffa9c
 8001784:	72656669 	rsbvc	r6, r5, #110100480	; 0x6900000
 8001788:	00000000 	andeq	r0, r0, r0
 800178c:	4f495047 	svcmi	0x00495047
 8001790:	6f6c6320 	svcvs	0x006c6320
 8001794:	65206b63 	strvs	r6, [r0, #-2915]!	; 0xfffff49d
 8001798:	6c62616e 	stfvse	f6, [r2], #-440	; 0xfffffe48
 800179c:	00006465 	andeq	r6, r0, r5, ror #8
 80017a0:	6e6f7257 	mcrvs	2, 3, r7, cr15, cr7, {2}
 80017a4:	53552067 	cmppl	r5, #103	; 0x67
 80017a8:	20545241 	subscs	r5, r4, r1, asr #4
 80017ac:	6e656469 	cdpvs	4, 6, cr6, cr5, cr9, {3}
 80017b0:	65666974 	strbvs	r6, [r6, #-2420]!	; 0xfffff68c
 80017b4:	00000072 	andeq	r0, r0, r2, ror r0
 80017b8:	52415355 	subpl	r5, r1, #1409286145	; 0x54000001
 80017bc:	6c632054 	stclvs	0, cr2, [r3], #-336	; 0xfffffeb0
 80017c0:	206b636f 	rsbcs	r6, fp, pc, ror #6
 80017c4:	62616e65 	rsbvs	r6, r1, #1616	; 0x650
 80017c8:	0064656c 	rsbeq	r6, r4, ip, ror #10
 80017cc:	74737953 	ldrbtvc	r7, [r3], #-2387	; 0xfffff6ad
 80017d0:	63206d65 			; <UNDEFINED> instruction: 0x63206d65
 80017d4:	6b636f6c 	blvs	98dd58c <_end_rodata+0x18dbad0>
 80017d8:	20736920 	rsbscs	r6, r3, r0, lsr #18
 80017dc:	65726c61 	ldrbvs	r6, [r2, #-3169]!	; 0xfffff39f
 80017e0:	20796461 	rsbscs	r6, r9, r1, ror #8
 80017e4:	74696e69 	strbtvc	r6, [r9], #-3689	; 0xfffff197
 80017e8:	696c6169 	stmdbvs	ip!, {r0, r3, r5, r6, r8, sp, lr}^
 80017ec:	0064657a 	rsbeq	r6, r4, sl, ror r5
 80017f0:	74737953 	ldrbtvc	r7, [r3], #-2387	; 0xfffff6ad
 80017f4:	63206d65 			; <UNDEFINED> instruction: 0x63206d65
 80017f8:	6b636f6c 	blvs	98dd5b0 <_end_rodata+0x18dbaf4>
 80017fc:	696e6920 	stmdbvs	lr!, {r5, r8, fp, sp, lr}^
 8001800:	6c616974 			; <UNDEFINED> instruction: 0x6c616974
 8001804:	64657a69 	strbtvs	r7, [r5], #-2665	; 0xfffff597
 8001808:	00000000 	andeq	r0, r0, r0
 800180c:	74737953 	ldrbtvc	r7, [r3], #-2387	; 0xfffff6ad
 8001810:	63206d65 			; <UNDEFINED> instruction: 0x63206d65
 8001814:	6b636f6c 	blvs	98dd5cc <_end_rodata+0x18dbb10>
 8001818:	65726620 	ldrbvs	r6, [r2, #-1568]!	; 0xfffff9e0
 800181c:	6e657571 	mcrvs	5, 3, r7, cr5, cr1, {3}
 8001820:	72207963 	eorvc	r7, r0, #1622016	; 0x18c000
 8001824:	65757165 	ldrbvs	r7, [r5, #-357]!	; 0xfffffe9b
 8001828:	64657473 	strbtvs	r7, [r5], #-1139	; 0xfffffb8d
 800182c:	00000000 	andeq	r0, r0, r0
 8001830:	74737953 	ldrbtvc	r7, [r3], #-2387	; 0xfffff6ad
 8001834:	63206d65 			; <UNDEFINED> instruction: 0x63206d65
 8001838:	6b636f6c 	blvs	98dd5f0 <_end_rodata+0x18dbb34>
 800183c:	20736920 	rsbscs	r6, r3, r0, lsr #18
 8001840:	20746f6e 	rsbscs	r6, r4, lr, ror #30
 8001844:	69617661 	stmdbvs	r1!, {r0, r5, r6, r9, sl, ip, sp, lr}^
 8001848:	6c62616c 	stfvse	f6, [r2], #-432	; 0xfffffe50
 800184c:	00000065 	andeq	r0, r0, r5, rrx
 8001850:	73616c46 	cmnvc	r1, #17920	; 0x4600
 8001854:	616c2068 	cmnvs	ip, r8, rrx
 8001858:	6e65746e 	cdpvs	4, 6, cr7, cr5, cr14, {3}
 800185c:	63207963 			; <UNDEFINED> instruction: 0x63207963
 8001860:	676e6168 	strbvs	r6, [lr, -r8, ror #2]!
 8001864:	00006465 	andeq	r6, r0, r5, ror #8
 8001868:	4f495047 	svcmi	0x00495047
 800186c:	74657320 	strbtvc	r7, [r5], #-800	; 0xfffffce0
 8001870:	676e6974 			; <UNDEFINED> instruction: 0x676e6974
 8001874:	74732073 	ldrbtvc	r2, [r3], #-115	; 0xffffff8d
 8001878:	74637572 	strbtvc	r7, [r3], #-1394	; 0xfffffa8e
 800187c:	20657275 	rsbcs	r7, r5, r5, ror r2
 8001880:	4e207369 	cdpmi	3, 2, cr7, cr0, cr9, {3}
 8001884:	004c4c55 	subeq	r4, ip, r5, asr ip
 8001888:	61766e49 	cmnvs	r6, r9, asr #28
 800188c:	2064696c 	rsbcs	r6, r4, ip, ror #18
 8001890:	4f495047 	svcmi	0x00495047
 8001894:	646f6d20 	strbtvs	r6, [pc], #-3360	; 800189c <bsp_ppre_factor_lookup+0x12c>
 8001898:	79742f65 	ldmdbvc	r4!, {r0, r2, r5, r6, r8, r9, sl, fp, sp}^
 800189c:	00006570 	andeq	r6, r0, r0, ror r5
 80018a0:	61766e49 	cmnvs	r6, r9, asr #28
 80018a4:	2064696c 	rsbcs	r6, r4, ip, ror #18
 80018a8:	4f495047 	svcmi	0x00495047
 80018ac:	65707320 	ldrbvs	r7, [r0, #-800]!	; 0xfffffce0
 80018b0:	00006465 	andeq	r6, r0, r5, ror #8
 80018b4:	61766e49 	cmnvs	r6, r9, asr #28
 80018b8:	2064696c 	rsbcs	r6, r4, ip, ror #18
 80018bc:	4f495047 	svcmi	0x00495047
 80018c0:	746c6120 	strbtvc	r6, [ip], #-288	; 0xfffffee0
 80018c4:	616e7265 	cmnvs	lr, r5, ror #4
 80018c8:	65766974 	ldrbvs	r6, [r6, #-2420]!	; 0xfffff68c
 80018cc:	6e756620 	cdpvs	6, 7, cr6, cr5, cr0, {1}
 80018d0:	6f697463 	svcvs	0x00697463
 80018d4:	0000006e 	andeq	r0, r0, lr, rrx
 80018d8:	4f495047 	svcmi	0x00495047
 80018dc:	696e6920 	stmdbvs	lr!, {r5, r8, fp, sp, lr}^
 80018e0:	6c616974 			; <UNDEFINED> instruction: 0x6c616974
 80018e4:	64657a69 	strbtvs	r7, [r5], #-2665	; 0xfffff597
 80018e8:	00000000 	andeq	r0, r0, r0
 80018ec:	65776f50 	ldrbvs	r6, [r7, #-3920]!	; 0xfffff0b0
 80018f0:	63732072 	cmnvs	r3, #114	; 0x72
 80018f4:	6e696c61 	cdpvs	12, 6, cr6, cr9, cr1, {3}
 80018f8:	6f6d2067 	svcvs	0x006d2067
 80018fc:	63206564 			; <UNDEFINED> instruction: 0x63206564
 8001900:	676e6168 	strbvs	r6, [lr, -r8, ror #2]!
 8001904:	00006465 	andeq	r6, r0, r5, ror #8
 8001908:	69726553 	ldmdbvs	r2!, {r0, r1, r4, r6, r8, sl, sp, lr}^
 800190c:	61206c61 			; <UNDEFINED> instruction: 0x61206c61
 8001910:	6165726c 	cmnvs	r5, ip, ror #4
 8001914:	69207964 	stmdbvs	r0!, {r2, r5, r6, r8, fp, ip, sp, lr}
 8001918:	6974696e 	ldmdbvs	r4!, {r1, r2, r3, r5, r6, r8, fp, sp, lr}^
 800191c:	7a696c61 	bvc	9a5caa8 <_end_rodata+0x1a5afec>
 8001920:	00006465 	andeq	r6, r0, r5, ror #8
 8001924:	69726553 	ldmdbvs	r2!, {r0, r1, r4, r6, r8, sl, sp, lr}^
 8001928:	73206c61 			; <UNDEFINED> instruction: 0x73206c61
 800192c:	69747465 	ldmdbvs	r4!, {r0, r2, r5, r6, sl, ip, sp, lr}^
 8001930:	2073676e 	rsbscs	r6, r3, lr, ror #14
 8001934:	75727473 	ldrbvc	r7, [r2, #-1139]!	; 0xfffffb8d
 8001938:	72757463 	rsbsvc	r7, r5, #1660944384	; 0x63000000
 800193c:	73692065 	cmnvc	r9, #101	; 0x65
 8001940:	4c554e20 	mrrcmi	14, 2, r4, r5, cr0
 8001944:	0000004c 	andeq	r0, r0, ip, asr #32
 8001948:	61766e49 	cmnvs	r6, r9, asr #28
 800194c:	2064696c 	rsbcs	r6, r4, ip, ror #18
 8001950:	52415355 	subpl	r5, r1, #1409286145	; 0x54000001
 8001954:	61622054 	qdsubvs	r2, r4, r2
 8001958:	61726475 	cmnvs	r2, r5, ror r4
 800195c:	00006574 	andeq	r6, r0, r4, ror r5
 8001960:	61766e49 	cmnvs	r6, r9, asr #28
 8001964:	2064696c 	rsbcs	r6, r4, ip, ror #18
 8001968:	52415355 	subpl	r5, r1, #1409286145	; 0x54000001
 800196c:	6f772054 	svcvs	0x00772054
 8001970:	6c206472 	cfstrsvs	mvf6, [r0], #-456	; 0xfffffe38
 8001974:	74676e65 	strbtvc	r6, [r7], #-3685	; 0xfffff19b
 8001978:	00000068 	andeq	r0, r0, r8, rrx
 800197c:	61766e49 	cmnvs	r6, r9, asr #28
 8001980:	2064696c 	rsbcs	r6, r4, ip, ror #18
 8001984:	52415355 	subpl	r5, r1, #1409286145	; 0x54000001
 8001988:	74732054 	ldrbtvc	r2, [r3], #-84	; 0xffffffac
 800198c:	6220706f 	eorvs	r7, r0, #111	; 0x6f
 8001990:	00737469 	rsbseq	r7, r3, r9, ror #8
 8001994:	61766e49 	cmnvs	r6, r9, asr #28
 8001998:	2064696c 	rsbcs	r6, r4, ip, ror #18
 800199c:	52415355 	subpl	r5, r1, #1409286145	; 0x54000001
 80019a0:	61702054 	cmnvs	r0, r4, asr r0
 80019a4:	74697472 	strbtvc	r7, [r9], #-1138	; 0xfffffb8e
 80019a8:	6f6d2079 	svcvs	0x006d2079
 80019ac:	00006564 	andeq	r6, r0, r4, ror #10
 80019b0:	61766e49 	cmnvs	r6, r9, asr #28
 80019b4:	2064696c 	rsbcs	r6, r4, ip, ror #18
 80019b8:	52415355 	subpl	r5, r1, #1409286145	; 0x54000001
 80019bc:	6f632054 	svcvs	0x00632054
 80019c0:	6f72746e 	svcvs	0x0072746e
 80019c4:	6c66206c 	stclvs	0, cr2, [r6], #-432	; 0xfffffe50
 80019c8:	0000776f 	andeq	r7, r0, pc, ror #14
 80019cc:	52415355 	subpl	r5, r1, #1409286145	; 0x54000001
 80019d0:	6e692054 	mcrvs	0, 3, r2, cr9, cr4, {2}
 80019d4:	61697469 	cmnvs	r9, r9, ror #8
 80019d8:	657a696c 	ldrbvs	r6, [sl, #-2412]!	; 0xfffff694
 80019dc:	00000064 	andeq	r0, r0, r4, rrx
 80019e0:	75716552 	ldrbvc	r6, [r1, #-1362]!	; 0xfffffaae
 80019e4:	65747365 	ldrbvs	r7, [r4, #-869]!	; 0xfffffc9b
 80019e8:	50432064 	subpl	r2, r3, r4, rrx
 80019ec:	69742055 	ldmdbvs	r4!, {r0, r2, r4, r6, sp}^
 80019f0:	2072656d 	rsbscs	r6, r2, sp, ror #10
 80019f4:	71657266 	cmnvc	r5, r6, ror #4
 80019f8:	636e6575 	cmnvs	lr, #490733568	; 0x1d400000
 80019fc:	756f2079 	strbvc	r2, [pc, #-121]!	; 800198b <bsp_ppre_factor_lookup+0x21b>
 8001a00:	666f2074 			; <UNDEFINED> instruction: 0x666f2074
 8001a04:	756f6220 	strbvc	r6, [pc, #-544]!	; 80017ec <bsp_ppre_factor_lookup+0x7c>
 8001a08:	0000646e 	andeq	r6, r0, lr, ror #8
 8001a0c:	69726553 	ldmdbvs	r2!, {r0, r1, r4, r6, r8, sl, sp, lr}^
 8001a10:	69206c61 	stmdbvs	r0!, {r0, r5, r6, sl, fp, sp, lr}
 8001a14:	6974696e 	ldmdbvs	r4!, {r1, r2, r3, r5, r6, r8, fp, sp, lr}^
 8001a18:	7a696c61 	bvc	9a5cba4 <_end_rodata+0x1a5b0e8>
 8001a1c:	6f697461 	svcvs	0x00697461
 8001a20:	7265206e 	rsbvc	r2, r5, #110	; 0x6e
 8001a24:	00726f72 	rsbseq	r6, r2, r2, ror pc
 8001a28:	69726553 	ldmdbvs	r2!, {r0, r1, r4, r6, r8, sl, sp, lr}^
 8001a2c:	69206c61 	stmdbvs	r0!, {r0, r5, r6, sl, fp, sp, lr}
 8001a30:	6974696e 	ldmdbvs	r4!, {r1, r2, r3, r5, r6, r8, fp, sp, lr}^
 8001a34:	7a696c61 	bvc	9a5cbc0 <_end_rodata+0x1a5b104>
 8001a38:	00006465 	andeq	r6, r0, r5, ror #8
 8001a3c:	0001c200 	andeq	ip, r1, r0, lsl #4
 8001a40:	00000108 	andeq	r0, r0, r8, lsl #2
 8001a44:	20555043 	subscs	r5, r5, r3, asr #32
 8001a48:	656d6974 	strbvs	r6, [sp, #-2420]!	; 0xfffff68c
 8001a4c:	6e692072 	mcrvs	0, 3, r2, cr9, cr2, {3}
 8001a50:	61697469 	cmnvs	r9, r9, ror #8
 8001a54:	617a696c 	cmnvs	sl, ip, ror #18
 8001a58:	6e6f6974 			; <UNDEFINED> instruction: 0x6e6f6974
 8001a5c:	72726520 	rsbsvc	r6, r2, #32, 10	; 0x8000000
 8001a60:	0000726f 	andeq	r7, r0, pc, ror #4
 8001a64:	6e72654b 	cdpvs	5, 7, cr6, cr2, cr11, {2}
 8001a68:	69206c65 	stmdbvs	r0!, {r0, r2, r5, r6, sl, fp, sp, lr}
 8001a6c:	6974696e 	ldmdbvs	r4!, {r1, r2, r3, r5, r6, r8, fp, sp, lr}^
 8001a70:	7a696c61 	bvc	9a5cbfc <_end_rodata+0x1a5b140>
 8001a74:	00006465 	andeq	r6, r0, r5, ror #8

08001a78 <hex_table>:
 8001a78:	33323130 	teqcc	r2, #48, 2
 8001a7c:	37363534 			; <UNDEFINED> instruction: 0x37363534
 8001a80:	42413938 	submi	r3, r1, #56, 18	; 0xe0000
 8001a84:	46454443 	strbmi	r4, [r5], -r3, asr #8
 8001a88:	44207c20 	strtmi	r7, [r0], #-3104	; 0xfffff3e0
 8001a8c:	3a617461 	bcc	985ec18 <_end_rodata+0x185d15c>
 8001a90:	00000020 	andeq	r0, r0, r0, lsr #32
 8001a94:	30207c20 	eorcc	r7, r0, r0, lsr #24
 8001a98:	00000078 	andeq	r0, r0, r8, ror r0
 8001a9c:	00000a0d 	andeq	r0, r0, sp, lsl #20
 8001aa0:	464e495b 			; <UNDEFINED> instruction: 0x464e495b
 8001aa4:	00205d4f 	eoreq	r5, r0, pc, asr #26
 8001aa8:	5241575b 	subpl	r5, r1, #23855104	; 0x16c0000
 8001aac:	00205d4e 	eoreq	r5, r0, lr, asr #26
 8001ab0:	5252455b 	subspl	r4, r2, #381681664	; 0x16c00000
 8001ab4:	205d524f 	subscs	r5, sp, pc, asr #4
 8001ab8:	00000000 	andeq	r0, r0, r0

Disassembly of section .bss:

20000000 <_start_bss>:
20000000:	00000000 	andeq	r0, r0, r0

20000004 <bsp_clk_init>:
	...

20000005 <usart_init_state>:
20000005:	00000000 	andeq	r0, r0, r0

20000008 <tick_freq>:
20000008:	00000000 	andeq	r0, r0, r0

2000000c <kernel_logger_init_state>:
2000000c:	00000000 	andeq	r0, r0, r0

Disassembly of section .debug_info:

00000000 <.debug_info>:
       0:	00000042 	andeq	r0, r0, r2, asr #32
       4:	00000004 	andeq	r0, r0, r4
       8:	01040000 	mrseq	r0, (UNDEF: 4)
       c:	000015ae 	andeq	r1, r0, lr, lsr #11
      10:	0016690c 	andseq	r6, r6, ip, lsl #18
      14:	001c8d00 	andseq	r8, ip, r0, lsl #26
      18:	00021000 	andeq	r1, r2, r0
      1c:	00001008 	andeq	r1, r0, r8
	...
      28:	157b0200 	ldrbne	r0, [fp, #-512]!	; 0xfffffe00
      2c:	01010000 	mrseq	r0, (UNDEF: 1)
      30:	0000003e 	andeq	r0, r0, lr, lsr r0
      34:	08000210 	stmdaeq	r0, {r4, r9}
      38:	00000010 	andeq	r0, r0, r0, lsl r0
      3c:	04039c01 	streq	r9, [r3], #-3073	; 0xfffff3ff
      40:	746e6905 	strbtvc	r6, [lr], #-2309	; 0xfffff6fb
      44:	00780000 	rsbseq	r0, r8, r0
      48:	00020000 	andeq	r0, r2, r0
      4c:	0000003c 	andeq	r0, r0, ip, lsr r0
      50:	003a0104 	eorseq	r0, sl, r4, lsl #2
      54:	02200000 	eoreq	r0, r0, #0
      58:	022a0800 	eoreq	r0, sl, #0, 16
      5c:	72730800 	rsbsvc	r0, r3, #0, 16
      60:	73612f63 	cmnvc	r1, #396	; 0x18c
      64:	70615f6d 	rsbvc	r5, r1, sp, ror #30
      68:	00532e69 	subseq	r2, r3, r9, ror #28
      6c:	746e6d2f 	strbtvc	r6, [lr], #-3375	; 0xfffff2d1
      70:	552f632f 	strpl	r6, [pc, #-815]!	; fffffd49 <FPU_MVFR1_ADDR+0x1fff0e05>
      74:	73726573 	cmnvc	r2, #482344960	; 0x1cc00000
      78:	656c412f 	strbvs	r4, [ip, #-303]!	; 0xfffffed1
      7c:	442f7978 	strtmi	r7, [pc], #-2424	; 84 <FPU_FPCCR_MONRDY-0x7c>
      80:	6d75636f 	ldclvs	3, cr6, [r5, #-444]!	; 0xfffffe44
      84:	73746e65 	cmnvc	r4, #1616	; 0x650
      88:	54554c2f 	ldrbpl	r4, [r5], #-3119	; 0xfffff3d1
      8c:	654b2f6b 	strbvs	r2, [fp, #-3947]	; 0xfffff095
      90:	6c656e72 	stclvs	14, cr6, [r5], #-456	; 0xfffffe38
      94:	756f532f 	strbvc	r5, [pc, #-815]!	; fffffd6d <FPU_MVFR1_ADDR+0x1fff0e29>
      98:	73656372 	cmnvc	r5, #-939524095	; 0xc8000001
      9c:	6372612f 	cmnvs	r2, #-1073741813	; 0xc000000b
      a0:	70632f68 	rsbvc	r2, r3, r8, ror #30
      a4:	72612f75 	rsbvc	r2, r1, #468	; 0x1d4
      a8:	6f632f6d 	svcvs	0x00632f6d
      ac:	78657472 	stmdavc	r5!, {r1, r4, r5, r6, sl, ip, sp, lr}^
      b0:	00346d5f 	eorseq	r6, r4, pc, asr sp
      b4:	20554e47 	subscs	r4, r5, r7, asr #28
      b8:	32205341 	eorcc	r5, r0, #67108865	; 0x4000001
      bc:	0037322e 	eorseq	r3, r7, lr, lsr #4
      c0:	00758001 	rsbseq	r8, r5, r1
      c4:	00020000 	andeq	r0, r2, r0
      c8:	00000050 	andeq	r0, r0, r0, asr r0
      cc:	00790104 	rsbseq	r0, r9, r4, lsl #2
      d0:	01900000 	orrseq	r0, r0, r0
      d4:	02100800 	andseq	r0, r0, #0, 16
      d8:	72730800 	rsbsvc	r0, r3, #0, 16
      dc:	6f622f63 	svcvs	0x00622f63
      e0:	532e746f 			; <UNDEFINED> instruction: 0x532e746f
      e4:	6e6d2f00 	cdpvs	15, 6, cr2, cr13, cr0, {0}
      e8:	2f632f74 	svccs	0x00632f74
      ec:	72657355 	rsbvc	r7, r5, #1409286145	; 0x54000001
      f0:	6c412f73 	mcrrvs	15, 7, r2, r1, cr3
      f4:	2f797865 	svccs	0x00797865
      f8:	75636f44 	strbvc	r6, [r3, #-3908]!	; 0xfffff0bc
      fc:	746e656d 	strbtvc	r6, [lr], #-1389	; 0xfffffa93
     100:	554c2f73 	strbpl	r2, [ip, #-3955]	; 0xfffff08d
     104:	4b2f6b54 	blmi	bdae5c <FPU_CPACR_CP10+0x8dae5c>
     108:	656e7265 	strbvs	r7, [lr, #-613]!	; 0xfffffd9b
     10c:	6f532f6c 	svcvs	0x00532f6c
     110:	65637275 	strbvs	r7, [r3, #-629]!	; 0xfffffd8b
     114:	72612f73 	rsbvc	r2, r1, #460	; 0x1cc
     118:	632f6863 			; <UNDEFINED> instruction: 0x632f6863
     11c:	612f7570 			; <UNDEFINED> instruction: 0x612f7570
     120:	632f6d72 			; <UNDEFINED> instruction: 0x632f6d72
     124:	6574726f 	ldrbvs	r7, [r4, #-623]!	; 0xfffffd91
     128:	346d5f78 	strbtcc	r5, [sp], #-3960	; 0xfffff088
     12c:	554e4700 	strbpl	r4, [lr, #-1792]	; 0xfffff900
     130:	20534120 	subscs	r4, r3, r0, lsr #2
     134:	37322e32 			; <UNDEFINED> instruction: 0x37322e32
     138:	f4800100 	vst2.8	{d0[0],d1[0]}, [r0], r0
     13c:	04000003 	streq	r0, [r0], #-3
     140:	00006400 	andeq	r6, r0, r0, lsl #8
     144:	ae010400 	cfcpysge	mvf0, mvf1
     148:	0c000015 	stceq	0, cr0, [r0], {21}
     14c:	000043f5 	strdeq	r4, [r0], -r5
     150:	00002e3f 	andeq	r2, r0, pc, lsr lr
     154:	0800022c 	stmdaeq	r0, {r2, r3, r5, r9}
     158:	000004e8 	andeq	r0, r0, r8, ror #9
     15c:	000000df 	ldrdeq	r0, [r0], -pc	; <UNPREDICTABLE>
     160:	000008bb 			; <UNDEFINED> instruction: 0x000008bb
     164:	0039e902 	eorseq	lr, r9, r2, lsl #18
     168:	00640100 	rsbeq	r0, r4, r0, lsl #2
     16c:	1e020000 	cdpne	0, 0, cr0, cr2, cr0, {0}
     170:	00000064 	andeq	r0, r0, r4, rrx
     174:	00342c03 	eorseq	r2, r4, r3, lsl #24
     178:	5e030000 	cdppl	0, 0, cr0, cr3, cr0, {0}
     17c:	01000029 	tsteq	r0, r9, lsr #32
     180:	002c4603 	eoreq	r4, ip, r3, lsl #12
     184:	c8030200 	stmdagt	r3, {r9}
     188:	03000041 	movweq	r0, #65	; 0x41
     18c:	00442003 	subeq	r2, r4, r3
     190:	8d030400 	cfstrshi	mvf0, [r3, #-0]
     194:	05000026 	streq	r0, [r0, #-38]	; 0xffffffda
     198:	003a9f03 	eorseq	r9, sl, r3, lsl #30
     19c:	04000600 	streq	r0, [r0], #-1536	; 0xfffffa00
     1a0:	05c10801 	strbeq	r0, [r1, #2049]	; 0x801
     1a4:	42050000 	andmi	r0, r5, #0
     1a8:	02000027 	andeq	r0, r0, #39	; 0x27
     1ac:	00002933 	andeq	r2, r0, r3, lsr r9
     1b0:	325f0200 	subscc	r0, pc, #0, 4
     1b4:	64010000 	strvs	r0, [r1], #-0
     1b8:	03000000 	movweq	r0, #0
     1bc:	000099a7 	andeq	r9, r0, r7, lsr #19
     1c0:	3b610300 	blcc	1840dc8 <FPU_ENABLE_CPACR_VALUE+0x940dc8>
     1c4:	03000000 	movweq	r0, #0
     1c8:	00003b6c 	andeq	r3, r0, ip, ror #22
     1cc:	3b930301 	blcc	fe4c0dd8 <FPU_MVFR1_ADDR+0x1e4b1e94>
     1d0:	00030000 	andeq	r0, r3, r0
     1d4:	002fb205 	eoreq	fp, pc, r5, lsl #4
     1d8:	76b20300 	ldrtvc	r0, [r2], r0, lsl #6
     1dc:	06000000 	streq	r0, [r0], -r0
     1e0:	00000099 	muleq	r0, r9, r0
     1e4:	bc060104 	stflts	f0, [r6], {4}
     1e8:	05000007 	streq	r0, [r0, #-7]
     1ec:	000033c2 	andeq	r3, r0, r2, asr #7
     1f0:	00642104 	rsbeq	r2, r4, r4, lsl #2
     1f4:	b0060000 	andlt	r0, r6, r0
     1f8:	04000000 	streq	r0, [r0], #-0
     1fc:	09bd0502 	ldmibeq	sp!, {r1, r8, sl}
     200:	19050000 	stmdbne	r5, {}	; <UNPREDICTABLE>
     204:	04000039 	streq	r0, [r0], #-57	; 0xffffffc7
     208:	0000d729 	andeq	sp, r0, r9, lsr #14
     20c:	00c70600 	sbceq	r0, r7, r0, lsl #12
     210:	02040000 	andeq	r0, r4, #0
     214:	000e8c07 	andeq	r8, lr, r7, lsl #24
     218:	05040700 	streq	r0, [r4, #-1792]	; 0xfffff900
     21c:	00746e69 	rsbseq	r6, r4, r9, ror #28
     220:	002b9205 	eoreq	r9, fp, r5, lsl #4
     224:	f0310400 			; <UNDEFINED> instruction: 0xf0310400
     228:	04000000 	streq	r0, [r0], #-0
     22c:	155e0704 	ldrbne	r0, [lr, #-1796]	; 0xfffff8fc
     230:	08040000 	stmdaeq	r4, {}	; <UNPREDICTABLE>
     234:	00009005 	andeq	r9, r0, r5
     238:	07080400 	streq	r0, [r8, -r0, lsl #8]
     23c:	0000022d 	andeq	r0, r0, sp, lsr #4
     240:	0032aa02 	eorseq	sl, r2, r2, lsl #20
     244:	00640100 	rsbeq	r0, r4, r0, lsl #2
     248:	a2050000 	andge	r0, r5, #0
     24c:	0000013a 	andeq	r0, r0, sl, lsr r1
     250:	002f2003 	eoreq	r2, pc, r3
     254:	a5030000 	strge	r0, [r3, #-0]
     258:	01000027 	tsteq	r0, r7, lsr #32
     25c:	002f2a03 	eoreq	r2, pc, r3, lsl #20
     260:	34030200 	strcc	r0, [r3], #-512	; 0xfffffe00
     264:	0300002f 	movweq	r0, #47	; 0x2f
     268:	002f3e03 	eoreq	r3, pc, r3, lsl #28
     26c:	48030400 	stmdami	r3, {sl}
     270:	0500002f 	streq	r0, [r0, #-47]	; 0xffffffd1
     274:	44640500 	strbtmi	r0, [r4], #-1280	; 0xfffffb00
     278:	b3050000 	movwlt	r0, #20480	; 0x5000
     27c:	00000105 	andeq	r0, r0, r5, lsl #2
     280:	00013a06 	andeq	r3, r1, r6, lsl #20
     284:	39080200 	stmdbcc	r8, {r9}
     288:	64010000 	strvs	r0, [r1], #-0
     28c:	06000000 	streq	r0, [r0], -r0
     290:	000185bc 			; <UNDEFINED> instruction: 0x000185bc
     294:	29720300 	ldmdbcs	r2!, {r8, r9}^
     298:	03000000 	movweq	r0, #0
     29c:	000033b0 			; <UNDEFINED> instruction: 0x000033b0
     2a0:	2e880301 	cdpcs	3, 8, cr0, cr8, cr1, {0}
     2a4:	03020000 	movweq	r0, #8192	; 0x2000
     2a8:	0000331e 	andeq	r3, r0, lr, lsl r3
     2ac:	33310303 	teqcc	r1, #201326592	; 0xc000000
     2b0:	03040000 	movweq	r0, #16384	; 0x4000
     2b4:	000036c9 	andeq	r3, r0, r9, asr #13
     2b8:	29b10305 	ldmibcs	r1!, {r0, r2, r8, r9}
     2bc:	00060000 	andeq	r0, r6, r0
     2c0:	00338905 	eorseq	r8, r3, r5, lsl #18
     2c4:	4acf0600 	bmi	ff3c1acc <FPU_MVFR1_ADDR+0x1f3b2b88>
     2c8:	06000001 	streq	r0, [r0], -r1
     2cc:	00000185 	andeq	r0, r0, r5, lsl #3
     2d0:	0027af02 	eoreq	sl, r7, r2, lsl #30
     2d4:	00640100 	rsbeq	r0, r4, r0, lsl #2
     2d8:	2d070000 	stccs	0, cr0, [r7, #-0]
     2dc:	00000206 	andeq	r0, r0, r6, lsl #4
     2e0:	002cbe03 	eoreq	fp, ip, r3, lsl #28
     2e4:	15030000 	strne	r0, [r3, #-0]
     2e8:	01000037 	tsteq	r0, r7, lsr r0
     2ec:	00374003 	eorseq	r4, r7, r3
     2f0:	51030200 	mrspl	r0, R11_usr
     2f4:	03000042 	movweq	r0, #66	; 0x42
     2f8:	002cd103 	eoreq	sp, ip, r3, lsl #2
     2fc:	e4030400 	str	r0, [r3], #-1024	; 0xfffffc00
     300:	0500002c 	streq	r0, [r0, #-44]	; 0xffffffd4
     304:	002cf703 	eoreq	pc, ip, r3, lsl #14
     308:	0a030600 	beq	c1b10 <SCB_VECTKEYSTAT_INV_MASK+0xb1b11>
     30c:	0700002d 	streq	r0, [r0, -sp, lsr #32]
     310:	0037ec03 	eorseq	lr, r7, r3, lsl #24
     314:	1d030800 	stcne	8, cr0, [r3, #-0]
     318:	0900002d 	stmdbeq	r0, {r0, r2, r3, r5}
     31c:	003d9803 	eorseq	r9, sp, r3, lsl #16
     320:	ac031000 	stcge	0, cr1, [r3], {-0}
     324:	1100003d 	tstne	r0, sp, lsr r0
     328:	003dc003 	eorseq	ip, sp, r3
     32c:	d4031200 	strle	r1, [r3], #-512	; 0xfffffe00
     330:	1300003d 	movwne	r0, #61	; 0x3d
     334:	003de803 	eorseq	lr, sp, r3, lsl #16
     338:	fc031400 	stc2	4, cr1, [r3], {-0}
     33c:	1500003d 	strne	r0, [r0, #-61]	; 0xffffffc3
     340:	2b840200 	blcs	fe100b48 <FPU_MVFR1_ADDR+0x1e0f1c04>
     344:	d7020000 	strle	r0, [r2, -r0]
     348:	08000000 	stmdaeq	r0, {}	; <UNPREDICTABLE>
     34c:	00022526 	andeq	r2, r2, r6, lsr #10
     350:	43b00800 	movsmi	r0, #0, 16
     354:	80000000 	andhi	r0, r0, r0
     358:	0032ba08 	eorseq	fp, r2, r8, lsl #20
     35c:	00400000 	subeq	r0, r0, r0
     360:	c3080104 	movwgt	r0, #33028	; 0x8104
     364:	09000007 	stmdbeq	r0, {r0, r1, r2}
     368:	00003618 	andeq	r3, r0, r8, lsl r6
     36c:	00b01d01 	adcseq	r1, r0, r1, lsl #26
     370:	03050000 	movweq	r0, #20480	; 0x5000
     374:	20000004 	andcs	r0, r0, r4
     378:	0000d20a 	andeq	sp, r0, sl, lsl #4
     37c:	00024d00 	andeq	r4, r2, r0, lsl #26
     380:	02520b00 	subseq	r0, r2, #0, 22
     384:	00070000 	andeq	r0, r7, r0
     388:	00023d06 	andeq	r3, r2, r6, lsl #26
     38c:	07040400 	streq	r0, [r4, -r0, lsl #8]
     390:	00003d7e 	andeq	r3, r0, lr, ror sp
     394:	002b3109 	eoreq	r3, fp, r9, lsl #2
     398:	4d200100 	stfmis	f0, [r0, #-0]
     39c:	05000002 	streq	r0, [r0, #-2]
     3a0:	00176003 	andseq	r6, r7, r3
     3a4:	00bb0a08 	adcseq	r0, fp, r8, lsl #20
     3a8:	027a0000 	rsbseq	r0, sl, #0
     3ac:	520b0000 	andpl	r0, fp, #0
     3b0:	03000002 	movweq	r0, #2
     3b4:	026a0600 	rsbeq	r0, sl, #0, 12
     3b8:	3b090000 	blcc	2403c0 <SCB_VECTKEYSTAT_INV_MASK+0x2303c1>
     3bc:	01000039 	tsteq	r0, r9, lsr r0
     3c0:	00027a23 	andeq	r7, r2, r3, lsr #20
     3c4:	70030500 	andvc	r0, r3, r0, lsl #10
     3c8:	0c080017 	stceq	0, cr0, [r8], {23}
     3cc:	00004143 	andeq	r4, r0, r3, asr #2
     3d0:	6b017b01 	blvs	5efdc <SCB_VECTKEYSTAT_INV_MASK+0x4efdd>
     3d4:	d8000000 	stmdale	r0, {}	; <UNPREDICTABLE>
     3d8:	3c080006 	stccc	0, cr0, [r8], {6}
     3dc:	01000000 	mrseq	r0, (UNDEF: 0)
     3e0:	0002ba9c 	muleq	r2, ip, sl
     3e4:	55470d00 	strbpl	r0, [r7, #-3328]	; 0xfffff300
     3e8:	7b010000 	blvc	403f0 <SCB_VECTKEYSTAT_INV_MASK+0x303f1>
     3ec:	0002ba01 	andeq	fp, r2, r1, lsl #20
     3f0:	74910200 	ldrvc	r0, [r1], #512	; 0x200
     3f4:	e5040e00 	str	r0, [r4, #-3584]	; 0xfffff200
     3f8:	0c000000 	stceq	0, cr0, [r0], {-0}
     3fc:	000037ad 	andeq	r3, r0, sp, lsr #15
     400:	e5012b01 	str	r2, [r1, #-2817]	; 0xfffff4ff
     404:	9c000000 	stcls	0, cr0, [r0], {-0}
     408:	3c080005 	stccc	0, cr0, [r8], {5}
     40c:	01000001 	tsteq	r0, r1
     410:	0003089c 	muleq	r3, ip, r8
     414:	2b7d0d00 	blcs	1f4381c <FPU_ENABLE_CPACR_VALUE+0x104381c>
     418:	2b010000 	blcs	40420 <SCB_VECTKEYSTAT_INV_MASK+0x30421>
     41c:	00019001 	andeq	r9, r1, r1
     420:	6f910200 	svcvs	0x00910200
     424:	003ce80f 	eorseq	lr, ip, pc, lsl #16
     428:	012d0100 			; <UNDEFINED> instruction: 0x012d0100
     42c:	000000e5 	andeq	r0, r0, r5, ror #1
     430:	0f709102 	svceq	0x00709102
     434:	000043a9 	andeq	r4, r0, r9, lsr #7
     438:	e5012e01 	str	r2, [r1, #-3585]	; 0xfffff1ff
     43c:	02000000 	andeq	r0, r0, #0
     440:	10007491 	mulne	r0, r1, r4
     444:	00002c8c 	andeq	r2, r0, ip, lsl #25
     448:	006bee01 	rsbeq	lr, fp, r1, lsl #28
     44c:	04bc0000 	ldrteq	r0, [ip], #0
     450:	00e00800 	rsceq	r0, r0, r0, lsl #16
     454:	9c010000 	stcls	0, cr0, [r1], {-0}
     458:	00000330 	andeq	r0, r0, r0, lsr r3
     45c:	0029e109 	eoreq	lr, r9, r9, lsl #2
     460:	6bf00100 	blvs	ffc00868 <FPU_MVFR1_ADDR+0x1fbf1924>
     464:	02000000 	andeq	r0, r0, #0
     468:	10007791 	mulne	r0, r1, r7
     46c:	00002a36 	andeq	r2, r0, r6, lsr sl
     470:	006bc201 	rsbeq	ip, fp, r1, lsl #4
     474:	04100000 	ldreq	r0, [r0], #-0
     478:	00ac0800 	adceq	r0, ip, r0, lsl #16
     47c:	9c010000 	stcls	0, cr0, [r1], {-0}
     480:	00000366 	andeq	r0, r0, r6, ror #6
     484:	00399211 	eorseq	r9, r9, r1, lsl r2
     488:	a4c20100 	strbge	r0, [r2], #256	; 0x100
     48c:	02000000 	andeq	r0, r0, #0
     490:	e1096f91 			; <UNDEFINED> instruction: 0xe1096f91
     494:	01000029 	tsteq	r0, r9, lsr #32
     498:	00006bc4 	andeq	r6, r0, r4, asr #23
     49c:	77910200 	ldrvc	r0, [r1, r0, lsl #4]
     4a0:	36941000 	ldrcc	r1, [r4], r0
     4a4:	92010000 	andls	r0, r1, #0
     4a8:	0000006b 	andeq	r0, r0, fp, rrx
     4ac:	08000364 	stmdaeq	r0, {r2, r5, r6, r8, r9}
     4b0:	000000ac 	andeq	r0, r0, ip, lsr #1
     4b4:	039c9c01 	orrseq	r9, ip, #256	; 0x100
     4b8:	cd110000 	ldcgt	0, cr0, [r1, #-0]
     4bc:	01000026 	tsteq	r0, r6, lsr #32
     4c0:	00014592 	muleq	r1, r2, r5
     4c4:	6f910200 	svcvs	0x00910200
     4c8:	00305309 	eorseq	r5, r0, r9, lsl #6
     4cc:	e5940100 	ldr	r0, [r4, #256]	; 0x100
     4d0:	02000000 	andeq	r0, r0, #0
     4d4:	12007491 	andne	r7, r0, #-1862270976	; 0x91000000
     4d8:	00002d5e 	andeq	r2, r0, lr, asr sp
     4dc:	00e57201 	rsceq	r7, r5, r1, lsl #4
     4e0:	02f80000 	rscseq	r0, r8, #0
     4e4:	006c0800 	rsbeq	r0, ip, r0, lsl #16
     4e8:	9c010000 	stcls	0, cr0, [r1], {-0}
     4ec:	000003c4 	andeq	r0, r0, r4, asr #7
     4f0:	002d6c09 	eoreq	r6, sp, r9, lsl #24
     4f4:	e5740100 	ldrb	r0, [r4, #-256]!	; 0xffffff00
     4f8:	02000000 	andeq	r0, r0, #0
     4fc:	13007491 	movwne	r7, #1169	; 0x491
     500:	0000408b 	andeq	r4, r0, fp, lsl #1
     504:	02ac5801 	adceq	r5, ip, #65536	; 0x10000
     508:	004c0800 	subeq	r0, ip, r0, lsl #16
     50c:	9c010000 	stcls	0, cr0, [r1], {-0}
     510:	00388313 	eorseq	r8, r8, r3, lsl r3
     514:	5c3c0100 	ldfpls	f0, [ip], #-0
     518:	50080002 	andpl	r0, r8, r2
     51c:	01000000 	mrseq	r0, (UNDEF: 0)
     520:	39b8139c 	ldmibcc	r8!, {r2, r3, r4, r7, r8, r9, ip}
     524:	2f010000 	svccs	0x00010000
     528:	0800022c 	stmdaeq	r0, {r2, r3, r5, r9}
     52c:	00000030 	andeq	r0, r0, r0, lsr r0
     530:	81009c01 	tsthi	r0, r1, lsl #24
     534:	04000001 	streq	r0, [r0], #-1
     538:	00018900 	andeq	r8, r1, r0, lsl #18
     53c:	ae010400 	cfcpysge	mvf0, mvf1
     540:	0c000015 	stceq	0, cr0, [r0], {21}
     544:	00004510 	andeq	r4, r0, r0, lsl r5
     548:	00002e3f 	andeq	r2, r0, pc, lsr lr
     54c:	08000714 	stmdaeq	r0, {r2, r4, r8, r9, sl}
     550:	00000080 	andeq	r0, r0, r0, lsl #1
     554:	00000331 	andeq	r0, r0, r1, lsr r3
     558:	00000f45 	andeq	r0, r0, r5, asr #30
     55c:	0039e902 	eorseq	lr, r9, r2, lsl #18
     560:	00640100 	rsbeq	r0, r4, r0, lsl #2
     564:	1e020000 	cdpne	0, 0, cr0, cr2, cr0, {0}
     568:	00000064 	andeq	r0, r0, r4, rrx
     56c:	00342c03 	eorseq	r2, r4, r3, lsl #24
     570:	5e030000 	cdppl	0, 0, cr0, cr3, cr0, {0}
     574:	01000029 	tsteq	r0, r9, lsr #32
     578:	002c4603 	eoreq	r4, ip, r3, lsl #12
     57c:	c8030200 	stmdagt	r3, {r9}
     580:	03000041 	movweq	r0, #65	; 0x41
     584:	00442003 	subeq	r2, r4, r3
     588:	8d030400 	cfstrshi	mvf0, [r3, #-0]
     58c:	05000026 	streq	r0, [r0, #-38]	; 0xffffffda
     590:	003a9f03 	eorseq	r9, sl, r3, lsl #30
     594:	04000600 	streq	r0, [r0], #-1536	; 0xfffffa00
     598:	05c10801 	strbeq	r0, [r1, #2049]	; 0x801
     59c:	42050000 	andmi	r0, r5, #0
     5a0:	02000027 	andeq	r0, r0, #39	; 0x27
     5a4:	00002933 	andeq	r2, r0, r3, lsr r9
     5a8:	06010400 	streq	r0, [r1], -r0, lsl #8
     5ac:	000007bc 			; <UNDEFINED> instruction: 0x000007bc
     5b0:	bd050204 	sfmlt	f0, 4, [r5, #-16]
     5b4:	04000009 	streq	r0, [r0], #-9
     5b8:	0e8c0702 	cdpeq	7, 8, cr0, cr12, cr2, {0}
     5bc:	04060000 	streq	r0, [r6], #-0
     5c0:	746e6905 	strbtvc	r6, [lr], #-2309	; 0xfffff6fb
     5c4:	2b920500 	blcs	fe4819cc <FPU_MVFR1_ADDR+0x1e472a88>
     5c8:	31030000 	mrscc	r0, (UNDEF: 3)
     5cc:	0000009d 	muleq	r0, sp, r0
     5d0:	5e070404 	cdppl	4, 0, cr0, cr7, cr4, {0}
     5d4:	04000015 	streq	r0, [r0], #-21	; 0xffffffeb
     5d8:	00900508 	addseq	r0, r0, r8, lsl #10
     5dc:	08040000 	stmdaeq	r4, {}	; <UNPREDICTABLE>
     5e0:	00022d07 	andeq	r2, r2, r7, lsl #26
     5e4:	27af0200 	strcs	r0, [pc, r0, lsl #4]!
     5e8:	64010000 	strvs	r0, [r1], #-0
     5ec:	04000000 	streq	r0, [r0], #-0
     5f0:	0001232d 	andeq	r2, r1, sp, lsr #6
     5f4:	2cbe0300 	ldccs	3, cr0, [lr]
     5f8:	03000000 	movweq	r0, #0
     5fc:	00003715 	andeq	r3, r0, r5, lsl r7
     600:	37400301 	strbcc	r0, [r0, -r1, lsl #6]
     604:	03020000 	movweq	r0, #8192	; 0x2000
     608:	00004251 	andeq	r4, r0, r1, asr r2
     60c:	2cd10303 	ldclcs	3, cr0, [r1], {3}
     610:	03040000 	movweq	r0, #16384	; 0x4000
     614:	00002ce4 	andeq	r2, r0, r4, ror #25
     618:	2cf70305 	ldclcs	3, cr0, [r7], #20
     61c:	03060000 	movweq	r0, #24576	; 0x6000
     620:	00002d0a 	andeq	r2, r0, sl, lsl #26
     624:	37ec0307 	strbcc	r0, [ip, r7, lsl #6]!
     628:	03080000 	movweq	r0, #32768	; 0x8000
     62c:	00002d1d 	andeq	r2, r0, sp, lsl sp
     630:	3d980309 	ldccc	3, cr0, [r8, #36]	; 0x24
     634:	03100000 	tsteq	r0, #0
     638:	00003dac 	andeq	r3, r0, ip, lsr #27
     63c:	3dc00311 	stclcc	3, cr0, [r0, #68]	; 0x44
     640:	03120000 	tsteq	r2, #0
     644:	00003dd4 	ldrdeq	r3, [r0], -r4
     648:	3de80313 	stclcc	3, cr0, [r8, #76]!	; 0x4c
     64c:	03140000 	tsteq	r4, #0
     650:	00003dfc 	strdeq	r3, [r0], -ip
     654:	a3050015 	movwge	r0, #20501	; 0x5015
     658:	04000044 	streq	r0, [r0], #-68	; 0xffffffbc
     65c:	0000b252 	andeq	fp, r0, r2, asr r2
     660:	01230700 			; <UNDEFINED> instruction: 0x01230700
     664:	01040000 	mrseq	r0, (UNDEF: 4)
     668:	0007c308 	andeq	ip, r7, r8, lsl #6
     66c:	44e30800 	strbtmi	r0, [r3], #2048	; 0x800
     670:	31010000 	mrscc	r0, (UNDEF: 1)
     674:	0000006b 	andeq	r0, r0, fp, rrx
     678:	0800074c 	stmdaeq	r0, {r2, r3, r6, r8, r9, sl}
     67c:	00000048 	andeq	r0, r0, r8, asr #32
     680:	01629c01 	cmneq	r2, r1, lsl #24
     684:	f1090000 			; <UNDEFINED> instruction: 0xf1090000
     688:	01000044 	tsteq	r0, r4, asr #32
     68c:	00012e31 	andeq	r2, r1, r1, lsr lr
     690:	77910200 	ldrvc	r0, [r1, r0, lsl #4]
     694:	44c90a00 	strbmi	r0, [r9], #2560	; 0xa00
     698:	2b010000 	blcs	406a0 <SCB_VECTKEYSTAT_INV_MASK+0x306a1>
     69c:	08000730 	stmdaeq	r0, {r4, r5, r8, r9, sl}
     6a0:	0000001c 	andeq	r0, r0, ip, lsl r0
     6a4:	f90a9c01 			; <UNDEFINED> instruction: 0xf90a9c01
     6a8:	01000044 	tsteq	r0, r4, asr #32
     6ac:	00071423 	andeq	r1, r7, r3, lsr #8
     6b0:	00001c08 	andeq	r1, r0, r8, lsl #24
     6b4:	009c0100 	addseq	r0, ip, r0, lsl #2
     6b8:	000001d7 	ldrdeq	r0, [r0], -r7
     6bc:	02270004 	eoreq	r0, r7, #4
     6c0:	01040000 	mrseq	r0, (UNDEF: 4)
     6c4:	000015ae 	andeq	r1, r0, lr, lsr #11
     6c8:	0046730c 	subeq	r7, r6, ip, lsl #6
     6cc:	002e3f00 	eoreq	r3, lr, r0, lsl #30
     6d0:	00079400 	andeq	r9, r7, r0, lsl #8
     6d4:	00027808 	andeq	r7, r2, r8, lsl #16
     6d8:	00048a00 	andeq	r8, r4, r0, lsl #20
     6dc:	000fe000 	andeq	lr, pc, r0
     6e0:	39e90200 	stmibcc	r9!, {r9}^
     6e4:	64010000 	strvs	r0, [r1], #-0
     6e8:	02000000 	andeq	r0, r0, #0
     6ec:	0000641e 	andeq	r6, r0, lr, lsl r4
     6f0:	342c0300 	strtcc	r0, [ip], #-768	; 0xfffffd00
     6f4:	03000000 	movweq	r0, #0
     6f8:	0000295e 	andeq	r2, r0, lr, asr r9
     6fc:	2c460301 	mcrrcs	3, 0, r0, r6, cr1
     700:	03020000 	movweq	r0, #8192	; 0x2000
     704:	000041c8 	andeq	r4, r0, r8, asr #3
     708:	44200303 	strtmi	r0, [r0], #-771	; 0xfffffcfd
     70c:	03040000 	movweq	r0, #16384	; 0x4000
     710:	0000268d 	andeq	r2, r0, sp, lsl #13
     714:	3a9f0305 	bcc	fe7c1330 <FPU_MVFR1_ADDR+0x1e7b23ec>
     718:	00060000 	andeq	r0, r6, r0
     71c:	c1080104 	tstgt	r8, r4, lsl #2
     720:	05000005 	streq	r0, [r0, #-5]
     724:	00002742 	andeq	r2, r0, r2, asr #14
     728:	00293302 	eoreq	r3, r9, r2, lsl #6
     72c:	01040000 	mrseq	r0, (UNDEF: 4)
     730:	0007bc06 	andeq	fp, r7, r6, lsl #24
     734:	33c20500 	biccc	r0, r2, #0, 10
     738:	21030000 	mrscs	r0, (UNDEF: 3)
     73c:	00000064 	andeq	r0, r0, r4, rrx
     740:	bd050204 	sfmlt	f0, 4, [r5, #-16]
     744:	05000009 	streq	r0, [r0, #-9]
     748:	00003919 	andeq	r3, r0, r9, lsl r9
     74c:	009a2903 	addseq	r2, sl, r3, lsl #18
     750:	02040000 	andeq	r0, r4, #0
     754:	000e8c07 	andeq	r8, lr, r7, lsl #24
     758:	05040600 	streq	r0, [r4, #-1536]	; 0xfffffa00
     75c:	00746e69 	rsbseq	r6, r4, r9, ror #28
     760:	002b9205 	eoreq	r9, fp, r5, lsl #4
     764:	b8310300 	ldmdalt	r1!, {r8, r9}
     768:	07000000 	streq	r0, [r0, -r0]
     76c:	000000a8 	andeq	r0, r0, r8, lsr #1
     770:	5e070404 	cdppl	4, 0, cr0, cr7, cr4, {0}
     774:	04000015 	streq	r0, [r0], #-21	; 0xffffffeb
     778:	00900508 	addseq	r0, r0, r8, lsl #10
     77c:	08040000 	stmdaeq	r4, {}	; <UNPREDICTABLE>
     780:	00022d07 	andeq	r2, r2, r7, lsl #26
     784:	32aa0200 	adccc	r0, sl, #0, 4
     788:	64010000 	strvs	r0, [r1], #-0
     78c:	04000000 	streq	r0, [r0], #-0
     790:	000102a2 	andeq	r0, r1, r2, lsr #5
     794:	2f200300 	svccs	0x00200300
     798:	03000000 	movweq	r0, #0
     79c:	000027a5 	andeq	r2, r0, r5, lsr #15
     7a0:	2f2a0301 	svccs	0x002a0301
     7a4:	03020000 	movweq	r0, #8192	; 0x2000
     7a8:	00002f34 	andeq	r2, r0, r4, lsr pc
     7ac:	2f3e0303 	svccs	0x003e0303
     7b0:	03040000 	movweq	r0, #16384	; 0x4000
     7b4:	00002f48 	andeq	r2, r0, r8, asr #30
     7b8:	64050005 	strvs	r0, [r5], #-5
     7bc:	04000044 	streq	r0, [r0], #-68	; 0xffffffbc
     7c0:	0000cdb3 			; <UNDEFINED> instruction: 0x0000cdb3
     7c4:	01020800 	tsteq	r2, r0, lsl #16
     7c8:	20090000 	andcs	r0, r9, r0
     7cc:	06000045 	streq	r0, [r0], -r5, asr #32
     7d0:	014fb704 	cmpeq	pc, r4, lsl #14
     7d4:	540a0000 	strpl	r0, [sl], #-0
     7d8:	04000047 	streq	r0, [r0], #-71	; 0xffffffb9
     7dc:	00008fba 			; <UNDEFINED> instruction: 0x00008fba
     7e0:	210a0000 	mrscs	r0, (UNDEF: 10)
     7e4:	04000047 	streq	r0, [r0], #-71	; 0xffffffb9
     7e8:	00007dbc 			; <UNDEFINED> instruction: 0x00007dbc
     7ec:	0a0a0200 	beq	280ff4 <SCB_VECTKEYSTAT_INV_MASK+0x270ff5>
     7f0:	04000047 	streq	r0, [r0], #-71	; 0xffffffb9
     7f4:	00007dbe 			; <UNDEFINED> instruction: 0x00007dbe
     7f8:	680a0300 	stmdavs	sl, {r8, r9}
     7fc:	04000046 	streq	r0, [r0], #-70	; 0xffffffba
     800:	00007dc0 	andeq	r7, r0, r0, asr #27
     804:	05000400 	streq	r0, [r0, #-1024]	; 0xfffffc00
     808:	00004842 	andeq	r4, r0, r2, asr #16
     80c:	0112c404 	tsteq	r2, r4, lsl #8
     810:	4f080000 	svcmi	0x00080000
     814:	04000001 	streq	r0, [r0], #-1
     818:	07c30801 	strbeq	r0, [r3, r1, lsl #16]
     81c:	130b0000 	movwne	r0, #45056	; 0xb000
     820:	01000047 	tsteq	r0, r7, asr #32
     824:	00006bc0 	andeq	r6, r0, r0, asr #23
     828:	00079400 	andeq	r9, r7, r0, lsl #8
     82c:	00027808 	andeq	r7, r2, r8, lsl #16
     830:	ce9c0100 	fmlgte	f0, f4, f0
     834:	0c000001 	stceq	0, cr0, [r0], {1}
     838:	000026cd 	andeq	r2, r0, sp, asr #13
     83c:	010dc001 	tsteq	sp, r1
     840:	91020000 	mrsls	r0, (UNDEF: 2)
     844:	58990c67 	ldmpl	r9, {r0, r1, r2, r5, r6, sl, fp}
     848:	c1010000 	mrsgt	r0, (UNDEF: 1)
     84c:	000001ce 	andeq	r0, r0, lr, asr #3
     850:	0d609102 	stfeqp	f1, [r0, #-8]!
     854:	0000487b 	andeq	r4, r0, fp, ror r8
     858:	01d4c301 	bicseq	ip, r4, r1, lsl #6
     85c:	91020000 	mrsls	r0, (UNDEF: 2)
     860:	00690e74 	rsbeq	r0, r9, r4, ror lr
     864:	007dc501 	rsbseq	ip, sp, r1, lsl #10
     868:	91020000 	mrsls	r0, (UNDEF: 2)
     86c:	07b60f73 			; <UNDEFINED> instruction: 0x07b60f73
     870:	008a0800 	addeq	r0, sl, r0, lsl #16
     874:	3c0d0000 	stccc	0, cr0, [sp], {-0}
     878:	01000048 	tsteq	r0, r8, asr #32
     87c:	0000a8d0 	ldrdeq	sl, [r0], -r0
     880:	6c910200 	lfmvs	f0, 4, [r1], {0}
     884:	04100000 	ldreq	r0, [r0], #-0
     888:	0000015a 	andeq	r0, r0, sl, asr r1
     88c:	00b30410 	adcseq	r0, r3, r0, lsl r4
     890:	7a000000 	bvc	898 <SCB_AIRCR_PRIGROUP_MASK+0x198>
     894:	02000000 	andeq	r0, r0, #0
     898:	00030200 	andeq	r0, r3, r0, lsl #4
     89c:	30010400 	andcc	r0, r1, r0, lsl #8
     8a0:	0c000006 	stceq	0, cr0, [r0], {6}
     8a4:	1c08000a 	stcne	0, cr0, [r8], {10}
     8a8:	7308000a 	movwvc	r0, #32778	; 0x800a
     8ac:	622f6372 	eorvs	r6, pc, #-939524095	; 0xc8000001
     8b0:	695f7073 	ldmdbvs	pc, {r0, r1, r4, r5, r6, ip, sp, lr}^	; <UNPREDICTABLE>
     8b4:	2e74696e 	vsubcs.f16	s13, s8, s29	; <UNPREDICTABLE>
     8b8:	6d2f0053 	stcvs	0, cr0, [pc, #-332]!	; 774 <SCB_AIRCR_PRIGROUP_MASK+0x74>
     8bc:	632f746e 			; <UNDEFINED> instruction: 0x632f746e
     8c0:	6573552f 	ldrbvs	r5, [r3, #-1327]!	; 0xfffffad1
     8c4:	412f7372 			; <UNDEFINED> instruction: 0x412f7372
     8c8:	7978656c 	ldmdbvc	r8!, {r2, r3, r5, r6, r8, sl, sp, lr}^
     8cc:	636f442f 	cmnvs	pc, #788529152	; 0x2f000000
     8d0:	6e656d75 	mcrvs	13, 3, r6, cr5, cr5, {3}
     8d4:	4c2f7374 	stcmi	3, cr7, [pc], #-464	; 70c <SCB_AIRCR_PRIGROUP_MASK+0xc>
     8d8:	2f6b5455 	svccs	0x006b5455
     8dc:	6e72654b 	cdpvs	5, 7, cr6, cr2, cr11, {2}
     8e0:	532f6c65 			; <UNDEFINED> instruction: 0x532f6c65
     8e4:	6372756f 	cmnvs	r2, #465567744	; 0x1bc00000
     8e8:	612f7365 			; <UNDEFINED> instruction: 0x612f7365
     8ec:	2f686372 	svccs	0x00686372
     8f0:	72616f62 	rsbvc	r6, r1, #392	; 0x188
     8f4:	74732f64 	ldrbtvc	r2, [r3], #-3940	; 0xfffff09c
     8f8:	2f32336d 	svccs	0x0032336d
     8fc:	31303466 	teqcc	r0, r6, ror #8
     900:	47006572 	smlsdxmi	r0, r2, r5, r6
     904:	4120554e 			; <UNDEFINED> instruction: 0x4120554e
     908:	2e322053 	mrccs	0, 1, r2, cr2, cr3, {2}
     90c:	01003732 	tsteq	r0, r2, lsr r7
     910:	0000b280 	andeq	fp, r0, r0, lsl #5
     914:	16000400 	strne	r0, [r0], -r0, lsl #8
     918:	04000003 	streq	r0, [r0], #-3
     91c:	0015ae01 	andseq	sl, r5, r1, lsl #28
     920:	4c5e0c00 	mrrcmi	12, 0, r0, lr, cr0
     924:	2e3f0000 	cdpcs	0, 3, cr0, cr15, cr0, {0}
     928:	0a1c0000 	beq	700930 <FPU_CPACR_CP10+0x400930>
     92c:	001a0800 	andseq	r0, sl, r0, lsl #16
     930:	06720000 	ldrbteq	r0, [r2], -r0
     934:	10850000 	addne	r0, r5, r0
     938:	01020000 	mrseq	r0, (UNDEF: 2)
     93c:	0005c108 	andeq	ip, r5, r8, lsl #2
     940:	06010200 	streq	r0, [r1], -r0, lsl #4
     944:	000007bc 			; <UNDEFINED> instruction: 0x000007bc
     948:	bd050202 	sfmlt	f0, 4, [r5, #-8]
     94c:	02000009 	andeq	r0, r0, #9
     950:	0e8c0702 	cdpeq	7, 8, cr0, cr12, cr2, {0}
     954:	04030000 	streq	r0, [r3], #-0
     958:	746e6905 	strbtvc	r6, [lr], #-2309	; 0xfffff6fb
     95c:	07040200 	streq	r0, [r4, -r0, lsl #4]
     960:	0000155e 	andeq	r1, r0, lr, asr r5
     964:	90050802 	andls	r0, r5, r2, lsl #16
     968:	02000000 	andeq	r0, r0, #0
     96c:	022d0708 	eoreq	r0, sp, #8, 14	; 0x200000
     970:	2d040000 	stccs	0, cr0, [r4, #-0]
     974:	0200004c 	andeq	r0, r0, #76	; 0x4c
     978:	00004c24 	andeq	r4, r0, r4, lsr #24
     97c:	00610500 	rsbeq	r0, r1, r0, lsl #10
     980:	48060000 	stmdami	r6, {}	; <UNPREDICTABLE>
     984:	0100004c 	tsteq	r0, ip, asr #32
     988:	000a1c22 	andeq	r1, sl, r2, lsr #24
     98c:	00001a08 	andeq	r1, r0, r8, lsl #20
     990:	a39c0100 	orrsge	r0, ip, #0, 2
     994:	07000000 	streq	r0, [r0, -r0]
     998:	00727473 	rsbseq	r7, r2, r3, ror r4
     99c:	00a32201 	adceq	r2, r3, r1, lsl #4
     9a0:	91020000 	mrsls	r0, (UNDEF: 2)
     9a4:	533c0874 	teqpl	ip, #116, 16	; 0x740000
     9a8:	22010000 	andcs	r0, r1, #0
     9ac:	0000006c 	andeq	r0, r0, ip, rrx
     9b0:	00709102 	rsbseq	r9, r0, r2, lsl #2
     9b4:	00b00409 	adcseq	r0, r0, r9, lsl #8
     9b8:	01020000 	mrseq	r0, (UNDEF: 2)
     9bc:	0007c308 	andeq	ip, r7, r8, lsl #6
     9c0:	00a90500 	adceq	r0, r9, r0, lsl #10
     9c4:	09000000 	stmdbeq	r0, {}	; <UNPREDICTABLE>
     9c8:	04000001 	streq	r0, [r0], #-1
     9cc:	00039800 	andeq	r9, r3, r0, lsl #16
     9d0:	ae010400 	cfcpysge	mvf0, mvf1
     9d4:	0c000015 	stceq	0, cr0, [r0], {21}
     9d8:	00004c83 	andeq	r4, r0, r3, lsl #25
     9dc:	00002e3f 	andeq	r2, r0, pc, lsr lr
     9e0:	08000a38 	stmdaeq	r0, {r3, r4, r5, r9, fp}
     9e4:	00000048 	andeq	r0, r0, r8, asr #32
     9e8:	00000775 	andeq	r0, r0, r5, ror r7
     9ec:	000010ed 	andeq	r1, r0, sp, ror #1
     9f0:	0039e902 	eorseq	lr, r9, r2, lsl #18
     9f4:	00640100 	rsbeq	r0, r4, r0, lsl #2
     9f8:	1e020000 	cdpne	0, 0, cr0, cr2, cr0, {0}
     9fc:	00000064 	andeq	r0, r0, r4, rrx
     a00:	00342c03 	eorseq	r2, r4, r3, lsl #24
     a04:	5e030000 	cdppl	0, 0, cr0, cr3, cr0, {0}
     a08:	01000029 	tsteq	r0, r9, lsr #32
     a0c:	002c4603 	eoreq	r4, ip, r3, lsl #12
     a10:	c8030200 	stmdagt	r3, {r9}
     a14:	03000041 	movweq	r0, #65	; 0x41
     a18:	00442003 	subeq	r2, r4, r3
     a1c:	8d030400 	cfstrshi	mvf0, [r3, #-0]
     a20:	05000026 	streq	r0, [r0, #-38]	; 0xffffffda
     a24:	003a9f03 	eorseq	r9, sl, r3, lsl #30
     a28:	04000600 	streq	r0, [r0], #-1536	; 0xfffffa00
     a2c:	05c10801 	strbeq	r0, [r1, #2049]	; 0x801
     a30:	42050000 	andmi	r0, r5, #0
     a34:	02000027 	andeq	r0, r0, #39	; 0x27
     a38:	00002933 	andeq	r2, r0, r3, lsr r9
     a3c:	06010400 	streq	r0, [r1], -r0, lsl #8
     a40:	000007bc 			; <UNDEFINED> instruction: 0x000007bc
     a44:	bd050204 	sfmlt	f0, 4, [r5, #-16]
     a48:	04000009 	streq	r0, [r0], #-9
     a4c:	0e8c0702 	cdpeq	7, 8, cr0, cr12, cr2, {0}
     a50:	04060000 	streq	r0, [r6], #-0
     a54:	746e6905 	strbtvc	r6, [lr], #-2309	; 0xfffff6fb
     a58:	2b920500 	blcs	fe481e60 <FPU_MVFR1_ADDR+0x1e472f1c>
     a5c:	31030000 	mrscc	r0, (UNDEF: 3)
     a60:	0000009d 	muleq	r0, sp, r0
     a64:	5e070404 	cdppl	4, 0, cr0, cr7, cr4, {0}
     a68:	04000015 	streq	r0, [r0], #-21	; 0xffffffeb
     a6c:	00900508 	addseq	r0, r0, r8, lsl #10
     a70:	08040000 	stmdaeq	r4, {}	; <UNPREDICTABLE>
     a74:	00022d07 	andeq	r2, r2, r7, lsl #26
     a78:	2b840200 	blcs	fe101280 <FPU_MVFR1_ADDR+0x1e0f233c>
     a7c:	84020000 	strhi	r0, [r2], #-0
     a80:	04000000 	streq	r0, [r0], #-0
     a84:	0000d126 	andeq	sp, r0, r6, lsr #2
     a88:	43b00700 	movsmi	r0, #0, 14
     a8c:	80000000 	andhi	r0, r0, r0
     a90:	0032ba07 	eorseq	fp, r2, r7, lsl #20
     a94:	00400000 	subeq	r0, r0, r0
     a98:	004cb305 	subeq	fp, ip, r5, lsl #6
     a9c:	b22f0400 	eorlt	r0, pc, #0, 8
     aa0:	08000000 	stmdaeq	r0, {}	; <UNPREDICTABLE>
     aa4:	000000d1 	ldrdeq	r0, [r0], -r1
     aa8:	c3080104 	movwgt	r0, #33028	; 0x8104
     aac:	09000007 	stmdbeq	r0, {r0, r1, r2}
     ab0:	00004c93 	muleq	r0, r3, ip
     ab4:	006b2201 	rsbeq	r2, fp, r1, lsl #4
     ab8:	0a380000 	beq	e00ac0 <FPU_CPACR_CP11+0x200ac0>
     abc:	00480800 	subeq	r0, r8, r0, lsl #16
     ac0:	9c010000 	stcls	0, cr0, [r1], {-0}
     ac4:	004ca70a 	subeq	sl, ip, sl, lsl #14
     ac8:	dc220100 	stfles	f0, [r2], #-0
     acc:	02000000 	andeq	r0, r0, #0
     ad0:	00007691 	muleq	r0, r1, r6
     ad4:	000003cb 	andeq	r0, r0, fp, asr #7
     ad8:	04250004 	strteq	r0, [r5], #-4
     adc:	01040000 	mrseq	r0, (UNDEF: 4)
     ae0:	000015ae 	andeq	r1, r0, lr, lsr #11
     ae4:	0050770c 	subseq	r7, r0, ip, lsl #14
     ae8:	002e3f00 	eoreq	r3, lr, r0, lsl #30
     aec:	000a8000 	andeq	r8, sl, r0
     af0:	0006cc08 	andeq	ip, r6, r8, lsl #24
     af4:	0008a100 	andeq	sl, r8, r0, lsl #2
     af8:	00116c00 	andseq	r6, r1, r0, lsl #24
     afc:	39e90200 	stmibcc	r9!, {r9}^
     b00:	64010000 	strvs	r0, [r1], #-0
     b04:	02000000 	andeq	r0, r0, #0
     b08:	0000641e 	andeq	r6, r0, lr, lsl r4
     b0c:	342c0300 	strtcc	r0, [ip], #-768	; 0xfffffd00
     b10:	03000000 	movweq	r0, #0
     b14:	0000295e 	andeq	r2, r0, lr, asr r9
     b18:	2c460301 	mcrrcs	3, 0, r0, r6, cr1
     b1c:	03020000 	movweq	r0, #8192	; 0x2000
     b20:	000041c8 	andeq	r4, r0, r8, asr #3
     b24:	44200303 	strtmi	r0, [r0], #-771	; 0xfffffcfd
     b28:	03040000 	movweq	r0, #16384	; 0x4000
     b2c:	0000268d 	andeq	r2, r0, sp, lsl #13
     b30:	3a9f0305 	bcc	fe7c174c <FPU_MVFR1_ADDR+0x1e7b2808>
     b34:	00060000 	andeq	r0, r6, r0
     b38:	c1080104 	tstgt	r8, r4, lsl #2
     b3c:	05000005 	streq	r0, [r0, #-5]
     b40:	00002742 	andeq	r2, r0, r2, asr #14
     b44:	00293302 	eoreq	r3, r9, r2, lsl #6
     b48:	5f020000 	svcpl	0x00020000
     b4c:	01000032 	tsteq	r0, r2, lsr r0
     b50:	00000064 	andeq	r0, r0, r4, rrx
     b54:	0099a703 	addseq	sl, r9, r3, lsl #14
     b58:	61030000 	mrsvs	r0, (UNDEF: 3)
     b5c:	0000003b 	andeq	r0, r0, fp, lsr r0
     b60:	003b6c03 	eorseq	r6, fp, r3, lsl #24
     b64:	93030100 	movwls	r0, #12544	; 0x3100
     b68:	0300003b 	movweq	r0, #59	; 0x3b
     b6c:	2fb20500 	svccs	0x00b20500
     b70:	b2030000 	andlt	r0, r3, #0
     b74:	00000076 	andeq	r0, r0, r6, ror r0
     b78:	00009906 	andeq	r9, r0, r6, lsl #18
     b7c:	06010400 	streq	r0, [r1], -r0, lsl #8
     b80:	000007bc 			; <UNDEFINED> instruction: 0x000007bc
     b84:	0033c205 	eorseq	ip, r3, r5, lsl #4
     b88:	64210400 	strtvs	r0, [r1], #-1024	; 0xfffffc00
     b8c:	04000000 	streq	r0, [r0], #-0
     b90:	09bd0502 	ldmibeq	sp!, {r1, r8, sl}
     b94:	19050000 	stmdbne	r5, {}	; <UNPREDICTABLE>
     b98:	04000039 	streq	r0, [r0], #-57	; 0xffffffc7
     b9c:	0000cd29 	andeq	ip, r0, r9, lsr #26
     ba0:	07020400 	streq	r0, [r2, -r0, lsl #8]
     ba4:	00000e8c 	andeq	r0, r0, ip, lsl #29
     ba8:	69050407 	stmdbvs	r5, {r0, r1, r2, sl}
     bac:	0500746e 	streq	r7, [r0, #-1134]	; 0xfffffb92
     bb0:	00002b92 	muleq	r0, r2, fp
     bb4:	00eb3104 	rsceq	r3, fp, r4, lsl #2
     bb8:	db080000 	blle	200bc0 <SCB_VECTKEYSTAT_INV_MASK+0x1f0bc1>
     bbc:	04000000 	streq	r0, [r0], #-0
     bc0:	155e0704 	ldrbne	r0, [lr, #-1796]	; 0xfffff8fc
     bc4:	08040000 	stmdaeq	r4, {}	; <UNPREDICTABLE>
     bc8:	00009005 	andeq	r9, r0, r5
     bcc:	532e0500 			; <UNDEFINED> instruction: 0x532e0500
     bd0:	39040000 	stmdbcc	r4, {}	; <UNPREDICTABLE>
     bd4:	00000104 	andeq	r0, r0, r4, lsl #2
     bd8:	2d070804 	stccs	8, cr0, [r7, #-16]
     bdc:	02000002 	andeq	r0, r0, #2
     be0:	000032aa 	andeq	r3, r0, sl, lsr #5
     be4:	00006401 	andeq	r6, r0, r1, lsl #8
     be8:	40a20500 	adcmi	r0, r2, r0, lsl #10
     bec:	03000001 	movweq	r0, #1
     bf0:	00002f20 	andeq	r2, r0, r0, lsr #30
     bf4:	27a50300 	strcs	r0, [r5, r0, lsl #6]!
     bf8:	03010000 	movweq	r0, #4096	; 0x1000
     bfc:	00002f2a 	andeq	r2, r0, sl, lsr #30
     c00:	2f340302 	svccs	0x00340302
     c04:	03030000 	movweq	r0, #12288	; 0x3000
     c08:	00002f3e 	andeq	r2, r0, lr, lsr pc
     c0c:	2f480304 	svccs	0x00480304
     c10:	00050000 	andeq	r0, r5, r0
     c14:	00452009 	subeq	r2, r5, r9
     c18:	b7050600 	strlt	r0, [r5, -r0, lsl #12]
     c1c:	0000017d 	andeq	r0, r0, sp, ror r1
     c20:	0047540a 	subeq	r5, r7, sl, lsl #8
     c24:	c2ba0500 	adcsgt	r0, sl, #0, 10
     c28:	00000000 	andeq	r0, r0, r0
     c2c:	0047210a 	subeq	r2, r7, sl, lsl #2
     c30:	b0bc0500 	adcslt	r0, ip, r0, lsl #10
     c34:	02000000 	andeq	r0, r0, #0
     c38:	00470a0a 	subeq	r0, r7, sl, lsl #20
     c3c:	b0be0500 	adcslt	r0, lr, r0, lsl #10
     c40:	03000000 	movweq	r0, #0
     c44:	0046680a 	subeq	r6, r6, sl, lsl #16
     c48:	b0c00500 	sbclt	r0, r0, r0, lsl #10
     c4c:	04000000 	streq	r0, [r0], #-0
     c50:	48420500 	stmdami	r2, {r8, sl}^
     c54:	c4050000 	strgt	r0, [r5], #-0
     c58:	00000140 	andeq	r0, r0, r0, asr #2
     c5c:	00390802 	eorseq	r0, r9, r2, lsl #16
     c60:	00640100 	rsbeq	r0, r4, r0, lsl #2
     c64:	bc060000 	stclt	0, cr0, [r6], {-0}
     c68:	000001c3 	andeq	r0, r0, r3, asr #3
     c6c:	00297203 	eoreq	r7, r9, r3, lsl #4
     c70:	b0030000 	andlt	r0, r3, r0
     c74:	01000033 	tsteq	r0, r3, lsr r0
     c78:	002e8803 	eoreq	r8, lr, r3, lsl #16
     c7c:	1e030200 	cdpne	2, 0, cr0, cr3, cr0, {0}
     c80:	03000033 	movweq	r0, #51	; 0x33
     c84:	00333103 	eorseq	r3, r3, r3, lsl #2
     c88:	c9030400 	stmdbgt	r3, {sl}
     c8c:	05000036 	streq	r0, [r0, #-54]	; 0xffffffca
     c90:	0029b103 	eoreq	fp, r9, r3, lsl #2
     c94:	05000600 	streq	r0, [r0, #-1536]	; 0xfffffa00
     c98:	00004c2d 	andeq	r4, r0, sp, lsr #24
     c9c:	00eb2407 	rsceq	r2, fp, r7, lsl #8
     ca0:	c3060000 	movwgt	r0, #24576	; 0x6000
     ca4:	09000001 	stmdbeq	r0, {r0}
     ca8:	00004cda 	ldrdeq	r4, [r0], -sl
     cac:	1c230808 	stcne	8, cr0, [r3], #-32	; 0xffffffe0
     cb0:	0a000002 	beq	cc0 <SCB_AIRCR_PRIGROUP_MASK+0x5c0>
     cb4:	00004cc3 	andeq	r4, r0, r3, asr #25
     cb8:	00db2608 	sbcseq	r2, fp, r8, lsl #12
     cbc:	0a000000 	beq	cc4 <SCB_AIRCR_PRIGROUP_MASK+0x5c4>
     cc0:	00005337 	andeq	r5, r0, r7, lsr r3
     cc4:	00b02808 	adcseq	r2, r0, r8, lsl #16
     cc8:	0a040000 	beq	100cd0 <SCB_VECTKEYSTAT_INV_MASK+0xf0cd1>
     ccc:	00005324 	andeq	r5, r0, r4, lsr #6
     cd0:	00b02a08 	adcseq	r2, r0, r8, lsl #20
     cd4:	0a050000 	beq	140cdc <SCB_VECTKEYSTAT_INV_MASK+0x130cdd>
     cd8:	00004cf6 	strdeq	r4, [r0], -r6
     cdc:	00b02c08 	adcseq	r2, r0, r8, lsl #24
     ce0:	0a060000 	beq	180ce8 <SCB_VECTKEYSTAT_INV_MASK+0x170ce9>
     ce4:	0000506d 	andeq	r5, r0, sp, rrx
     ce8:	00b02e08 	adcseq	r2, r0, r8, lsl #28
     cec:	00070000 	andeq	r0, r7, r0
     cf0:	00534305 	subseq	r4, r3, r5, lsl #6
     cf4:	d3320800 	teqle	r2, #0, 16
     cf8:	06000001 	streq	r0, [r0], -r1
     cfc:	0000021c 	andeq	r0, r0, ip, lsl r2
     d00:	0239040b 	eorseq	r0, r9, #184549376	; 0xb000000
     d04:	01040000 	mrseq	r0, (UNDEF: 4)
     d08:	0007c308 	andeq	ip, r7, r8, lsl #6
     d0c:	02320600 	eorseq	r0, r2, #0, 12
     d10:	a10c0000 	mrsge	r0, (UNDEF: 12)
     d14:	01000053 	qaddeq	r0, r3, r0
     d18:	0000b01f 	andeq	fp, r0, pc, lsl r0
     d1c:	05030500 	streq	r0, [r3, #-1280]	; 0xfffffb00
     d20:	0d200000 	stceq	0, cr0, [r0, #-0]
     d24:	000053c4 	andeq	r5, r0, r4, asr #7
     d28:	6b01e401 	blvs	79d34 <SCB_VECTKEYSTAT_INV_MASK+0x69d35>
     d2c:	ec000000 	stc	0, cr0, [r0], {-0}
     d30:	60080010 	andvs	r0, r8, r0, lsl r0
     d34:	01000000 	mrseq	r0, (UNDEF: 0)
     d38:	0002959c 	muleq	r2, ip, r5
     d3c:	74730e00 	ldrbtvc	r0, [r3], #-3584	; 0xfffff200
     d40:	e4010072 	str	r0, [r1], #-114	; 0xffffff8e
     d44:	00022c01 	andeq	r2, r2, r1, lsl #24
     d48:	6c910200 	lfmvs	f0, 4, [r1], {0}
     d4c:	00533c0f 	subseq	r3, r3, pc, lsl #24
     d50:	01e40100 	mvneq	r0, r0, lsl #2
     d54:	000001ce 	andeq	r0, r0, lr, asr #3
     d58:	10689102 	rsbne	r9, r8, r2, lsl #2
     d5c:	e6010069 	str	r0, [r1], -r9, rrx
     d60:	0001c301 	andeq	ip, r1, r1, lsl #6
     d64:	74910200 	ldrvc	r0, [r1], #512	; 0x200
     d68:	4cea1100 	stfmie	f1, [sl]
     d6c:	96010000 	strls	r0, [r1], -r0
     d70:	00006b01 	andeq	r6, r0, r1, lsl #22
     d74:	000f2000 	andeq	r2, pc, r0
     d78:	0001cc08 	andeq	ip, r1, r8, lsl #24
     d7c:	dd9c0100 	ldfles	f0, [ip]
     d80:	0f000002 	svceq	0x00000002
     d84:	00005899 	muleq	r0, r9, r8
     d88:	dd019601 	stcle	6, cr9, [r1, #-4]
     d8c:	02000002 	andeq	r0, r0, #2
     d90:	d5126c91 	ldrle	r6, [r2, #-3217]	; 0xfffff36f
     d94:	01000054 	qaddeq	r0, r4, r0
     d98:	017d019c 			; <UNDEFINED> instruction: 0x017d019c
     d9c:	91020000 	mrsls	r0, (UNDEF: 2)
     da0:	29e11270 	stmibcs	r1!, {r4, r5, r6, r9, ip}^
     da4:	9d010000 	stcls	0, cr0, [r1, #-0]
     da8:	00006b01 	andeq	r6, r0, r1, lsl #22
     dac:	77910200 	ldrvc	r0, [r1, r0, lsl #4]
     db0:	27040b00 	strcs	r0, [r4, -r0, lsl #22]
     db4:	13000002 	movwne	r0, #2
     db8:	00004cfe 	strdeq	r4, [r0], -lr
     dbc:	c4018001 	strgt	r8, [r1], #-1
     dc0:	5c08000e 	stcpl	0, cr0, [r8], {14}
     dc4:	01000000 	mrseq	r0, (UNDEF: 0)
     dc8:	0003099c 	muleq	r3, ip, r9
     dcc:	39920f00 	ldmibcc	r2, {r8, r9, sl, fp}
     dd0:	80010000 	andhi	r0, r1, r0
     dd4:	0000a401 	andeq	sl, r0, r1, lsl #8
     dd8:	77910200 	ldrvc	r0, [r1, r0, lsl #4]
     ddc:	53b21300 			; <UNDEFINED> instruction: 0x53b21300
     de0:	67010000 	strvs	r0, [r1, -r0]
     de4:	000e6801 	andeq	r6, lr, r1, lsl #16
     de8:	00005c08 	andeq	r5, r0, r8, lsl #24
     dec:	2f9c0100 	svccs	0x009c0100
     df0:	0f000003 	svceq	0x00000003
     df4:	00003992 	muleq	r0, r2, r9
     df8:	a4016701 	strge	r6, [r1], #-1793	; 0xfffff8ff
     dfc:	02000000 	andeq	r0, r0, #0
     e00:	14007791 	strne	r7, [r0], #-1937	; 0xfffff86f
     e04:	000054e3 	andeq	r5, r0, r3, ror #9
     e08:	0a80e901 	beq	fe03b214 <FPU_MVFR1_ADDR+0x1e02c2d0>
     e0c:	03e80800 	mvneq	r0, #0, 16
     e10:	9c010000 	stcls	0, cr0, [r1], {-0}
     e14:	000003c8 	andeq	r0, r0, r8, asr #7
     e18:	00399215 	eorseq	r9, r9, r5, lsl r2
     e1c:	a4e90100 	strbtge	r0, [r9], #256	; 0x100
     e20:	03000000 	movweq	r0, #0
     e24:	157fb791 	ldrbne	fp, [pc, #-1937]!	; 69b <FPU_FPCCR_MONRDY+0x59b>
     e28:	00005899 	muleq	r0, r9, r8
     e2c:	02ddea01 	sbcseq	lr, sp, #4096	; 0x1000
     e30:	91030000 	mrsls	r0, (UNDEF: 3)
     e34:	63167fb0 	tstvs	r6, #176, 30	; 0x2c0
     e38:	01003172 	tsteq	r0, r2, ror r1
     e3c:	0003c8ec 	andeq	ip, r3, ip, ror #17
     e40:	54910200 	ldrpl	r0, [r1], #512	; 0x200
     e44:	32726316 	rsbscc	r6, r2, #1476395008	; 0x58000000
     e48:	c8ed0100 	stmiagt	sp!, {r8}^
     e4c:	02000003 	andeq	r0, r0, #3
     e50:	63165091 	tstvs	r6, #145	; 0x91
     e54:	01003372 	tsteq	r0, r2, ror r3
     e58:	0003c8ee 	andeq	ip, r3, lr, ror #17
     e5c:	4c910200 	lfmmi	f0, 4, [r1], {0}
     e60:	72726216 	rsbsvc	r6, r2, #1610612737	; 0x60000001
     e64:	c8ef0100 	stmiagt	pc!, {r8}^	; <UNPREDICTABLE>
     e68:	02000003 	andeq	r0, r0, #3
     e6c:	47174891 			; <UNDEFINED> instruction: 0x47174891
     e70:	01000055 	qaddeq	r0, r5, r0
     e74:	0000dbf1 	strdeq	sp, [r0], -r1
     e78:	44910200 	ldrmi	r0, [r1], #512	; 0x200
     e7c:	004cd112 	subeq	sp, ip, r2, lsl r1
     e80:	01550100 	cmpeq	r5, r0, lsl #2
     e84:	000000db 	ldrdeq	r0, [r0], -fp
     e88:	12409102 	subne	r9, r0, #-2147483648	; 0x80000000
     e8c:	00004ccc 	andeq	r4, r0, ip, asr #25
     e90:	db015601 	blle	5669c <SCB_VECTKEYSTAT_INV_MASK+0x4669d>
     e94:	03000000 	movweq	r0, #0
     e98:	007fbc91 			; <UNDEFINED> instruction: 0x007fbc91
     e9c:	00e6040b 	rsceq	r0, r6, fp, lsl #8
     ea0:	87000000 	strhi	r0, [r0, -r0]
     ea4:	04000001 	streq	r0, [r0], #-1
     ea8:	00059400 	andeq	r9, r5, r0, lsl #8
     eac:	ae010400 	cfcpysge	mvf0, mvf1
     eb0:	0c000015 	stceq	0, cr0, [r0], {21}
     eb4:	000057db 	ldrdeq	r5, [r0], -fp
     eb8:	000056b1 			; <UNDEFINED> instruction: 0x000056b1
     ebc:	0800114c 	stmdaeq	r0, {r2, r3, r6, r8, ip}
     ec0:	000000f0 	strdeq	r0, [r0], -r0	; <UNPREDICTABLE>
     ec4:	00000af8 	strdeq	r0, [r0], -r8
     ec8:	0000122d 	andeq	r1, r0, sp, lsr #4
     ecc:	0039e902 	eorseq	lr, r9, r2, lsl #18
     ed0:	00640100 	rsbeq	r0, r4, r0, lsl #2
     ed4:	1e020000 	cdpne	0, 0, cr0, cr2, cr0, {0}
     ed8:	00000064 	andeq	r0, r0, r4, rrx
     edc:	00342c03 	eorseq	r2, r4, r3, lsl #24
     ee0:	5e030000 	cdppl	0, 0, cr0, cr3, cr0, {0}
     ee4:	01000029 	tsteq	r0, r9, lsr #32
     ee8:	002c4603 	eoreq	r4, ip, r3, lsl #12
     eec:	c8030200 	stmdagt	r3, {r9}
     ef0:	03000041 	movweq	r0, #65	; 0x41
     ef4:	00442003 	subeq	r2, r4, r3
     ef8:	8d030400 	cfstrshi	mvf0, [r3, #-0]
     efc:	05000026 	streq	r0, [r0, #-38]	; 0xffffffda
     f00:	003a9f03 	eorseq	r9, sl, r3, lsl #30
     f04:	04000600 	streq	r0, [r0], #-1536	; 0xfffffa00
     f08:	05c10801 	strbeq	r0, [r1, #2049]	; 0x801
     f0c:	42050000 	andmi	r0, r5, #0
     f10:	02000027 	andeq	r0, r0, #39	; 0x27
     f14:	00002933 	andeq	r2, r0, r3, lsr r9
     f18:	06010400 	streq	r0, [r1], -r0, lsl #8
     f1c:	000007bc 			; <UNDEFINED> instruction: 0x000007bc
     f20:	0033c205 	eorseq	ip, r3, r5, lsl #4
     f24:	64210300 	strtvs	r0, [r1], #-768	; 0xfffffd00
     f28:	06000000 	streq	r0, [r0], -r0
     f2c:	0000007d 	andeq	r0, r0, sp, ror r0
     f30:	bd050204 	sfmlt	f0, 4, [r5, #-16]
     f34:	04000009 	streq	r0, [r0], #-9
     f38:	0e8c0702 	cdpeq	7, 8, cr0, cr12, cr2, {0}
     f3c:	04070000 	streq	r0, [r7], #-0
     f40:	746e6905 	strbtvc	r6, [lr], #-2309	; 0xfffff6fb
     f44:	2b920500 	blcs	fe48234c <FPU_MVFR1_ADDR+0x1e473408>
     f48:	31030000 	mrscc	r0, (UNDEF: 3)
     f4c:	000000b2 	strheq	r0, [r0], -r2
     f50:	0000a206 	andeq	sl, r0, r6, lsl #4
     f54:	07040400 	streq	r0, [r4, -r0, lsl #8]
     f58:	0000155e 	andeq	r1, r0, lr, asr r5
     f5c:	90050804 	andls	r0, r5, r4, lsl #16
     f60:	04000000 	streq	r0, [r0], #-0
     f64:	022d0708 	eoreq	r0, sp, #8, 14	; 0x200000
     f68:	01040000 	mrseq	r0, (UNDEF: 4)
     f6c:	0007c308 	andeq	ip, r7, r8, lsl #6
     f70:	55420800 	strbpl	r0, [r2, #-2048]	; 0xfffff800
     f74:	1e010000 	cdpne	0, 0, cr0, cr1, cr0, {0}
     f78:	000000a2 	andeq	r0, r0, r2, lsr #1
     f7c:	00080305 	andeq	r0, r8, r5, lsl #6
     f80:	2a092000 	bcs	248f88 <SCB_VECTKEYSTAT_INV_MASK+0x238f89>
     f84:	01000055 	qaddeq	r0, r5, r0
     f88:	00006b5c 	andeq	r6, r0, ip, asr fp
     f8c:	00121000 	andseq	r1, r2, r0
     f90:	00002c08 	andeq	r2, r0, r8, lsl #24
     f94:	079c0100 	ldreq	r0, [ip, r0, lsl #2]
     f98:	0a000001 	beq	fa4 <SCB_AIRCR_PRIGROUP_MASK+0x8a4>
     f9c:	00005547 	andeq	r5, r0, r7, asr #10
     fa0:	01075c01 	tsteq	r7, r1, lsl #24
     fa4:	91020000 	mrsls	r0, (UNDEF: 2)
     fa8:	040b0074 	streq	r0, [fp], #-116	; 0xffffff8c
     fac:	000000a2 	andeq	r0, r0, r2, lsr #1
     fb0:	0057c30c 	subseq	ip, r7, ip, lsl #6
     fb4:	6b3b0100 	blvs	ec13bc <FPU_CPACR_CP11+0x2c13bc>
     fb8:	a4000000 	strge	r0, [r0], #-0
     fbc:	6c080011 	stcvs	0, cr0, [r8], {17}
     fc0:	01000000 	mrseq	r0, (UNDEF: 0)
     fc4:	0001519c 	muleq	r1, ip, r1
     fc8:	55470a00 	strbpl	r0, [r7, #-2560]	; 0xfffff600
     fcc:	3b010000 	blcc	40fd4 <SCB_VECTKEYSTAT_INV_MASK+0x30fd5>
     fd0:	000000ad 	andeq	r0, r0, sp, lsr #1
     fd4:	086c9102 	stmdaeq	ip!, {r1, r8, ip, pc}^
     fd8:	0000558a 	andeq	r5, r0, sl, lsl #11
     fdc:	00a23d01 	adceq	r3, r2, r1, lsl #26
     fe0:	91020000 	mrsls	r0, (UNDEF: 2)
     fe4:	29e10870 	stmibcs	r1!, {r4, r5, r6, fp}^
     fe8:	3e010000 	cdpcc	0, 0, cr0, cr1, cr0, {0}
     fec:	0000006b 	andeq	r0, r0, fp, rrx
     ff0:	00779102 	rsbseq	r9, r7, r2, lsl #2
     ff4:	0055a70d 	subseq	sl, r5, sp, lsl #14
     ff8:	6b330100 	blvs	cc1400 <FPU_CPACR_CP11+0xc1400>
     ffc:	84000000 	strhi	r0, [r0], #-0
    1000:	20080011 	andcs	r0, r8, r1, lsl r0
    1004:	01000000 	mrseq	r0, (UNDEF: 0)
    1008:	55d80e9c 	ldrbpl	r0, [r8, #3740]	; 0xe9c
    100c:	28010000 	stmdacs	r1, {}	; <UNPREDICTABLE>
    1010:	0000006b 	andeq	r0, r0, fp, rrx
    1014:	0800114c 	stmdaeq	r0, {r2, r3, r6, r8, ip}
    1018:	00000038 	andeq	r0, r0, r8, lsr r0
    101c:	360a9c01 	strcc	r9, [sl], -r1, lsl #24
    1020:	01000056 	qaddeq	r0, r6, r0
    1024:	00008828 	andeq	r8, r0, r8, lsr #16
    1028:	77910200 	ldrvc	r0, [r1, r0, lsl #4]
    102c:	00740000 	rsbseq	r0, r4, r0
    1030:	00020000 	andeq	r0, r2, r0
    1034:	00000682 	andeq	r0, r0, r2, lsl #13
    1038:	0c800104 	stfeqs	f0, [r0], {4}
    103c:	123c0000 	eorsne	r0, ip, #0
    1040:	12600800 	rsbne	r0, r0, #0, 16
    1044:	72730800 	rsbsvc	r0, r3, #0, 16
    1048:	70662f63 	rsbvc	r2, r6, r3, ror #30
    104c:	00532e75 	subseq	r2, r3, r5, ror lr
    1050:	746e6d2f 	strbtvc	r6, [lr], #-3375	; 0xfffff2d1
    1054:	552f632f 	strpl	r6, [pc, #-815]!	; d2d <SCB_AIRCR_PRIGROUP_MASK+0x62d>
    1058:	73726573 	cmnvc	r2, #482344960	; 0x1cc00000
    105c:	656c412f 	strbvs	r4, [ip, #-303]!	; 0xfffffed1
    1060:	442f7978 	strtmi	r7, [pc], #-2424	; 1068 <SCB_AIRCR_PRIGROUP_MASK+0x968>
    1064:	6d75636f 	ldclvs	3, cr6, [r5, #-444]!	; 0xfffffe44
    1068:	73746e65 	cmnvc	r4, #1616	; 0x650
    106c:	54554c2f 	ldrbpl	r4, [r5], #-3119	; 0xfffff3d1
    1070:	654b2f6b 	strbvs	r2, [fp, #-3947]	; 0xfffff095
    1074:	6c656e72 	stclvs	14, cr6, [r5], #-456	; 0xfffffe38
    1078:	756f532f 	strbvc	r5, [pc, #-815]!	; d51 <SCB_AIRCR_PRIGROUP_MASK+0x651>
    107c:	73656372 	cmnvc	r5, #-939524095	; 0xc8000001
    1080:	6372612f 	cmnvs	r2, #-1073741813	; 0xc000000b
    1084:	70632f68 	rsbvc	r2, r3, r8, ror #30
    1088:	72612f75 	rsbvc	r2, r1, #468	; 0x1d4
    108c:	6f632f6d 	svcvs	0x00632f6d
    1090:	78657472 	stmdavc	r5!, {r1, r4, r5, r6, sl, ip, sp, lr}^
    1094:	00346d5f 	eorseq	r6, r4, pc, asr sp
    1098:	20554e47 	subscs	r4, r5, r7, asr #28
    109c:	32205341 	eorcc	r5, r0, #67108865	; 0x4000001
    10a0:	0037322e 	eorseq	r3, r7, lr, lsr #4
    10a4:	007b8001 	rsbseq	r8, fp, r1
    10a8:	00020000 	andeq	r0, r2, r0
    10ac:	00000696 	muleq	r0, r6, r6
    10b0:	0cc70104 	stfeqe	f0, [r7], {4}
    10b4:	12600000 	rsbne	r0, r0, #0
    10b8:	12960800 	addsne	r0, r6, #0, 16
    10bc:	72730800 	rsbsvc	r0, r3, #0, 16
    10c0:	6e692f63 	cdpvs	15, 6, cr2, cr9, cr3, {3}
    10c4:	65765f74 	ldrbvs	r5, [r6, #-3956]!	; 0xfffff08c
    10c8:	726f7463 	rsbvc	r7, pc, #1660944384	; 0x63000000
    10cc:	2f00532e 	svccs	0x0000532e
    10d0:	2f746e6d 	svccs	0x00746e6d
    10d4:	73552f63 	cmpvc	r5, #396	; 0x18c
    10d8:	2f737265 	svccs	0x00737265
    10dc:	78656c41 	stmdavc	r5!, {r0, r6, sl, fp, sp, lr}^
    10e0:	6f442f79 	svcvs	0x00442f79
    10e4:	656d7563 	strbvs	r7, [sp, #-1379]!	; 0xfffffa9d
    10e8:	2f73746e 	svccs	0x0073746e
    10ec:	6b54554c 	blvs	1516624 <FPU_ENABLE_CPACR_VALUE+0x616624>
    10f0:	72654b2f 	rsbvc	r4, r5, #48128	; 0xbc00
    10f4:	2f6c656e 	svccs	0x006c656e
    10f8:	72756f53 	rsbsvc	r6, r5, #332	; 0x14c
    10fc:	2f736563 	svccs	0x00736563
    1100:	68637261 	stmdavs	r3!, {r0, r5, r6, r9, ip, sp, lr}^
    1104:	7570632f 	ldrbvc	r6, [r0, #-815]!	; 0xfffffcd1
    1108:	6d72612f 	ldfvse	f6, [r2, #-188]!	; 0xffffff44
    110c:	726f632f 	rsbvc	r6, pc, #-1140850688	; 0xbc000000
    1110:	5f786574 	svcpl	0x00786574
    1114:	4700346d 	strmi	r3, [r0, -sp, ror #8]
    1118:	4120554e 			; <UNDEFINED> instruction: 0x4120554e
    111c:	2e322053 	mrccs	0, 1, r2, cr2, cr3, {2}
    1120:	01003732 	tsteq	r0, r2, lsr r7
    1124:	00007180 	andeq	r7, r0, r0, lsl #3
    1128:	aa000200 	bge	1930 <SCB_AIRCR_PRIGROUP_MASK+0x1230>
    112c:	04000006 	streq	r0, [r0], #-6
    1130:	000d1e01 	andeq	r1, sp, r1, lsl #28
    1134:	00000000 	andeq	r0, r0, r0
    1138:	63727300 	cmnvs	r2, #0, 6
    113c:	74616d2f 	strbtvc	r6, [r1], #-3375	; 0xfffff2d1
    1140:	00532e68 	subseq	r2, r3, r8, ror #28
    1144:	746e6d2f 	strbtvc	r6, [lr], #-3375	; 0xfffff2d1
    1148:	552f632f 	strpl	r6, [pc, #-815]!	; e21 <SCB_AIRCR_PRIGROUP_MASK+0x721>
    114c:	73726573 	cmnvc	r2, #482344960	; 0x1cc00000
    1150:	656c412f 	strbvs	r4, [ip, #-303]!	; 0xfffffed1
    1154:	442f7978 	strtmi	r7, [pc], #-2424	; 115c <SCB_AIRCR_PRIGROUP_MASK+0xa5c>
    1158:	6d75636f 	ldclvs	3, cr6, [r5, #-444]!	; 0xfffffe44
    115c:	73746e65 	cmnvc	r4, #1616	; 0x650
    1160:	54554c2f 	ldrbpl	r4, [r5], #-3119	; 0xfffff3d1
    1164:	654b2f6b 	strbvs	r2, [fp, #-3947]	; 0xfffff095
    1168:	6c656e72 	stclvs	14, cr6, [r5], #-456	; 0xfffffe38
    116c:	756f532f 	strbvc	r5, [pc, #-815]!	; e45 <SCB_AIRCR_PRIGROUP_MASK+0x745>
    1170:	73656372 	cmnvc	r5, #-939524095	; 0xc8000001
    1174:	6372612f 	cmnvs	r2, #-1073741813	; 0xc000000b
    1178:	70632f68 	rsbvc	r2, r3, r8, ror #30
    117c:	72612f75 	rsbvc	r2, r1, #468	; 0x1d4
    1180:	6f632f6d 	svcvs	0x00632f6d
    1184:	78657472 	stmdavc	r5!, {r1, r4, r5, r6, sl, ip, sp, lr}^
    1188:	00346d5f 	eorseq	r6, r4, pc, asr sp
    118c:	20554e47 	subscs	r4, r5, r7, asr #28
    1190:	32205341 	eorcc	r5, r0, #67108865	; 0x4000001
    1194:	0037322e 	eorseq	r3, r7, lr, lsr #4
    1198:	00758001 	rsbseq	r8, r5, r1
    119c:	00020000 	andeq	r0, r2, r0
    11a0:	000006bc 			; <UNDEFINED> instruction: 0x000006bc
    11a4:	0dda0104 	ldfeqe	f0, [sl, #16]
    11a8:	12980000 	addsne	r0, r8, #0
    11ac:	12e80800 	rscne	r0, r8, #0, 16
    11b0:	72730800 	rsbsvc	r0, r3, #0, 16
    11b4:	766e2f63 	strbtvc	r2, [lr], -r3, ror #30
    11b8:	532e6369 			; <UNDEFINED> instruction: 0x532e6369
    11bc:	6e6d2f00 	cdpvs	15, 6, cr2, cr13, cr0, {0}
    11c0:	2f632f74 	svccs	0x00632f74
    11c4:	72657355 	rsbvc	r7, r5, #1409286145	; 0x54000001
    11c8:	6c412f73 	mcrrvs	15, 7, r2, r1, cr3
    11cc:	2f797865 	svccs	0x00797865
    11d0:	75636f44 	strbvc	r6, [r3, #-3908]!	; 0xfffff0bc
    11d4:	746e656d 	strbtvc	r6, [lr], #-1389	; 0xfffffa93
    11d8:	554c2f73 	strbpl	r2, [ip, #-3955]	; 0xfffff08d
    11dc:	4b2f6b54 	blmi	bdbf34 <FPU_CPACR_CP10+0x8dbf34>
    11e0:	656e7265 	strbvs	r7, [lr, #-613]!	; 0xfffffd9b
    11e4:	6f532f6c 	svcvs	0x00532f6c
    11e8:	65637275 	strbvs	r7, [r3, #-629]!	; 0xfffffd8b
    11ec:	72612f73 	rsbvc	r2, r1, #460	; 0x1cc
    11f0:	632f6863 			; <UNDEFINED> instruction: 0x632f6863
    11f4:	612f7570 			; <UNDEFINED> instruction: 0x612f7570
    11f8:	632f6d72 			; <UNDEFINED> instruction: 0x632f6d72
    11fc:	6574726f 	ldrbvs	r7, [r4, #-623]!	; 0xfffffd91
    1200:	346d5f78 	strbtcc	r5, [sp], #-3960	; 0xfffff088
    1204:	554e4700 	strbpl	r4, [lr, #-1792]	; 0xfffff900
    1208:	20534120 	subscs	r4, r3, r0, lsr #2
    120c:	37322e32 			; <UNDEFINED> instruction: 0x37322e32
    1210:	98800100 	stmls	r0, {r8}
    1214:	04000000 	streq	r0, [r0], #-0
    1218:	0006d000 	andeq	sp, r6, r0
    121c:	ae010400 	cfcpysge	mvf0, mvf1
    1220:	0c000015 	stceq	0, cr0, [r0], {21}
    1224:	000057eb 	andeq	r5, r0, fp, ror #15
    1228:	000056b1 			; <UNDEFINED> instruction: 0x000056b1
    122c:	080012e8 	stmdaeq	r0, {r3, r5, r6, r7, r9, ip}
    1230:	0000000c 	andeq	r0, r0, ip
    1234:	00000e34 	andeq	r0, r0, r4, lsr lr
    1238:	000012fc 	strdeq	r1, [r0], -ip
    123c:	0039e902 	eorseq	lr, r9, r2, lsl #18
    1240:	00640100 	rsbeq	r0, r4, r0, lsl #2
    1244:	1e020000 	cdpne	0, 0, cr0, cr2, cr0, {0}
    1248:	00000064 	andeq	r0, r0, r4, rrx
    124c:	00342c03 	eorseq	r2, r4, r3, lsl #24
    1250:	5e030000 	cdppl	0, 0, cr0, cr3, cr0, {0}
    1254:	01000029 	tsteq	r0, r9, lsr #32
    1258:	002c4603 	eoreq	r4, ip, r3, lsl #12
    125c:	c8030200 	stmdagt	r3, {r9}
    1260:	03000041 	movweq	r0, #65	; 0x41
    1264:	00442003 	subeq	r2, r4, r3
    1268:	8d030400 	cfstrshi	mvf0, [r3, #-0]
    126c:	05000026 	streq	r0, [r0, #-38]	; 0xffffffda
    1270:	003a9f03 	eorseq	r9, sl, r3, lsl #30
    1274:	04000600 	streq	r0, [r0], #-1536	; 0xfffffa00
    1278:	05c10801 	strbeq	r0, [r1, #2049]	; 0x801
    127c:	42050000 	andmi	r0, r5, #0
    1280:	02000027 	andeq	r0, r0, #39	; 0x27
    1284:	00002933 	andeq	r2, r0, r3, lsr r9
    1288:	006b0600 	rsbeq	r0, fp, r0, lsl #12
    128c:	08070000 	stmdaeq	r7, {}	; <UNPREDICTABLE>
    1290:	01000058 	qaddeq	r0, r8, r0
    1294:	0012e81f 	andseq	lr, r2, pc, lsl r8
    1298:	00000c08 	andeq	r0, r0, r8, lsl #24
    129c:	089c0100 	ldmeq	ip, {r8}
    12a0:	00005815 	andeq	r5, r0, r5, lsl r8
    12a4:	00761f01 	rsbseq	r1, r6, r1, lsl #30
    12a8:	91020000 	mrsls	r0, (UNDEF: 2)
    12ac:	ca000077 	bgt	1490 <SCB_AIRCR_PRIGROUP_MASK+0xd90>
    12b0:	04000001 	streq	r0, [r0], #-1
    12b4:	00074700 	andeq	r4, r7, r0, lsl #14
    12b8:	ae010400 	cfcpysge	mvf0, mvf1
    12bc:	0c000015 	stceq	0, cr0, [r0], {21}
    12c0:	00005882 	andeq	r5, r0, r2, lsl #17
    12c4:	0000581c 	andeq	r5, r0, ip, lsl r8
    12c8:	080012f4 	stmdaeq	r0, {r2, r4, r5, r6, r7, r9, ip}
    12cc:	000000e4 	andeq	r0, r0, r4, ror #1
    12d0:	00000ec1 	andeq	r0, r0, r1, asr #29
    12d4:	00001321 	andeq	r1, r0, r1, lsr #6
    12d8:	0039e902 	eorseq	lr, r9, r2, lsl #18
    12dc:	00640100 	rsbeq	r0, r4, r0, lsl #2
    12e0:	1e020000 	cdpne	0, 0, cr0, cr2, cr0, {0}
    12e4:	00000064 	andeq	r0, r0, r4, rrx
    12e8:	00342c03 	eorseq	r2, r4, r3, lsl #24
    12ec:	5e030000 	cdppl	0, 0, cr0, cr3, cr0, {0}
    12f0:	01000029 	tsteq	r0, r9, lsr #32
    12f4:	002c4603 	eoreq	r4, ip, r3, lsl #12
    12f8:	c8030200 	stmdagt	r3, {r9}
    12fc:	03000041 	movweq	r0, #65	; 0x41
    1300:	00442003 	subeq	r2, r4, r3
    1304:	8d030400 	cfstrshi	mvf0, [r3, #-0]
    1308:	05000026 	streq	r0, [r0, #-38]	; 0xffffffda
    130c:	003a9f03 	eorseq	r9, sl, r3, lsl #30
    1310:	04000600 	streq	r0, [r0], #-1536	; 0xfffffa00
    1314:	05c10801 	strbeq	r0, [r1, #2049]	; 0x801
    1318:	42050000 	andmi	r0, r5, #0
    131c:	02000027 	andeq	r0, r0, #39	; 0x27
    1320:	00002933 	andeq	r2, r0, r3, lsr r9
    1324:	06010400 	streq	r0, [r1], -r0, lsl #8
    1328:	000007bc 			; <UNDEFINED> instruction: 0x000007bc
    132c:	0033c205 	eorseq	ip, r3, r5, lsl #4
    1330:	64210300 	strtvs	r0, [r1], #-768	; 0xfffffd00
    1334:	04000000 	streq	r0, [r0], #-0
    1338:	09bd0502 	ldmibeq	sp!, {r1, r8, sl}
    133c:	02040000 	andeq	r0, r4, #0
    1340:	000e8c07 	andeq	r8, lr, r7, lsl #24
    1344:	05040600 	streq	r0, [r4, #-1536]	; 0xfffffa00
    1348:	00746e69 	rsbseq	r6, r4, r9, ror #28
    134c:	002b9205 	eoreq	r9, fp, r5, lsl #4
    1350:	a8310300 	ldmdage	r1!, {r8, r9}
    1354:	04000000 	streq	r0, [r0], #-0
    1358:	155e0704 	ldrbne	r0, [lr, #-1796]	; 0xfffff8fc
    135c:	08040000 	stmdaeq	r4, {}	; <UNPREDICTABLE>
    1360:	00009005 	andeq	r9, r0, r5
    1364:	07080400 	streq	r0, [r8, -r0, lsl #8]
    1368:	0000022d 	andeq	r0, r0, sp, lsr #4
    136c:	004c2d05 	subeq	r2, ip, r5, lsl #26
    1370:	a8240400 	stmdage	r4!, {sl}
    1374:	07000000 	streq	r0, [r0, -r0]
    1378:	000000bd 	strheq	r0, [r0], -sp
    137c:	004cda08 	subeq	sp, ip, r8, lsl #20
    1380:	23050800 	movwcs	r0, #22528	; 0x5800
    1384:	00000116 	andeq	r0, r0, r6, lsl r1
    1388:	004cc309 	subeq	ip, ip, r9, lsl #6
    138c:	9d260500 	cfstr32ls	mvfx0, [r6, #-0]
    1390:	00000000 	andeq	r0, r0, r0
    1394:	00533709 	subseq	r3, r3, r9, lsl #14
    1398:	7d280500 	cfstr32vc	mvfx0, [r8, #-0]
    139c:	04000000 	streq	r0, [r0], #-0
    13a0:	00532409 	subseq	r2, r3, r9, lsl #8
    13a4:	7d2a0500 	cfstr32vc	mvfx0, [sl, #-0]
    13a8:	05000000 	streq	r0, [r0, #-0]
    13ac:	004cf609 	subeq	pc, ip, r9, lsl #12
    13b0:	7d2c0500 	cfstr32vc	mvfx0, [ip, #-0]
    13b4:	06000000 	streq	r0, [r0], -r0
    13b8:	00506d09 	subseq	r6, r0, r9, lsl #26
    13bc:	7d2e0500 	cfstr32vc	mvfx0, [lr, #-0]
    13c0:	07000000 	streq	r0, [r0, -r0]
    13c4:	53430500 	movtpl	r0, #13568	; 0x3500
    13c8:	32050000 	andcc	r0, r5, #0
    13cc:	000000cd 	andeq	r0, r0, sp, asr #1
    13d0:	0058b608 	subseq	fp, r8, r8, lsl #12
    13d4:	1f060400 	svcne	0x00060400
    13d8:	0000013a 	andeq	r0, r0, sl, lsr r1
    13dc:	0058a209 	subseq	sl, r8, r9, lsl #4
    13e0:	5c210600 	stcpl	6, cr0, [r1], #-0
    13e4:	00000001 	andeq	r0, r0, r1
    13e8:	014a0a00 	cmpeq	sl, r0, lsl #20
    13ec:	4a0b0000 	bmi	2c13f4 <SCB_VECTKEYSTAT_INV_MASK+0x2b13f5>
    13f0:	0b000001 	bleq	13fc <SCB_AIRCR_PRIGROUP_MASK+0xcfc>
    13f4:	000000c8 	andeq	r0, r0, r8, asr #1
    13f8:	57040c00 	strpl	r0, [r4, -r0, lsl #24]
    13fc:	04000001 	streq	r0, [r0], #-1
    1400:	07c30801 	strbeq	r0, [r3, r1, lsl #16]
    1404:	50070000 	andpl	r0, r7, r0
    1408:	0c000001 	stceq	0, cr0, [r0], {1}
    140c:	00013a04 	andeq	r3, r1, r4, lsl #20
    1410:	58700500 	ldmdapl	r0!, {r8, sl}^
    1414:	23060000 	movwcs	r0, #24576	; 0x6000
    1418:	00000121 	andeq	r0, r0, r1, lsr #2
    141c:	00585f0d 	subseq	r5, r8, sp, lsl #30
    1420:	70470100 	subvc	r0, r7, r0, lsl #2
    1424:	68080013 	stmdavs	r8, {r0, r1, r4}
    1428:	01000000 	mrseq	r0, (UNDEF: 0)
    142c:	0001919c 	muleq	r1, ip, r1
    1430:	29e10e00 	stmibcs	r1!, {r9, sl, fp}^
    1434:	49010000 	stmdbmi	r1, {}	; <UNPREDICTABLE>
    1438:	0000006b 	andeq	r0, r0, fp, rrx
    143c:	00779102 	rsbseq	r9, r7, r2, lsl #2
    1440:	0058c60f 	subseq	ip, r8, pc, lsl #12
    1444:	f4200100 	vld4.8	{d0,d2,d4,d6}, [r0], r0
    1448:	7c080012 	stcvc	0, cr0, [r8], {18}
    144c:	01000000 	mrseq	r0, (UNDEF: 0)
    1450:	29e10e9c 	stmibcs	r1!, {r2, r3, r4, r7, r9, sl, fp}^
    1454:	22010000 	andcs	r0, r1, #0
    1458:	0000006b 	andeq	r0, r0, fp, rrx
    145c:	0e779102 	expeqs	f1, f2
    1460:	00005852 	andeq	r5, r0, r2, asr r8
    1464:	01162301 	tsteq	r6, r1, lsl #6
    1468:	91020000 	mrsls	r0, (UNDEF: 2)
    146c:	58950e6c 	ldmpl	r5, {r2, r3, r5, r6, r9, sl, fp}
    1470:	24010000 	strcs	r0, [r1], #-0
    1474:	00000162 	andeq	r0, r0, r2, ror #2
    1478:	00689102 	rsbeq	r9, r8, r2, lsl #2
    147c:	0000b000 	andeq	fp, r0, r0
    1480:	1b000400 	blne	2488 <SCB_AIRCR_PRIGROUP_MASK+0x1d88>
    1484:	04000008 	streq	r0, [r0], #-8
    1488:	0015ae01 	andseq	sl, r5, r1, lsl #28
    148c:	58d10c00 	ldmpl	r1, {sl, fp}^
    1490:	581c0000 	ldmdapl	ip, {}	; <UNPREDICTABLE>
    1494:	13d80000 	bicsne	r0, r8, #0
    1498:	00180800 	andseq	r0, r8, r0, lsl #16
    149c:	100f0000 	andne	r0, pc, r0
    14a0:	13a70000 			; <UNDEFINED> instruction: 0x13a70000
    14a4:	01020000 	mrseq	r0, (UNDEF: 2)
    14a8:	0007bc06 	andeq	fp, r7, r6, lsl #24
    14ac:	08010200 	stmdaeq	r1, {r9}
    14b0:	000005c1 	andeq	r0, r0, r1, asr #11
    14b4:	bd050202 	sfmlt	f0, 4, [r5, #-8]
    14b8:	02000009 	andeq	r0, r0, #9
    14bc:	0e8c0702 	cdpeq	7, 8, cr0, cr12, cr2, {0}
    14c0:	04030000 	streq	r0, [r3], #-0
    14c4:	746e6905 	strbtvc	r6, [lr], #-2309	; 0xfffff6fb
    14c8:	2b920400 	blcs	fe4824d0 <FPU_MVFR1_ADDR+0x1e47358c>
    14cc:	31020000 	mrscc	r0, (UNDEF: 2)
    14d0:	00000057 	andeq	r0, r0, r7, asr r0
    14d4:	5e070402 	cdppl	4, 0, cr0, cr7, cr2, {0}
    14d8:	02000015 	andeq	r0, r0, #21
    14dc:	00900508 	addseq	r0, r0, r8, lsl #10
    14e0:	08020000 	stmdaeq	r2, {}	; <UNPREDICTABLE>
    14e4:	00022d07 	andeq	r2, r2, r7, lsl #26
    14e8:	59130400 	ldmdbpl	r3, {sl}
    14ec:	2d030000 	stccs	0, cr0, [r3, #-0]
    14f0:	0000004c 	andeq	r0, r0, ip, asr #32
    14f4:	0058ed05 	subseq	lr, r8, r5, lsl #26
    14f8:	d8030100 	stmdale	r3, {r8}
    14fc:	18080013 	stmdane	r8, {r0, r1, r4}
    1500:	01000000 	mrseq	r0, (UNDEF: 0)
    1504:	58e2069c 	stmiapl	r2!, {r2, r3, r4, r7, r9, sl}^
    1508:	03010000 	movweq	r0, #4096	; 0x1000
    150c:	0000004c 	andeq	r0, r0, ip, asr #32
    1510:	06749102 	ldrbteq	r9, [r4], -r2, lsl #2
    1514:	0000590d 	andeq	r5, r0, sp, lsl #18
    1518:	006c0301 	rsbeq	r0, ip, r1, lsl #6
    151c:	91020000 	mrsls	r0, (UNDEF: 2)
    1520:	591d0670 	ldmdbpl	sp, {r4, r5, r6, r9, sl}
    1524:	03010000 	movweq	r0, #4096	; 0x1000
    1528:	0000006c 	andeq	r0, r0, ip, rrx
    152c:	006c9102 	rsbeq	r9, ip, r2, lsl #2
    1530:	0003be00 	andeq	fp, r3, r0, lsl #28
    1534:	7c000400 	cfstrsvc	mvf0, [r0], {-0}
    1538:	04000008 	streq	r0, [r0], #-8
    153c:	0015ae01 	andseq	sl, r5, r1, lsl #28
    1540:	5a060c00 	bpl	184548 <SCB_VECTKEYSTAT_INV_MASK+0x174549>
    1544:	59520000 	ldmdbpl	r2, {}^	; <UNPREDICTABLE>
    1548:	13f00000 	mvnsne	r0, #0
    154c:	02780800 	rsbseq	r0, r8, #0, 16
    1550:	10b40000 	adcsne	r0, r4, r0
    1554:	13e90000 	mvnne	r0, #0
    1558:	e9020000 	stmdb	r2, {}	; <UNPREDICTABLE>
    155c:	01000039 	tsteq	r0, r9, lsr r0
    1560:	00000064 	andeq	r0, r0, r4, rrx
    1564:	00641e02 	rsbeq	r1, r4, r2, lsl #28
    1568:	2c030000 	stccs	0, cr0, [r3], {-0}
    156c:	00000034 	andeq	r0, r0, r4, lsr r0
    1570:	00295e03 	eoreq	r5, r9, r3, lsl #28
    1574:	46030100 	strmi	r0, [r3], -r0, lsl #2
    1578:	0200002c 	andeq	r0, r0, #44	; 0x2c
    157c:	0041c803 	subeq	ip, r1, r3, lsl #16
    1580:	20030300 	andcs	r0, r3, r0, lsl #6
    1584:	04000044 	streq	r0, [r0], #-68	; 0xffffffbc
    1588:	00268d03 	eoreq	r8, r6, r3, lsl #26
    158c:	9f030500 	svcls	0x00030500
    1590:	0600003a 			; <UNDEFINED> instruction: 0x0600003a
    1594:	08010400 	stmdaeq	r1, {sl}
    1598:	000005c1 	andeq	r0, r0, r1, asr #11
    159c:	00274205 	eoreq	r4, r7, r5, lsl #4
    15a0:	29330200 	ldmdbcs	r3!, {r9}
    15a4:	06000000 	streq	r0, [r0], -r0
    15a8:	0000006b 	andeq	r0, r0, fp, rrx
    15ac:	bc060104 	stflts	f0, [r6], {4}
    15b0:	05000007 	streq	r0, [r0, #-7]
    15b4:	000033c2 	andeq	r3, r0, r2, asr #7
    15b8:	00642103 	rsbeq	r2, r4, r3, lsl #2
    15bc:	02040000 	andeq	r0, r4, #0
    15c0:	0009bd05 	andeq	fp, r9, r5, lsl #26
    15c4:	07020400 	streq	r0, [r2, -r0, lsl #8]
    15c8:	00000e8c 	andeq	r0, r0, ip, lsl #29
    15cc:	69050407 	stmdbvs	r5, {r0, r1, r2, sl}
    15d0:	0500746e 	streq	r7, [r0, #-1134]	; 0xfffffb92
    15d4:	00002b92 	muleq	r0, r2, fp
    15d8:	00ad3103 	adceq	r3, sp, r3, lsl #2
    15dc:	04040000 	streq	r0, [r4], #-0
    15e0:	00155e07 	andseq	r5, r5, r7, lsl #28
    15e4:	05080400 	streq	r0, [r8, #-1024]	; 0xfffffc00
    15e8:	00000090 	muleq	r0, r0, r0
    15ec:	2d070804 	stccs	8, cr0, [r7, #-16]
    15f0:	05000002 	streq	r0, [r0, #-2]
    15f4:	00004c2d 	andeq	r4, r0, sp, lsr #24
    15f8:	00ad2404 	adceq	r2, sp, r4, lsl #8
    15fc:	c2060000 	andgt	r0, r6, #0
    1600:	08000000 	stmdaeq	r0, {}	; <UNPREDICTABLE>
    1604:	000058b6 			; <UNDEFINED> instruction: 0x000058b6
    1608:	eb1f0504 	bl	7c2a20 <FPU_CPACR_CP10+0x4c2a20>
    160c:	09000000 	stmdbeq	r0, {}	; <UNPREDICTABLE>
    1610:	000058a2 	andeq	r5, r0, r2, lsr #17
    1614:	010d2105 	tsteq	sp, r5, lsl #2
    1618:	00000000 	andeq	r0, r0, r0
    161c:	0000fb0a 	andeq	pc, r0, sl, lsl #22
    1620:	00fb0b00 	rscseq	r0, fp, r0, lsl #22
    1624:	cd0b0000 	stcgt	0, cr0, [fp, #-0]
    1628:	00000000 	andeq	r0, r0, r0
    162c:	0108040c 	tsteq	r8, ip, lsl #8
    1630:	01040000 	mrseq	r0, (UNDEF: 4)
    1634:	0007c308 	andeq	ip, r7, r8, lsl #6
    1638:	01010600 	tsteq	r1, r0, lsl #12
    163c:	040c0000 	streq	r0, [ip], #-0
    1640:	000000eb 	andeq	r0, r0, fp, ror #1
    1644:	00587005 	subseq	r7, r8, r5
    1648:	d2230500 	eorle	r0, r3, #0, 10
    164c:	06000000 	streq	r0, [r0], -r0
    1650:	00000113 	andeq	r0, r0, r3, lsl r1
    1654:	0059ea0d 	subseq	lr, r9, sp, lsl #20
    1658:	13190100 	tstne	r9, #0, 2
    165c:	05000001 	streq	r0, [r0, #-1]
    1660:	00000003 	andeq	r0, r0, r3
    1664:	01080e20 	tsteq	r8, r0, lsr #28
    1668:	01440000 	mrseq	r0, (UNDEF: 68)
    166c:	490f0000 	stmdbmi	pc, {}	; <UNPREDICTABLE>
    1670:	0f000001 	svceq	0x00000001
    1674:	01340600 	teqeq	r4, r0, lsl #12
    1678:	04040000 	streq	r0, [r4], #-0
    167c:	003d7e07 	eorseq	r7, sp, r7, lsl #28
    1680:	59ab0d00 	stmibpl	fp!, {r8, sl, fp}
    1684:	1c010000 	stcne	0, cr0, [r1], {-0}
    1688:	00000144 	andeq	r0, r0, r4, asr #2
    168c:	1a780305 	bne	1e022a8 <FPU_ENABLE_CPACR_VALUE+0xf022a8>
    1690:	b50d0800 	strlt	r0, [sp, #-2048]	; 0xfffff800
    1694:	01000059 	qaddeq	r0, r9, r0
    1698:	00008220 	andeq	r8, r0, r0, lsr #4
    169c:	0c030500 	cfstr32eq	mvfx0, [r3], {-0}
    16a0:	10200000 	eorne	r0, r0, r0
    16a4:	0000599a 	muleq	r0, sl, r9
    16a8:	16288a01 	strtne	r8, [r8], -r1, lsl #20
    16ac:	00400800 	subeq	r0, r0, r0, lsl #16
    16b0:	9c010000 	stcls	0, cr0, [r1], {-0}
    16b4:	000001c0 	andeq	r0, r0, r0, asr #3
    16b8:	67736d11 			; <UNDEFINED> instruction: 0x67736d11
    16bc:	fb8a0100 	blx	fe281ac6 <FPU_MVFR1_ADDR+0x1e272b82>
    16c0:	02000000 	andeq	r0, r0, #0
    16c4:	95127491 	ldrls	r7, [r2, #-1169]	; 0xfffffb6f
    16c8:	01000059 	qaddeq	r0, r9, r0
    16cc:	0001c08a 	andeq	ip, r1, sl, lsl #1
    16d0:	70910200 	addsvc	r0, r1, r0, lsl #4
    16d4:	00598b12 	subseq	r8, r9, r2, lsl fp
    16d8:	cd8b0100 	stfgts	f0, [fp]
    16dc:	02000000 	andeq	r0, r0, #0
    16e0:	c1126c91 			; <UNDEFINED> instruction: 0xc1126c91
    16e4:	01000059 	qaddeq	r0, r9, r0
    16e8:	0000768b 	andeq	r7, r0, fp, lsl #13
    16ec:	6b910200 	blvs	fe441ef4 <FPU_MVFR1_ADDR+0x1e432fb0>
    16f0:	c6040c00 	strgt	r0, [r4], -r0, lsl #24
    16f4:	13000001 	movwne	r0, #1
    16f8:	0059d710 	subseq	sp, r9, r0, lsl r7
    16fc:	e87e0100 	ldmda	lr!, {r8}^
    1700:	40080015 	andmi	r0, r8, r5, lsl r0
    1704:	01000000 	mrseq	r0, (UNDEF: 0)
    1708:	0002159c 	muleq	r2, ip, r5
    170c:	736d1100 	cmnvc	sp, #0, 2
    1710:	7e010067 	cdpvc	0, 0, cr0, cr1, cr7, {3}
    1714:	000000fb 	strdeq	r0, [r0], -fp
    1718:	12749102 	rsbsne	r9, r4, #-2147483648	; 0x80000000
    171c:	00005995 	muleq	r0, r5, r9
    1720:	01c07e01 	biceq	r7, r0, r1, lsl #28
    1724:	91020000 	mrsls	r0, (UNDEF: 2)
    1728:	598b1270 	stmibpl	fp, {r4, r5, r6, r9, ip}
    172c:	7f010000 	svcvc	0x00010000
    1730:	000000cd 	andeq	r0, r0, sp, asr #1
    1734:	126c9102 	rsbne	r9, ip, #-2147483648	; 0x80000000
    1738:	000059c1 	andeq	r5, r0, r1, asr #19
    173c:	00767f01 	rsbseq	r7, r6, r1, lsl #30
    1740:	91020000 	mrsls	r0, (UNDEF: 2)
    1744:	c710006b 	ldrgt	r0, [r0, -fp, rrx]
    1748:	01000059 	qaddeq	r0, r9, r0
    174c:	0015a871 	andseq	sl, r5, r1, ror r8
    1750:	00004008 	andeq	r4, r0, r8
    1754:	639c0100 	orrsvs	r0, ip, #0, 2
    1758:	11000002 	tstne	r0, r2
    175c:	0067736d 	rsbeq	r7, r7, sp, ror #6
    1760:	00fb7101 	rscseq	r7, fp, r1, lsl #2
    1764:	91020000 	mrsls	r0, (UNDEF: 2)
    1768:	59951274 	ldmibpl	r5, {r2, r4, r5, r6, r9, ip}
    176c:	71010000 	mrsvc	r0, (UNDEF: 1)
    1770:	000001c0 	andeq	r0, r0, r0, asr #3
    1774:	12709102 	rsbsne	r9, r0, #-2147483648	; 0x80000000
    1778:	0000598b 	andeq	r5, r0, fp, lsl #19
    177c:	00cd7201 	sbceq	r7, sp, r1, lsl #4
    1780:	91020000 	mrsls	r0, (UNDEF: 2)
    1784:	59c1126c 	stmibpl	r1, {r2, r3, r5, r6, r9, ip}^
    1788:	72010000 	andvc	r0, r1, #0
    178c:	00000076 	andeq	r0, r0, r6, ror r0
    1790:	006b9102 	rsbeq	r9, fp, r2, lsl #2
    1794:	0059fa14 	subseq	pc, r9, r4, lsl sl	; <UNPREDICTABLE>
    1798:	6b620100 	blvs	1881ba0 <FPU_ENABLE_CPACR_VALUE+0x981ba0>
    179c:	70000000 	andvc	r0, r0, r0
    17a0:	38080015 	stmdacc	r8, {r0, r2, r4}
    17a4:	01000000 	mrseq	r0, (UNDEF: 0)
    17a8:	00028b9c 	muleq	r2, ip, fp
    17ac:	58991200 	ldmpl	r9, {r9, ip}
    17b0:	62010000 	andvs	r0, r1, #0
    17b4:	0000028b 	andeq	r0, r0, fp, lsl #5
    17b8:	00749102 	rsbseq	r9, r4, r2, lsl #2
    17bc:	011e040c 	tsteq	lr, ip, lsl #8
    17c0:	27150000 	ldrcs	r0, [r5, -r0]
    17c4:	01000059 	qaddeq	r0, r9, r0
    17c8:	0014b646 	andseq	fp, r4, r6, asr #12
    17cc:	0000ba08 	andeq	fp, r0, r8, lsl #20
    17d0:	f99c0100 			; <UNDEFINED> instruction: 0xf99c0100
    17d4:	11000002 	tstne	r0, r2
    17d8:	0067736d 	rsbeq	r7, r7, sp, ror #6
    17dc:	00fb4601 	rscseq	r4, fp, r1, lsl #12
    17e0:	91020000 	mrsls	r0, (UNDEF: 2)
    17e4:	59951264 	ldmibpl	r5, {r2, r5, r6, r9, ip}
    17e8:	46010000 	strmi	r0, [r1], -r0
    17ec:	000001c0 	andeq	r0, r0, r0, asr #3
    17f0:	12609102 	rsbne	r9, r0, #-2147483648	; 0x80000000
    17f4:	0000598b 	andeq	r5, r0, fp, lsl #19
    17f8:	00cd4701 	sbceq	r4, sp, r1, lsl #14
    17fc:	91020000 	mrsls	r0, (UNDEF: 2)
    1800:	59c1125c 	stmibpl	r1, {r2, r3, r4, r6, r9, ip}^
    1804:	47010000 	strmi	r0, [r1, -r0]
    1808:	00000076 	andeq	r0, r0, r6, ror r0
    180c:	165b9102 	ldrbne	r9, [fp], -r2, lsl #2
    1810:	49010069 	stmdbmi	r1, {r0, r3, r5, r6}
    1814:	000000c2 	andeq	r0, r0, r2, asr #1
    1818:	166c9102 	strbtne	r9, [ip], -r2, lsl #2
    181c:	00667562 	rsbeq	r7, r6, r2, ror #10
    1820:	02f94a01 	rscseq	r4, r9, #4096	; 0x1000
    1824:	91020000 	mrsls	r0, (UNDEF: 2)
    1828:	010e0068 	tsteq	lr, r8, rrx
    182c:	09000001 	stmdbeq	r0, {r0}
    1830:	0f000003 	svceq	0x00000003
    1834:	00000149 	andeq	r0, r0, r9, asr #2
    1838:	3f170003 	svccc	0x00170003
    183c:	01000059 	qaddeq	r0, r9, r0
    1840:	0000c23b 	andeq	ip, r0, fp, lsr r2
    1844:	00148800 	andseq	r8, r4, r0, lsl #16
    1848:	00002e08 	andeq	r2, r0, r8, lsl #28
    184c:	3f9c0100 	svccc	0x009c0100
    1850:	11000003 	tstne	r0, r3
    1854:	00727473 	rsbseq	r7, r2, r3, ror r4
    1858:	00fb3b01 	rscseq	r3, fp, r1, lsl #22
    185c:	91020000 	mrsls	r0, (UNDEF: 2)
    1860:	5990186c 	ldmibpl	r0, {r2, r3, r5, r6, fp, ip}
    1864:	3d010000 	stccc	0, cr0, [r1, #-0]
    1868:	000000c2 	andeq	r0, r0, r2, asr #1
    186c:	00749102 	rsbseq	r9, r4, r2, lsl #2
    1870:	00593219 	subseq	r3, r9, r9, lsl r2
    1874:	242c0100 	strtcs	r0, [ip], #-256	; 0xffffff00
    1878:	64080014 	strvs	r0, [r8], #-20	; 0xffffffec
    187c:	01000000 	mrseq	r0, (UNDEF: 0)
    1880:	00038d9c 	muleq	r3, ip, sp
    1884:	59861200 	stmibpl	r6, {r9, ip}
    1888:	2c010000 	stccs	0, cr0, [r1], {-0}
    188c:	0000038d 	andeq	r0, r0, sp, lsl #7
    1890:	126c9102 	rsbne	r9, ip, #-2147483648	; 0x80000000
    1894:	000059c1 	andeq	r5, r0, r1, asr #19
    1898:	00762c01 	rsbseq	r2, r6, r1, lsl #24
    189c:	91020000 	mrsls	r0, (UNDEF: 2)
    18a0:	6176166b 	cmnvs	r6, fp, ror #12
    18a4:	2e01006c 	cdpcs	0, 0, cr0, cr1, cr12, {3}
    18a8:	000000a2 	andeq	r0, r0, r2, lsr #1
    18ac:	18709102 	ldmdane	r0!, {r1, r8, ip, pc}^
    18b0:	00005990 	muleq	r0, r0, r9
    18b4:	00a22f01 	adceq	r2, r2, r1, lsl #30
    18b8:	91020000 	mrsls	r0, (UNDEF: 2)
    18bc:	040c0074 	streq	r0, [ip], #-116	; 0xffffff8c
    18c0:	00000101 	andeq	r0, r0, r1, lsl #2
    18c4:	0059461a 	subseq	r4, r9, sl, lsl r6
    18c8:	f0260100 			; <UNDEFINED> instruction: 0xf0260100
    18cc:	34080013 	strcc	r0, [r8], #-19	; 0xffffffed
    18d0:	01000000 	mrseq	r0, (UNDEF: 0)
    18d4:	5986129c 	stmibpl	r6, {r2, r3, r4, r7, r9, ip}
    18d8:	26010000 	strcs	r0, [r1], -r0
    18dc:	0000038d 	andeq	r0, r0, sp, lsl #7
    18e0:	11749102 	cmnne	r4, r2, lsl #2
    18e4:	006c6176 	rsbeq	r6, ip, r6, ror r1
    18e8:	01082601 	tsteq	r8, r1, lsl #12
    18ec:	91020000 	mrsls	r0, (UNDEF: 2)
    18f0:	Address 0x00000000000018f0 is out of bounds.


Disassembly of section .debug_abbrev:

00000000 <.debug_abbrev>:
   0:	25011101 	strcs	r1, [r1, #-257]	; 0xfffffeff
   4:	030b130e 	movweq	r1, #45838	; 0xb30e
   8:	110e1b0e 	tstne	lr, lr, lsl #22
   c:	10061201 	andne	r1, r6, r1, lsl #4
  10:	17429917 	smlaldne	r9, r2, r7, r9
  14:	2e020000 	cdpcs	0, 0, cr0, cr2, cr0, {0}
  18:	03193f00 	tsteq	r9, #0, 30
  1c:	3b0b3a0e 	blcc	2ce85c <SCB_VECTKEYSTAT_INV_MASK+0x2be85d>
  20:	4919270b 	ldmdbmi	r9, {r0, r1, r3, r8, r9, sl, sp}
  24:	12011113 	andne	r1, r1, #-1073741820	; 0xc0000004
  28:	97184006 	ldrls	r4, [r8, -r6]
  2c:	00001942 	andeq	r1, r0, r2, asr #18
  30:	0b002403 	bleq	9044 <SCB_AIRCR_PRIGROUP_MASK+0x8944>
  34:	030b3e0b 	movweq	r3, #48651	; 0xbe0b
  38:	00000008 	andeq	r0, r0, r8
  3c:	10001101 	andne	r1, r0, r1, lsl #2
  40:	12011106 	andne	r1, r1, #-2147483647	; 0x80000001
  44:	1b080301 	blne	200c50 <SCB_VECTKEYSTAT_INV_MASK+0x1f0c51>
  48:	13082508 	movwne	r2, #34056	; 0x8508
  4c:	00000005 	andeq	r0, r0, r5
  50:	10001101 	andne	r1, r0, r1, lsl #2
  54:	12011106 	andne	r1, r1, #-2147483647	; 0x80000001
  58:	1b080301 	blne	200c64 <SCB_VECTKEYSTAT_INV_MASK+0x1f0c65>
  5c:	13082508 	movwne	r2, #34056	; 0x8508
  60:	00000005 	andeq	r0, r0, r5
  64:	25011101 	strcs	r1, [r1, #-257]	; 0xfffffeff
  68:	030b130e 	movweq	r1, #45838	; 0xb30e
  6c:	110e1b0e 	tstne	lr, lr, lsl #22
  70:	10061201 	andne	r1, r6, r1, lsl #4
  74:	17429917 	smlaldne	r9, r2, r7, r9
  78:	04020000 	streq	r0, [r2], #-0
  7c:	0b0e0301 	bleq	380c88 <FPU_CPACR_CP10+0x80c88>
  80:	3a13490b 	bcc	4d24b4 <FPU_CPACR_CP10+0x1d24b4>
  84:	010b3b0b 	tsteq	fp, fp, lsl #22
  88:	03000013 	movweq	r0, #19
  8c:	0e030028 	cdpeq	0, 0, cr0, cr3, cr8, {1}
  90:	00000b1c 	andeq	r0, r0, ip, lsl fp
  94:	0b002404 	bleq	90ac <SCB_AIRCR_PRIGROUP_MASK+0x89ac>
  98:	030b3e0b 	movweq	r3, #48651	; 0xbe0b
  9c:	0500000e 	streq	r0, [r0, #-14]
  a0:	0e030016 	mcreq	0, 0, r0, cr3, cr6, {0}
  a4:	0b3b0b3a 	bleq	ec2d94 <FPU_CPACR_CP11+0x2c2d94>
  a8:	00001349 	andeq	r1, r0, r9, asr #6
  ac:	49002606 	stmdbmi	r0, {r1, r2, r9, sl, sp}
  b0:	07000013 	smladeq	r0, r3, r0, r0
  b4:	0b0b0024 	bleq	2c014c <SCB_VECTKEYSTAT_INV_MASK+0x2b014d>
  b8:	08030b3e 	stmdaeq	r3, {r1, r2, r3, r4, r5, r8, r9, fp}
  bc:	28080000 	stmdacs	r8, {}	; <UNPREDICTABLE>
  c0:	1c0e0300 	stcne	3, cr0, [lr], {-0}
  c4:	09000005 	stmdbeq	r0, {r0, r2}
  c8:	0e030034 	mcreq	0, 0, r0, cr3, cr4, {1}
  cc:	0b3b0b3a 	bleq	ec2dbc <FPU_CPACR_CP11+0x2c2dbc>
  d0:	18021349 	stmdane	r2, {r0, r3, r6, r8, r9, ip}
  d4:	010a0000 	mrseq	r0, (UNDEF: 10)
  d8:	01134901 	tsteq	r3, r1, lsl #18
  dc:	0b000013 	bleq	130 <FPU_FPCCR_MONRDY+0x30>
  e0:	13490021 	movtne	r0, #36897	; 0x9021
  e4:	00000b2f 	andeq	r0, r0, pc, lsr #22
  e8:	3f012e0c 	svccc	0x00012e0c
  ec:	3a0e0319 	bcc	380d58 <FPU_CPACR_CP10+0x80d58>
  f0:	27053b0b 	strcs	r3, [r5, -fp, lsl #22]
  f4:	11134919 	tstne	r3, r9, lsl r9
  f8:	40061201 	andmi	r1, r6, r1, lsl #4
  fc:	19429618 	stmdbne	r2, {r3, r4, r9, sl, ip, pc}^
 100:	00001301 	andeq	r1, r0, r1, lsl #6
 104:	0300050d 	movweq	r0, #1293	; 0x50d
 108:	3b0b3a0e 	blcc	2ce948 <SCB_VECTKEYSTAT_INV_MASK+0x2be949>
 10c:	02134905 	andseq	r4, r3, #81920	; 0x14000
 110:	0e000018 	mcreq	0, 0, r0, cr0, cr8, {0}
 114:	0b0b000f 	bleq	2c0158 <SCB_VECTKEYSTAT_INV_MASK+0x2b0159>
 118:	00001349 	andeq	r1, r0, r9, asr #6
 11c:	0300340f 	movweq	r3, #1039	; 0x40f
 120:	3b0b3a0e 	blcc	2ce960 <SCB_VECTKEYSTAT_INV_MASK+0x2be961>
 124:	02134905 	andseq	r4, r3, #81920	; 0x14000
 128:	10000018 	andne	r0, r0, r8, lsl r0
 12c:	193f012e 	ldmdbne	pc!, {r1, r2, r3, r5, r8}	; <UNPREDICTABLE>
 130:	0b3a0e03 	bleq	e83944 <FPU_CPACR_CP11+0x283944>
 134:	19270b3b 	stmdbne	r7!, {r0, r1, r3, r4, r5, r8, r9, fp}
 138:	01111349 	tsteq	r1, r9, asr #6
 13c:	18400612 	stmdane	r0, {r1, r4, r9, sl}^
 140:	01194296 			; <UNDEFINED> instruction: 0x01194296
 144:	11000013 	tstne	r0, r3, lsl r0
 148:	0e030005 	cdpeq	0, 0, cr0, cr3, cr5, {0}
 14c:	0b3b0b3a 	bleq	ec2e3c <FPU_CPACR_CP11+0x2c2e3c>
 150:	18021349 	stmdane	r2, {r0, r3, r6, r8, r9, ip}
 154:	2e120000 	cdpcs	0, 1, cr0, cr2, cr0, {0}
 158:	3a0e0301 	bcc	380d64 <FPU_CPACR_CP10+0x80d64>
 15c:	270b3b0b 	strcs	r3, [fp, -fp, lsl #22]
 160:	11134919 	tstne	r3, r9, lsl r9
 164:	40061201 	andmi	r1, r6, r1, lsl #4
 168:	19429718 	stmdbne	r2, {r3, r4, r8, r9, sl, ip, pc}^
 16c:	00001301 	andeq	r1, r0, r1, lsl #6
 170:	3f002e13 	svccc	0x00002e13
 174:	3a0e0319 	bcc	380de0 <FPU_CPACR_CP10+0x80de0>
 178:	270b3b0b 	strcs	r3, [fp, -fp, lsl #22]
 17c:	12011119 	andne	r1, r1, #1073741830	; 0x40000006
 180:	97184006 	ldrls	r4, [r8, -r6]
 184:	00001942 	andeq	r1, r0, r2, asr #18
 188:	01110100 	tsteq	r1, r0, lsl #2
 18c:	0b130e25 	bleq	4c3a28 <FPU_CPACR_CP10+0x1c3a28>
 190:	0e1b0e03 	cdpeq	14, 1, cr0, cr11, cr3, {0}
 194:	06120111 			; <UNDEFINED> instruction: 0x06120111
 198:	42991710 	addsmi	r1, r9, #16, 14	; 0x400000
 19c:	02000017 	andeq	r0, r0, #23
 1a0:	0e030104 	adfeqs	f0, f3, f4
 1a4:	13490b0b 	movtne	r0, #39691	; 0x9b0b
 1a8:	0b3b0b3a 	bleq	ec2e98 <FPU_CPACR_CP11+0x2c2e98>
 1ac:	00001301 	andeq	r1, r0, r1, lsl #6
 1b0:	03002803 	movweq	r2, #2051	; 0x803
 1b4:	000b1c0e 	andeq	r1, fp, lr, lsl #24
 1b8:	00240400 	eoreq	r0, r4, r0, lsl #8
 1bc:	0b3e0b0b 	bleq	f82df0 <FPU_ENABLE_CPACR_VALUE+0x82df0>
 1c0:	00000e03 	andeq	r0, r0, r3, lsl #28
 1c4:	03001605 	movweq	r1, #1541	; 0x605
 1c8:	3b0b3a0e 	blcc	2cea08 <SCB_VECTKEYSTAT_INV_MASK+0x2bea09>
 1cc:	0013490b 	andseq	r4, r3, fp, lsl #18
 1d0:	00240600 	eoreq	r0, r4, r0, lsl #12
 1d4:	0b3e0b0b 	bleq	f82e08 <FPU_ENABLE_CPACR_VALUE+0x82e08>
 1d8:	00000803 	andeq	r0, r0, r3, lsl #16
 1dc:	49002607 	stmdbmi	r0, {r0, r1, r2, r9, sl, sp}
 1e0:	08000013 	stmdaeq	r0, {r0, r1, r4}
 1e4:	193f012e 	ldmdbne	pc!, {r1, r2, r3, r5, r8}	; <UNPREDICTABLE>
 1e8:	0b3a0e03 	bleq	e839fc <FPU_CPACR_CP11+0x2839fc>
 1ec:	19270b3b 	stmdbne	r7!, {r0, r1, r3, r4, r5, r8, r9, fp}
 1f0:	01111349 	tsteq	r1, r9, asr #6
 1f4:	18400612 	stmdane	r0, {r1, r4, r9, sl}^
 1f8:	01194296 			; <UNDEFINED> instruction: 0x01194296
 1fc:	09000013 	stmdbeq	r0, {r0, r1, r4}
 200:	0e030005 	cdpeq	0, 0, cr0, cr3, cr5, {0}
 204:	0b3b0b3a 	bleq	ec2ef4 <FPU_CPACR_CP11+0x2c2ef4>
 208:	18021349 	stmdane	r2, {r0, r3, r6, r8, r9, ip}
 20c:	2e0a0000 	cdpcs	0, 0, cr0, cr10, cr0, {0}
 210:	03193f00 	tsteq	r9, #0, 30
 214:	3b0b3a0e 	blcc	2cea54 <SCB_VECTKEYSTAT_INV_MASK+0x2bea55>
 218:	1119270b 	tstne	r9, fp, lsl #14
 21c:	40061201 	andmi	r1, r6, r1, lsl #4
 220:	19429618 	stmdbne	r2, {r3, r4, r9, sl, ip, pc}^
 224:	01000000 	mrseq	r0, (UNDEF: 0)
 228:	0e250111 	mcreq	1, 1, r0, cr5, cr1, {0}
 22c:	0e030b13 	vmoveq.32	d3[0], r0
 230:	01110e1b 	tsteq	r1, fp, lsl lr
 234:	17100612 			; <UNDEFINED> instruction: 0x17100612
 238:	00174299 	mulseq	r7, r9, r2
 23c:	01040200 	mrseq	r0, R12_usr
 240:	0b0b0e03 	bleq	2c3a54 <SCB_VECTKEYSTAT_INV_MASK+0x2b3a55>
 244:	0b3a1349 	bleq	e84f70 <FPU_CPACR_CP11+0x284f70>
 248:	13010b3b 	movwne	r0, #6971	; 0x1b3b
 24c:	28030000 	stmdacs	r3, {}	; <UNPREDICTABLE>
 250:	1c0e0300 	stcne	3, cr0, [lr], {-0}
 254:	0400000b 	streq	r0, [r0], #-11
 258:	0b0b0024 	bleq	2c02f0 <SCB_VECTKEYSTAT_INV_MASK+0x2b02f1>
 25c:	0e030b3e 	vmoveq.16	d3[0], r0
 260:	16050000 	strne	r0, [r5], -r0
 264:	3a0e0300 	bcc	380e6c <FPU_CPACR_CP10+0x80e6c>
 268:	490b3b0b 	stmdbmi	fp, {r0, r1, r3, r8, r9, fp, ip, sp}
 26c:	06000013 			; <UNDEFINED> instruction: 0x06000013
 270:	0b0b0024 	bleq	2c0308 <SCB_VECTKEYSTAT_INV_MASK+0x2b0309>
 274:	08030b3e 	stmdaeq	r3, {r1, r2, r3, r4, r5, r8, r9, fp}
 278:	35070000 	strcc	r0, [r7, #-0]
 27c:	00134900 	andseq	r4, r3, r0, lsl #18
 280:	00260800 	eoreq	r0, r6, r0, lsl #16
 284:	00001349 	andeq	r1, r0, r9, asr #6
 288:	03011309 	movweq	r1, #4873	; 0x1309
 28c:	3a0b0b0e 	bcc	2c2ecc <SCB_VECTKEYSTAT_INV_MASK+0x2b2ecd>
 290:	010b3b0b 	tsteq	fp, fp, lsl #22
 294:	0a000013 	beq	2e8 <FPU_FPCCR_MONRDY+0x1e8>
 298:	0e03000d 	cdpeq	0, 0, cr0, cr3, cr13, {0}
 29c:	0b3b0b3a 	bleq	ec2f8c <FPU_CPACR_CP11+0x2c2f8c>
 2a0:	0b381349 	bleq	e04fcc <FPU_CPACR_CP11+0x204fcc>
 2a4:	2e0b0000 	cdpcs	0, 0, cr0, cr11, cr0, {0}
 2a8:	03193f01 	tsteq	r9, #1, 30
 2ac:	3b0b3a0e 	blcc	2ceaec <SCB_VECTKEYSTAT_INV_MASK+0x2beaed>
 2b0:	4919270b 	ldmdbmi	r9, {r0, r1, r3, r8, r9, sl, sp}
 2b4:	12011113 	andne	r1, r1, #-1073741820	; 0xc0000004
 2b8:	96184006 	ldrls	r4, [r8], -r6
 2bc:	13011942 	movwne	r1, #6466	; 0x1942
 2c0:	050c0000 	streq	r0, [ip, #-0]
 2c4:	3a0e0300 	bcc	380ecc <FPU_CPACR_CP10+0x80ecc>
 2c8:	490b3b0b 	stmdbmi	fp, {r0, r1, r3, r8, r9, fp, ip, sp}
 2cc:	00180213 	andseq	r0, r8, r3, lsl r2
 2d0:	00340d00 	eorseq	r0, r4, r0, lsl #26
 2d4:	0b3a0e03 	bleq	e83ae8 <FPU_CPACR_CP11+0x283ae8>
 2d8:	13490b3b 	movtne	r0, #39739	; 0x9b3b
 2dc:	00001802 	andeq	r1, r0, r2, lsl #16
 2e0:	0300340e 	movweq	r3, #1038	; 0x40e
 2e4:	3b0b3a08 	blcc	2ceb0c <SCB_VECTKEYSTAT_INV_MASK+0x2beb0d>
 2e8:	0213490b 	andseq	r4, r3, #180224	; 0x2c000
 2ec:	0f000018 	svceq	0x00000018
 2f0:	0111010b 	tsteq	r1, fp, lsl #2
 2f4:	00000612 	andeq	r0, r0, r2, lsl r6
 2f8:	0b000f10 	bleq	3f40 <SCB_AIRCR_PRIGROUP_MASK+0x3840>
 2fc:	0013490b 	andseq	r4, r3, fp, lsl #18
 300:	11010000 	mrsne	r0, (UNDEF: 1)
 304:	11061000 	mrsne	r1, (UNDEF: 6)
 308:	03011201 	movweq	r1, #4609	; 0x1201
 30c:	25081b08 	strcs	r1, [r8, #-2824]	; 0xfffff4f8
 310:	00051308 	andeq	r1, r5, r8, lsl #6
 314:	11010000 	mrsne	r0, (UNDEF: 1)
 318:	130e2501 	movwne	r2, #58625	; 0xe501
 31c:	1b0e030b 	blne	380f50 <FPU_CPACR_CP10+0x80f50>
 320:	1201110e 	andne	r1, r1, #-2147483645	; 0x80000003
 324:	99171006 	ldmdbls	r7, {r1, r2, ip}
 328:	00001742 	andeq	r1, r0, r2, asr #14
 32c:	0b002402 	bleq	933c <SCB_AIRCR_PRIGROUP_MASK+0x8c3c>
 330:	030b3e0b 	movweq	r3, #48651	; 0xbe0b
 334:	0300000e 	movweq	r0, #14
 338:	0b0b0024 	bleq	2c03d0 <SCB_VECTKEYSTAT_INV_MASK+0x2b03d1>
 33c:	08030b3e 	stmdaeq	r3, {r1, r2, r3, r4, r5, r8, r9, fp}
 340:	16040000 	strne	r0, [r4], -r0
 344:	3a0e0300 	bcc	380f4c <FPU_CPACR_CP10+0x80f4c>
 348:	490b3b0b 	stmdbmi	fp, {r0, r1, r3, r8, r9, fp, ip, sp}
 34c:	05000013 	streq	r0, [r0, #-19]	; 0xffffffed
 350:	13490026 	movtne	r0, #36902	; 0x9026
 354:	2e060000 	cdpcs	0, 0, cr0, cr6, cr0, {0}
 358:	03193f01 	tsteq	r9, #1, 30
 35c:	3b0b3a0e 	blcc	2ceb9c <SCB_VECTKEYSTAT_INV_MASK+0x2beb9d>
 360:	1119270b 	tstne	r9, fp, lsl #14
 364:	40061201 	andmi	r1, r6, r1, lsl #4
 368:	19429618 	stmdbne	r2, {r3, r4, r9, sl, ip, pc}^
 36c:	00001301 	andeq	r1, r0, r1, lsl #6
 370:	03000507 	movweq	r0, #1287	; 0x507
 374:	3b0b3a08 	blcc	2ceb9c <SCB_VECTKEYSTAT_INV_MASK+0x2beb9d>
 378:	0213490b 	andseq	r4, r3, #180224	; 0x2c000
 37c:	08000018 	stmdaeq	r0, {r3, r4}
 380:	0e030005 	cdpeq	0, 0, cr0, cr3, cr5, {0}
 384:	0b3b0b3a 	bleq	ec3074 <FPU_CPACR_CP11+0x2c3074>
 388:	18021349 	stmdane	r2, {r0, r3, r6, r8, r9, ip}
 38c:	0f090000 	svceq	0x00090000
 390:	490b0b00 	stmdbmi	fp, {r8, r9, fp}
 394:	00000013 	andeq	r0, r0, r3, lsl r0
 398:	25011101 	strcs	r1, [r1, #-257]	; 0xfffffeff
 39c:	030b130e 	movweq	r1, #45838	; 0xb30e
 3a0:	110e1b0e 	tstne	lr, lr, lsl #22
 3a4:	10061201 	andne	r1, r6, r1, lsl #4
 3a8:	17429917 	smlaldne	r9, r2, r7, r9
 3ac:	04020000 	streq	r0, [r2], #-0
 3b0:	0b0e0301 	bleq	380fbc <FPU_CPACR_CP10+0x80fbc>
 3b4:	3a13490b 	bcc	4d27e8 <FPU_CPACR_CP10+0x1d27e8>
 3b8:	010b3b0b 	tsteq	fp, fp, lsl #22
 3bc:	03000013 	movweq	r0, #19
 3c0:	0e030028 	cdpeq	0, 0, cr0, cr3, cr8, {1}
 3c4:	00000b1c 	andeq	r0, r0, ip, lsl fp
 3c8:	0b002404 	bleq	93e0 <SCB_AIRCR_PRIGROUP_MASK+0x8ce0>
 3cc:	030b3e0b 	movweq	r3, #48651	; 0xbe0b
 3d0:	0500000e 	streq	r0, [r0, #-14]
 3d4:	0e030016 	mcreq	0, 0, r0, cr3, cr6, {0}
 3d8:	0b3b0b3a 	bleq	ec30c8 <FPU_CPACR_CP11+0x2c30c8>
 3dc:	00001349 	andeq	r1, r0, r9, asr #6
 3e0:	0b002406 	bleq	9400 <SCB_AIRCR_PRIGROUP_MASK+0x8d00>
 3e4:	030b3e0b 	movweq	r3, #48651	; 0xbe0b
 3e8:	07000008 	streq	r0, [r0, -r8]
 3ec:	0e030028 	cdpeq	0, 0, cr0, cr3, cr8, {1}
 3f0:	0000051c 	andeq	r0, r0, ip, lsl r5
 3f4:	49002608 	stmdbmi	r0, {r3, r9, sl, sp}
 3f8:	09000013 	stmdbeq	r0, {r0, r1, r4}
 3fc:	193f012e 	ldmdbne	pc!, {r1, r2, r3, r5, r8}	; <UNPREDICTABLE>
 400:	0b3a0e03 	bleq	e83c14 <FPU_CPACR_CP11+0x283c14>
 404:	19270b3b 	stmdbne	r7!, {r0, r1, r3, r4, r5, r8, r9, fp}
 408:	01111349 	tsteq	r1, r9, asr #6
 40c:	18400612 	stmdane	r0, {r1, r4, r9, sl}^
 410:	00194296 	mulseq	r9, r6, r2
 414:	00050a00 	andeq	r0, r5, r0, lsl #20
 418:	0b3a0e03 	bleq	e83c2c <FPU_CPACR_CP11+0x283c2c>
 41c:	13490b3b 	movtne	r0, #39739	; 0x9b3b
 420:	00001802 	andeq	r1, r0, r2, lsl #16
 424:	01110100 	tsteq	r1, r0, lsl #2
 428:	0b130e25 	bleq	4c3cc4 <FPU_CPACR_CP10+0x1c3cc4>
 42c:	0e1b0e03 	cdpeq	14, 1, cr0, cr11, cr3, {0}
 430:	06120111 			; <UNDEFINED> instruction: 0x06120111
 434:	42991710 	addsmi	r1, r9, #16, 14	; 0x400000
 438:	02000017 	andeq	r0, r0, #23
 43c:	0e030104 	adfeqs	f0, f3, f4
 440:	13490b0b 	movtne	r0, #39691	; 0x9b0b
 444:	0b3b0b3a 	bleq	ec3134 <FPU_CPACR_CP11+0x2c3134>
 448:	00001301 	andeq	r1, r0, r1, lsl #6
 44c:	03002803 	movweq	r2, #2051	; 0x803
 450:	000b1c0e 	andeq	r1, fp, lr, lsl #24
 454:	00240400 	eoreq	r0, r4, r0, lsl #8
 458:	0b3e0b0b 	bleq	f8308c <FPU_ENABLE_CPACR_VALUE+0x8308c>
 45c:	00000e03 	andeq	r0, r0, r3, lsl #28
 460:	03001605 	movweq	r1, #1541	; 0x605
 464:	3b0b3a0e 	blcc	2ceca4 <SCB_VECTKEYSTAT_INV_MASK+0x2beca5>
 468:	0013490b 	andseq	r4, r3, fp, lsl #18
 46c:	00260600 	eoreq	r0, r6, r0, lsl #12
 470:	00001349 	andeq	r1, r0, r9, asr #6
 474:	0b002407 	bleq	9498 <SCB_AIRCR_PRIGROUP_MASK+0x8d98>
 478:	030b3e0b 	movweq	r3, #48651	; 0xbe0b
 47c:	08000008 	stmdaeq	r0, {r3}
 480:	13490035 	movtne	r0, #36917	; 0x9035
 484:	13090000 	movwne	r0, #36864	; 0x9000
 488:	0b0e0301 	bleq	381094 <FPU_CPACR_CP10+0x81094>
 48c:	3b0b3a0b 	blcc	2cecc0 <SCB_VECTKEYSTAT_INV_MASK+0x2becc1>
 490:	0013010b 	andseq	r0, r3, fp, lsl #2
 494:	000d0a00 	andeq	r0, sp, r0, lsl #20
 498:	0b3a0e03 	bleq	e83cac <FPU_CPACR_CP11+0x283cac>
 49c:	13490b3b 	movtne	r0, #39739	; 0x9b3b
 4a0:	00000b38 	andeq	r0, r0, r8, lsr fp
 4a4:	0b000f0b 	bleq	40d8 <SCB_AIRCR_PRIGROUP_MASK+0x39d8>
 4a8:	0013490b 	andseq	r4, r3, fp, lsl #18
 4ac:	00340c00 	eorseq	r0, r4, r0, lsl #24
 4b0:	0b3a0e03 	bleq	e83cc4 <FPU_CPACR_CP11+0x283cc4>
 4b4:	13490b3b 	movtne	r0, #39739	; 0x9b3b
 4b8:	1802193f 	stmdane	r2, {r0, r1, r2, r3, r4, r5, r8, fp, ip}
 4bc:	2e0d0000 	cdpcs	0, 0, cr0, cr13, cr0, {0}
 4c0:	03193f01 	tsteq	r9, #1, 30
 4c4:	3b0b3a0e 	blcc	2ced04 <SCB_VECTKEYSTAT_INV_MASK+0x2bed05>
 4c8:	49192705 	ldmdbmi	r9, {r0, r2, r8, r9, sl, sp}
 4cc:	12011113 	andne	r1, r1, #-1073741820	; 0xc0000004
 4d0:	97184006 	ldrls	r4, [r8, -r6]
 4d4:	13011942 	movwne	r1, #6466	; 0x1942
 4d8:	050e0000 	streq	r0, [lr, #-0]
 4dc:	3a080300 	bcc	2010e4 <SCB_VECTKEYSTAT_INV_MASK+0x1f10e5>
 4e0:	49053b0b 	stmdbmi	r5, {r0, r1, r3, r8, r9, fp, ip, sp}
 4e4:	00180213 	andseq	r0, r8, r3, lsl r2
 4e8:	00050f00 	andeq	r0, r5, r0, lsl #30
 4ec:	0b3a0e03 	bleq	e83d00 <FPU_CPACR_CP11+0x283d00>
 4f0:	1349053b 	movtne	r0, #38203	; 0x953b
 4f4:	00001802 	andeq	r1, r0, r2, lsl #16
 4f8:	03003410 	movweq	r3, #1040	; 0x410
 4fc:	3b0b3a08 	blcc	2ced24 <SCB_VECTKEYSTAT_INV_MASK+0x2bed25>
 500:	02134905 	andseq	r4, r3, #81920	; 0x14000
 504:	11000018 	tstne	r0, r8, lsl r0
 508:	193f012e 	ldmdbne	pc!, {r1, r2, r3, r5, r8}	; <UNPREDICTABLE>
 50c:	0b3a0e03 	bleq	e83d20 <FPU_CPACR_CP11+0x283d20>
 510:	1927053b 	stmdbne	r7!, {r0, r1, r3, r4, r5, r8, sl}
 514:	01111349 	tsteq	r1, r9, asr #6
 518:	18400612 	stmdane	r0, {r1, r4, r9, sl}^
 51c:	01194296 			; <UNDEFINED> instruction: 0x01194296
 520:	12000013 	andne	r0, r0, #19
 524:	0e030034 	mcreq	0, 0, r0, cr3, cr4, {1}
 528:	053b0b3a 	ldreq	r0, [fp, #-2874]!	; 0xfffff4c6
 52c:	18021349 	stmdane	r2, {r0, r3, r6, r8, r9, ip}
 530:	2e130000 	cdpcs	0, 1, cr0, cr3, cr0, {0}
 534:	03193f01 	tsteq	r9, #1, 30
 538:	3b0b3a0e 	blcc	2ced78 <SCB_VECTKEYSTAT_INV_MASK+0x2bed79>
 53c:	11192705 	tstne	r9, r5, lsl #14
 540:	40061201 	andmi	r1, r6, r1, lsl #4
 544:	19429718 	stmdbne	r2, {r3, r4, r8, r9, sl, ip, pc}^
 548:	00001301 	andeq	r1, r0, r1, lsl #6
 54c:	3f012e14 	svccc	0x00012e14
 550:	3a0e0319 	bcc	3811bc <FPU_CPACR_CP10+0x811bc>
 554:	270b3b0b 	strcs	r3, [fp, -fp, lsl #22]
 558:	12011119 	andne	r1, r1, #1073741830	; 0x40000006
 55c:	96184006 	ldrls	r4, [r8], -r6
 560:	13011942 	movwne	r1, #6466	; 0x1942
 564:	05150000 	ldreq	r0, [r5, #-0]
 568:	3a0e0300 	bcc	381170 <FPU_CPACR_CP10+0x81170>
 56c:	490b3b0b 	stmdbmi	fp, {r0, r1, r3, r8, r9, fp, ip, sp}
 570:	00180213 	andseq	r0, r8, r3, lsl r2
 574:	00341600 	eorseq	r1, r4, r0, lsl #12
 578:	0b3a0803 	bleq	e8258c <FPU_CPACR_CP11+0x28258c>
 57c:	13490b3b 	movtne	r0, #39739	; 0x9b3b
 580:	00001802 	andeq	r1, r0, r2, lsl #16
 584:	03003417 	movweq	r3, #1047	; 0x417
 588:	3b0b3a0e 	blcc	2cedc8 <SCB_VECTKEYSTAT_INV_MASK+0x2bedc9>
 58c:	0213490b 	andseq	r4, r3, #180224	; 0x2c000
 590:	00000018 	andeq	r0, r0, r8, lsl r0
 594:	25011101 	strcs	r1, [r1, #-257]	; 0xfffffeff
 598:	030b130e 	movweq	r1, #45838	; 0xb30e
 59c:	110e1b0e 	tstne	lr, lr, lsl #22
 5a0:	10061201 	andne	r1, r6, r1, lsl #4
 5a4:	17429917 	smlaldne	r9, r2, r7, r9
 5a8:	04020000 	streq	r0, [r2], #-0
 5ac:	0b0e0301 	bleq	3811b8 <FPU_CPACR_CP10+0x811b8>
 5b0:	3a13490b 	bcc	4d29e4 <FPU_CPACR_CP10+0x1d29e4>
 5b4:	010b3b0b 	tsteq	fp, fp, lsl #22
 5b8:	03000013 	movweq	r0, #19
 5bc:	0e030028 	cdpeq	0, 0, cr0, cr3, cr8, {1}
 5c0:	00000b1c 	andeq	r0, r0, ip, lsl fp
 5c4:	0b002404 	bleq	95dc <SCB_AIRCR_PRIGROUP_MASK+0x8edc>
 5c8:	030b3e0b 	movweq	r3, #48651	; 0xbe0b
 5cc:	0500000e 	streq	r0, [r0, #-14]
 5d0:	0e030016 	mcreq	0, 0, r0, cr3, cr6, {0}
 5d4:	0b3b0b3a 	bleq	ec32c4 <FPU_CPACR_CP11+0x2c32c4>
 5d8:	00001349 	andeq	r1, r0, r9, asr #6
 5dc:	49002606 	stmdbmi	r0, {r1, r2, r9, sl, sp}
 5e0:	07000013 	smladeq	r0, r3, r0, r0
 5e4:	0b0b0024 	bleq	2c067c <SCB_VECTKEYSTAT_INV_MASK+0x2b067d>
 5e8:	08030b3e 	stmdaeq	r3, {r1, r2, r3, r4, r5, r8, r9, fp}
 5ec:	34080000 	strcc	r0, [r8], #-0
 5f0:	3a0e0300 	bcc	3811f8 <FPU_CPACR_CP10+0x811f8>
 5f4:	490b3b0b 	stmdbmi	fp, {r0, r1, r3, r8, r9, fp, ip, sp}
 5f8:	00180213 	andseq	r0, r8, r3, lsl r2
 5fc:	012e0900 			; <UNDEFINED> instruction: 0x012e0900
 600:	0e03193f 			; <UNDEFINED> instruction: 0x0e03193f
 604:	0b3b0b3a 	bleq	ec32f4 <FPU_CPACR_CP11+0x2c32f4>
 608:	13491927 	movtne	r1, #39207	; 0x9927
 60c:	06120111 			; <UNDEFINED> instruction: 0x06120111
 610:	42971840 	addsmi	r1, r7, #64, 16	; 0x400000
 614:	00130119 	andseq	r0, r3, r9, lsl r1
 618:	00050a00 	andeq	r0, r5, r0, lsl #20
 61c:	0b3a0e03 	bleq	e83e30 <FPU_CPACR_CP11+0x283e30>
 620:	13490b3b 	movtne	r0, #39739	; 0x9b3b
 624:	00001802 	andeq	r1, r0, r2, lsl #16
 628:	0b000f0b 	bleq	425c <SCB_AIRCR_PRIGROUP_MASK+0x3b5c>
 62c:	0013490b 	andseq	r4, r3, fp, lsl #18
 630:	012e0c00 			; <UNDEFINED> instruction: 0x012e0c00
 634:	0e03193f 			; <UNDEFINED> instruction: 0x0e03193f
 638:	0b3b0b3a 	bleq	ec3328 <FPU_CPACR_CP11+0x2c3328>
 63c:	13491927 	movtne	r1, #39207	; 0x9927
 640:	06120111 			; <UNDEFINED> instruction: 0x06120111
 644:	42961840 	addsmi	r1, r6, #64, 16	; 0x400000
 648:	00130119 	andseq	r0, r3, r9, lsl r1
 64c:	002e0d00 	eoreq	r0, lr, r0, lsl #26
 650:	0e03193f 			; <UNDEFINED> instruction: 0x0e03193f
 654:	0b3b0b3a 	bleq	ec3344 <FPU_CPACR_CP11+0x2c3344>
 658:	13491927 	movtne	r1, #39207	; 0x9927
 65c:	06120111 			; <UNDEFINED> instruction: 0x06120111
 660:	42971840 	addsmi	r1, r7, #64, 16	; 0x400000
 664:	0e000019 	mcreq	0, 0, r0, cr0, cr9, {0}
 668:	193f012e 	ldmdbne	pc!, {r1, r2, r3, r5, r8}	; <UNPREDICTABLE>
 66c:	0b3a0e03 	bleq	e83e80 <FPU_CPACR_CP11+0x283e80>
 670:	19270b3b 	stmdbne	r7!, {r0, r1, r3, r4, r5, r8, r9, fp}
 674:	01111349 	tsteq	r1, r9, asr #6
 678:	18400612 	stmdane	r0, {r1, r4, r9, sl}^
 67c:	00194297 	mulseq	r9, r7, r2
 680:	11010000 	mrsne	r0, (UNDEF: 1)
 684:	11061000 	mrsne	r1, (UNDEF: 6)
 688:	03011201 	movweq	r1, #4609	; 0x1201
 68c:	25081b08 	strcs	r1, [r8, #-2824]	; 0xfffff4f8
 690:	00051308 	andeq	r1, r5, r8, lsl #6
 694:	11010000 	mrsne	r0, (UNDEF: 1)
 698:	11061000 	mrsne	r1, (UNDEF: 6)
 69c:	03011201 	movweq	r1, #4609	; 0x1201
 6a0:	25081b08 	strcs	r1, [r8, #-2824]	; 0xfffff4f8
 6a4:	00051308 	andeq	r1, r5, r8, lsl #6
 6a8:	11010000 	mrsne	r0, (UNDEF: 1)
 6ac:	55061000 	strpl	r1, [r6, #-0]
 6b0:	1b080306 	blne	2012d0 <SCB_VECTKEYSTAT_INV_MASK+0x1f12d1>
 6b4:	13082508 	movwne	r2, #34056	; 0x8508
 6b8:	00000005 	andeq	r0, r0, r5
 6bc:	10001101 	andne	r1, r0, r1, lsl #2
 6c0:	12011106 	andne	r1, r1, #-2147483647	; 0x80000001
 6c4:	1b080301 	blne	2012d0 <SCB_VECTKEYSTAT_INV_MASK+0x1f12d1>
 6c8:	13082508 	movwne	r2, #34056	; 0x8508
 6cc:	00000005 	andeq	r0, r0, r5
 6d0:	25011101 	strcs	r1, [r1, #-257]	; 0xfffffeff
 6d4:	030b130e 	movweq	r1, #45838	; 0xb30e
 6d8:	110e1b0e 	tstne	lr, lr, lsl #22
 6dc:	10061201 	andne	r1, r6, r1, lsl #4
 6e0:	17429917 	smlaldne	r9, r2, r7, r9
 6e4:	04020000 	streq	r0, [r2], #-0
 6e8:	0b0e0301 	bleq	3812f4 <FPU_CPACR_CP10+0x812f4>
 6ec:	3a13490b 	bcc	4d2b20 <FPU_CPACR_CP10+0x1d2b20>
 6f0:	010b3b0b 	tsteq	fp, fp, lsl #22
 6f4:	03000013 	movweq	r0, #19
 6f8:	0e030028 	cdpeq	0, 0, cr0, cr3, cr8, {1}
 6fc:	00000b1c 	andeq	r0, r0, ip, lsl fp
 700:	0b002404 	bleq	9718 <SCB_AIRCR_PRIGROUP_MASK+0x9018>
 704:	030b3e0b 	movweq	r3, #48651	; 0xbe0b
 708:	0500000e 	streq	r0, [r0, #-14]
 70c:	0e030016 	mcreq	0, 0, r0, cr3, cr6, {0}
 710:	0b3b0b3a 	bleq	ec3400 <FPU_CPACR_CP11+0x2c3400>
 714:	00001349 	andeq	r1, r0, r9, asr #6
 718:	49002606 	stmdbmi	r0, {r1, r2, r9, sl, sp}
 71c:	07000013 	smladeq	r0, r3, r0, r0
 720:	193f012e 	ldmdbne	pc!, {r1, r2, r3, r5, r8}	; <UNPREDICTABLE>
 724:	0b3a0e03 	bleq	e83f38 <FPU_CPACR_CP11+0x283f38>
 728:	19270b3b 	stmdbne	r7!, {r0, r1, r3, r4, r5, r8, r9, fp}
 72c:	06120111 			; <UNDEFINED> instruction: 0x06120111
 730:	42971840 	addsmi	r1, r7, #64, 16	; 0x400000
 734:	08000019 	stmdaeq	r0, {r0, r3, r4}
 738:	0e030005 	cdpeq	0, 0, cr0, cr3, cr5, {0}
 73c:	0b3b0b3a 	bleq	ec342c <FPU_CPACR_CP11+0x2c342c>
 740:	18021349 	stmdane	r2, {r0, r3, r6, r8, r9, ip}
 744:	01000000 	mrseq	r0, (UNDEF: 0)
 748:	0e250111 	mcreq	1, 1, r0, cr5, cr1, {0}
 74c:	0e030b13 	vmoveq.32	d3[0], r0
 750:	01110e1b 	tsteq	r1, fp, lsl lr
 754:	17100612 			; <UNDEFINED> instruction: 0x17100612
 758:	00174299 	mulseq	r7, r9, r2
 75c:	01040200 	mrseq	r0, R12_usr
 760:	0b0b0e03 	bleq	2c3f74 <SCB_VECTKEYSTAT_INV_MASK+0x2b3f75>
 764:	0b3a1349 	bleq	e85490 <FPU_CPACR_CP11+0x285490>
 768:	13010b3b 	movwne	r0, #6971	; 0x1b3b
 76c:	28030000 	stmdacs	r3, {}	; <UNPREDICTABLE>
 770:	1c0e0300 	stcne	3, cr0, [lr], {-0}
 774:	0400000b 	streq	r0, [r0], #-11
 778:	0b0b0024 	bleq	2c0810 <SCB_VECTKEYSTAT_INV_MASK+0x2b0811>
 77c:	0e030b3e 	vmoveq.16	d3[0], r0
 780:	16050000 	strne	r0, [r5], -r0
 784:	3a0e0300 	bcc	38138c <FPU_CPACR_CP10+0x8138c>
 788:	490b3b0b 	stmdbmi	fp, {r0, r1, r3, r8, r9, fp, ip, sp}
 78c:	06000013 			; <UNDEFINED> instruction: 0x06000013
 790:	0b0b0024 	bleq	2c0828 <SCB_VECTKEYSTAT_INV_MASK+0x2b0829>
 794:	08030b3e 	stmdaeq	r3, {r1, r2, r3, r4, r5, r8, r9, fp}
 798:	26070000 	strcs	r0, [r7], -r0
 79c:	00134900 	andseq	r4, r3, r0, lsl #18
 7a0:	01130800 	tsteq	r3, r0, lsl #16
 7a4:	0b0b0e03 	bleq	2c3fb8 <SCB_VECTKEYSTAT_INV_MASK+0x2b3fb9>
 7a8:	0b3b0b3a 	bleq	ec3498 <FPU_CPACR_CP11+0x2c3498>
 7ac:	00001301 	andeq	r1, r0, r1, lsl #6
 7b0:	03000d09 	movweq	r0, #3337	; 0xd09
 7b4:	3b0b3a0e 	blcc	2ceff4 <SCB_VECTKEYSTAT_INV_MASK+0x2beff5>
 7b8:	3813490b 	ldmdacc	r3, {r0, r1, r3, r8, fp, lr}
 7bc:	0a00000b 	beq	7f0 <SCB_AIRCR_PRIGROUP_MASK+0xf0>
 7c0:	19270115 	stmdbne	r7!, {r0, r2, r4, r8}
 7c4:	00001301 	andeq	r1, r0, r1, lsl #6
 7c8:	4900050b 	stmdbmi	r0, {r0, r1, r3, r8, sl}
 7cc:	0c000013 	stceq	0, cr0, [r0], {19}
 7d0:	0b0b000f 	bleq	2c0814 <SCB_VECTKEYSTAT_INV_MASK+0x2b0815>
 7d4:	00001349 	andeq	r1, r0, r9, asr #6
 7d8:	3f012e0d 	svccc	0x00012e0d
 7dc:	3a0e0319 	bcc	381448 <FPU_CPACR_CP10+0x81448>
 7e0:	270b3b0b 	strcs	r3, [fp, -fp, lsl #22]
 7e4:	19018719 	stmdbne	r1, {r0, r3, r4, r8, r9, sl, pc}
 7e8:	06120111 			; <UNDEFINED> instruction: 0x06120111
 7ec:	42961840 	addsmi	r1, r6, #64, 16	; 0x400000
 7f0:	00130119 	andseq	r0, r3, r9, lsl r1
 7f4:	00340e00 	eorseq	r0, r4, r0, lsl #28
 7f8:	0b3a0e03 	bleq	e8400c <FPU_CPACR_CP11+0x28400c>
 7fc:	13490b3b 	movtne	r0, #39739	; 0x9b3b
 800:	00001802 	andeq	r1, r0, r2, lsl #16
 804:	03012e0f 	movweq	r2, #7695	; 0x1e0f
 808:	3b0b3a0e 	blcc	2cf048 <SCB_VECTKEYSTAT_INV_MASK+0x2bf049>
 80c:	1119270b 	tstne	r9, fp, lsl #14
 810:	40061201 	andmi	r1, r6, r1, lsl #4
 814:	19429618 	stmdbne	r2, {r3, r4, r9, sl, ip, pc}^
 818:	01000000 	mrseq	r0, (UNDEF: 0)
 81c:	0e250111 	mcreq	1, 1, r0, cr5, cr1, {0}
 820:	0e030b13 	vmoveq.32	d3[0], r0
 824:	01110e1b 	tsteq	r1, fp, lsl lr
 828:	17100612 			; <UNDEFINED> instruction: 0x17100612
 82c:	00174299 	mulseq	r7, r9, r2
 830:	00240200 	eoreq	r0, r4, r0, lsl #4
 834:	0b3e0b0b 	bleq	f83468 <FPU_ENABLE_CPACR_VALUE+0x83468>
 838:	00000e03 	andeq	r0, r0, r3, lsl #28
 83c:	0b002403 	bleq	9850 <SCB_AIRCR_PRIGROUP_MASK+0x9150>
 840:	030b3e0b 	movweq	r3, #48651	; 0xbe0b
 844:	04000008 	streq	r0, [r0], #-8
 848:	0e030016 	mcreq	0, 0, r0, cr3, cr6, {0}
 84c:	0b3b0b3a 	bleq	ec353c <FPU_CPACR_CP11+0x2c353c>
 850:	00001349 	andeq	r1, r0, r9, asr #6
 854:	3f012e05 	svccc	0x00012e05
 858:	3a0e0319 	bcc	3814c4 <FPU_CPACR_CP10+0x814c4>
 85c:	270b3b0b 	strcs	r3, [fp, -fp, lsl #22]
 860:	12011119 	andne	r1, r1, #1073741830	; 0x40000006
 864:	97184006 	ldrls	r4, [r8, -r6]
 868:	00001942 	andeq	r1, r0, r2, asr #18
 86c:	03000506 	movweq	r0, #1286	; 0x506
 870:	3b0b3a0e 	blcc	2cf0b0 <SCB_VECTKEYSTAT_INV_MASK+0x2bf0b1>
 874:	0213490b 	andseq	r4, r3, #180224	; 0x2c000
 878:	00000018 	andeq	r0, r0, r8, lsl r0
 87c:	25011101 	strcs	r1, [r1, #-257]	; 0xfffffeff
 880:	030b130e 	movweq	r1, #45838	; 0xb30e
 884:	110e1b0e 	tstne	lr, lr, lsl #22
 888:	10061201 	andne	r1, r6, r1, lsl #4
 88c:	17429917 	smlaldne	r9, r2, r7, r9
 890:	04020000 	streq	r0, [r2], #-0
 894:	0b0e0301 	bleq	3814a0 <FPU_CPACR_CP10+0x814a0>
 898:	3a13490b 	bcc	4d2ccc <FPU_CPACR_CP10+0x1d2ccc>
 89c:	010b3b0b 	tsteq	fp, fp, lsl #22
 8a0:	03000013 	movweq	r0, #19
 8a4:	0e030028 	cdpeq	0, 0, cr0, cr3, cr8, {1}
 8a8:	00000b1c 	andeq	r0, r0, ip, lsl fp
 8ac:	0b002404 	bleq	98c4 <SCB_AIRCR_PRIGROUP_MASK+0x91c4>
 8b0:	030b3e0b 	movweq	r3, #48651	; 0xbe0b
 8b4:	0500000e 	streq	r0, [r0, #-14]
 8b8:	0e030016 	mcreq	0, 0, r0, cr3, cr6, {0}
 8bc:	0b3b0b3a 	bleq	ec35ac <FPU_CPACR_CP11+0x2c35ac>
 8c0:	00001349 	andeq	r1, r0, r9, asr #6
 8c4:	49002606 	stmdbmi	r0, {r1, r2, r9, sl, sp}
 8c8:	07000013 	smladeq	r0, r3, r0, r0
 8cc:	0b0b0024 	bleq	2c0964 <SCB_VECTKEYSTAT_INV_MASK+0x2b0965>
 8d0:	08030b3e 	stmdaeq	r3, {r1, r2, r3, r4, r5, r8, r9, fp}
 8d4:	13080000 	movwne	r0, #32768	; 0x8000
 8d8:	0b0e0301 	bleq	3814e4 <FPU_CPACR_CP10+0x814e4>
 8dc:	3b0b3a0b 	blcc	2cf110 <SCB_VECTKEYSTAT_INV_MASK+0x2bf111>
 8e0:	0013010b 	andseq	r0, r3, fp, lsl #2
 8e4:	000d0900 	andeq	r0, sp, r0, lsl #18
 8e8:	0b3a0e03 	bleq	e840fc <FPU_CPACR_CP11+0x2840fc>
 8ec:	13490b3b 	movtne	r0, #39739	; 0x9b3b
 8f0:	00000b38 	andeq	r0, r0, r8, lsr fp
 8f4:	2701150a 	strcs	r1, [r1, -sl, lsl #10]
 8f8:	00130119 	andseq	r0, r3, r9, lsl r1
 8fc:	00050b00 	andeq	r0, r5, r0, lsl #22
 900:	00001349 	andeq	r1, r0, r9, asr #6
 904:	0b000f0c 	bleq	453c <SCB_AIRCR_PRIGROUP_MASK+0x3e3c>
 908:	0013490b 	andseq	r4, r3, fp, lsl #18
 90c:	00340d00 	eorseq	r0, r4, r0, lsl #26
 910:	0b3a0e03 	bleq	e84124 <FPU_CPACR_CP11+0x284124>
 914:	13490b3b 	movtne	r0, #39739	; 0x9b3b
 918:	1802193f 	stmdane	r2, {r0, r1, r2, r3, r4, r5, r8, fp, ip}
 91c:	010e0000 	mrseq	r0, (UNDEF: 14)
 920:	01134901 	tsteq	r3, r1, lsl #18
 924:	0f000013 	svceq	0x00000013
 928:	13490021 	movtne	r0, #36897	; 0x9021
 92c:	00000b2f 	andeq	r0, r0, pc, lsr #22
 930:	3f012e10 	svccc	0x00012e10
 934:	3a0e0319 	bcc	3815a0 <FPU_CPACR_CP10+0x815a0>
 938:	270b3b0b 	strcs	r3, [fp, -fp, lsl #22]
 93c:	12011119 	andne	r1, r1, #1073741830	; 0x40000006
 940:	96184006 	ldrls	r4, [r8], -r6
 944:	13011942 	movwne	r1, #6466	; 0x1942
 948:	05110000 	ldreq	r0, [r1, #-0]
 94c:	3a080300 	bcc	201554 <SCB_VECTKEYSTAT_INV_MASK+0x1f1555>
 950:	490b3b0b 	stmdbmi	fp, {r0, r1, r3, r8, r9, fp, ip, sp}
 954:	00180213 	andseq	r0, r8, r3, lsl r2
 958:	00051200 	andeq	r1, r5, r0, lsl #4
 95c:	0b3a0e03 	bleq	e84170 <FPU_CPACR_CP11+0x284170>
 960:	13490b3b 	movtne	r0, #39739	; 0x9b3b
 964:	00001802 	andeq	r1, r0, r2, lsl #16
 968:	00002613 	andeq	r2, r0, r3, lsl r6
 96c:	012e1400 			; <UNDEFINED> instruction: 0x012e1400
 970:	0e03193f 			; <UNDEFINED> instruction: 0x0e03193f
 974:	0b3b0b3a 	bleq	ec3664 <FPU_CPACR_CP11+0x2c3664>
 978:	13491927 	movtne	r1, #39207	; 0x9927
 97c:	06120111 			; <UNDEFINED> instruction: 0x06120111
 980:	42971840 	addsmi	r1, r7, #64, 16	; 0x400000
 984:	00130119 	andseq	r0, r3, r9, lsl r1
 988:	012e1500 			; <UNDEFINED> instruction: 0x012e1500
 98c:	0b3a0e03 	bleq	e841a0 <FPU_CPACR_CP11+0x2841a0>
 990:	19270b3b 	stmdbne	r7!, {r0, r1, r3, r4, r5, r8, r9, fp}
 994:	06120111 			; <UNDEFINED> instruction: 0x06120111
 998:	42961840 	addsmi	r1, r6, #64, 16	; 0x400000
 99c:	00130119 	andseq	r0, r3, r9, lsl r1
 9a0:	00341600 	eorseq	r1, r4, r0, lsl #12
 9a4:	0b3a0803 	bleq	e829b8 <FPU_CPACR_CP11+0x2829b8>
 9a8:	13490b3b 	movtne	r0, #39739	; 0x9b3b
 9ac:	00001802 	andeq	r1, r0, r2, lsl #16
 9b0:	03012e17 	movweq	r2, #7703	; 0x1e17
 9b4:	3b0b3a0e 	blcc	2cf1f4 <SCB_VECTKEYSTAT_INV_MASK+0x2bf1f5>
 9b8:	4919270b 	ldmdbmi	r9, {r0, r1, r3, r8, r9, sl, sp}
 9bc:	12011113 	andne	r1, r1, #-1073741820	; 0xc0000004
 9c0:	97184006 	ldrls	r4, [r8, -r6]
 9c4:	13011942 	movwne	r1, #6466	; 0x1942
 9c8:	34180000 	ldrcc	r0, [r8], #-0
 9cc:	3a0e0300 	bcc	3815d4 <FPU_CPACR_CP10+0x815d4>
 9d0:	490b3b0b 	stmdbmi	fp, {r0, r1, r3, r8, r9, fp, ip, sp}
 9d4:	00180213 	andseq	r0, r8, r3, lsl r2
 9d8:	012e1900 			; <UNDEFINED> instruction: 0x012e1900
 9dc:	0b3a0e03 	bleq	e841f0 <FPU_CPACR_CP11+0x2841f0>
 9e0:	19270b3b 	stmdbne	r7!, {r0, r1, r3, r4, r5, r8, r9, fp}
 9e4:	06120111 			; <UNDEFINED> instruction: 0x06120111
 9e8:	42971840 	addsmi	r1, r7, #64, 16	; 0x400000
 9ec:	00130119 	andseq	r0, r3, r9, lsl r1
 9f0:	012e1a00 			; <UNDEFINED> instruction: 0x012e1a00
 9f4:	0b3a0e03 	bleq	e84208 <FPU_CPACR_CP11+0x284208>
 9f8:	19270b3b 	stmdbne	r7!, {r0, r1, r3, r4, r5, r8, r9, fp}
 9fc:	06120111 			; <UNDEFINED> instruction: 0x06120111
 a00:	42971840 	addsmi	r1, r7, #64, 16	; 0x400000
 a04:	00000019 	andeq	r0, r0, r9, lsl r0

Disassembly of section .debug_aranges:

00000000 <.debug_aranges>:
   0:	0000001c 	andeq	r0, r0, ip, lsl r0
   4:	00000002 	andeq	r0, r0, r2
   8:	00040000 	andeq	r0, r4, r0
   c:	00000000 	andeq	r0, r0, r0
  10:	08000210 	stmdaeq	r0, {r4, r9}
  14:	00000010 	andeq	r0, r0, r0, lsl r0
	...
  20:	0000001c 	andeq	r0, r0, ip, lsl r0
  24:	00460002 	subeq	r0, r6, r2
  28:	00040000 	andeq	r0, r4, r0
  2c:	00000000 	andeq	r0, r0, r0
  30:	08000220 	stmdaeq	r0, {r5, r9}
  34:	0000000a 	andeq	r0, r0, sl
	...
  40:	0000001c 	andeq	r0, r0, ip, lsl r0
  44:	00c20002 	sbceq	r0, r2, r2
  48:	00040000 	andeq	r0, r4, r0
  4c:	00000000 	andeq	r0, r0, r0
  50:	08000190 	stmdaeq	r0, {r4, r7, r8}
  54:	00000080 	andeq	r0, r0, r0, lsl #1
	...
  60:	0000001c 	andeq	r0, r0, ip, lsl r0
  64:	013b0002 	teqeq	fp, r2
  68:	00040000 	andeq	r0, r4, r0
  6c:	00000000 	andeq	r0, r0, r0
  70:	0800022c 	stmdaeq	r0, {r2, r3, r5, r9}
  74:	000004e8 	andeq	r0, r0, r8, ror #9
	...
  80:	0000001c 	andeq	r0, r0, ip, lsl r0
  84:	05330002 	ldreq	r0, [r3, #-2]!
  88:	00040000 	andeq	r0, r4, r0
  8c:	00000000 	andeq	r0, r0, r0
  90:	08000714 	stmdaeq	r0, {r2, r4, r8, r9, sl}
  94:	00000080 	andeq	r0, r0, r0, lsl #1
	...
  a0:	0000001c 	andeq	r0, r0, ip, lsl r0
  a4:	06b80002 	ldrteq	r0, [r8], r2
  a8:	00040000 	andeq	r0, r4, r0
  ac:	00000000 	andeq	r0, r0, r0
  b0:	08000794 	stmdaeq	r0, {r2, r4, r7, r8, r9, sl}
  b4:	00000278 	andeq	r0, r0, r8, ror r2
	...
  c0:	0000001c 	andeq	r0, r0, ip, lsl r0
  c4:	08930002 	ldmeq	r3, {r1}
  c8:	00040000 	andeq	r0, r4, r0
  cc:	00000000 	andeq	r0, r0, r0
  d0:	08000a0c 	stmdaeq	r0, {r2, r3, r9, fp}
  d4:	00000010 	andeq	r0, r0, r0, lsl r0
	...
  e0:	0000001c 	andeq	r0, r0, ip, lsl r0
  e4:	09110002 	ldmdbeq	r1, {r1}
  e8:	00040000 	andeq	r0, r4, r0
  ec:	00000000 	andeq	r0, r0, r0
  f0:	08000a1c 	stmdaeq	r0, {r2, r3, r4, r9, fp}
  f4:	0000001a 	andeq	r0, r0, sl, lsl r0
	...
 100:	0000001c 	andeq	r0, r0, ip, lsl r0
 104:	09c70002 	stmibeq	r7, {r1}^
 108:	00040000 	andeq	r0, r4, r0
 10c:	00000000 	andeq	r0, r0, r0
 110:	08000a38 	stmdaeq	r0, {r3, r4, r5, r9, fp}
 114:	00000048 	andeq	r0, r0, r8, asr #32
	...
 120:	0000001c 	andeq	r0, r0, ip, lsl r0
 124:	0ad40002 	beq	ff500134 <FPU_MVFR1_ADDR+0x1f4f11f0>
 128:	00040000 	andeq	r0, r4, r0
 12c:	00000000 	andeq	r0, r0, r0
 130:	08000a80 	stmdaeq	r0, {r7, r9, fp}
 134:	000006cc 	andeq	r0, r0, ip, asr #13
	...
 140:	0000001c 	andeq	r0, r0, ip, lsl r0
 144:	0ea30002 	cdpeq	0, 10, cr0, cr3, cr2, {0}
 148:	00040000 	andeq	r0, r4, r0
 14c:	00000000 	andeq	r0, r0, r0
 150:	0800114c 	stmdaeq	r0, {r2, r3, r6, r8, ip}
 154:	000000f0 	strdeq	r0, [r0], -r0	; <UNPREDICTABLE>
	...
 160:	0000001c 	andeq	r0, r0, ip, lsl r0
 164:	102e0002 	eorne	r0, lr, r2
 168:	00040000 	andeq	r0, r4, r0
 16c:	00000000 	andeq	r0, r0, r0
 170:	0800123c 	stmdaeq	r0, {r2, r3, r4, r5, r9, ip}
 174:	00000024 	andeq	r0, r0, r4, lsr #32
	...
 180:	0000001c 	andeq	r0, r0, ip, lsl r0
 184:	10a60002 	adcne	r0, r6, r2
 188:	00040000 	andeq	r0, r4, r0
 18c:	00000000 	andeq	r0, r0, r0
 190:	08001260 	stmdaeq	r0, {r5, r6, r9, ip}
 194:	00000036 	andeq	r0, r0, r6, lsr r0
	...
 1a0:	00000024 	andeq	r0, r0, r4, lsr #32
 1a4:	11250002 			; <UNDEFINED> instruction: 0x11250002
 1a8:	00040000 	andeq	r0, r4, r0
 1ac:	00000000 	andeq	r0, r0, r0
 1b0:	08001668 	stmdaeq	r0, {r3, r5, r6, r9, sl, ip}
 1b4:	0000009a 	muleq	r0, sl, r0
 1b8:	08001702 	stmdaeq	r0, {r1, r8, r9, sl, ip}
 1bc:	0000005c 	andeq	r0, r0, ip, asr r0
	...
 1c8:	0000001c 	andeq	r0, r0, ip, lsl r0
 1cc:	119a0002 	orrsne	r0, sl, r2
 1d0:	00040000 	andeq	r0, r4, r0
 1d4:	00000000 	andeq	r0, r0, r0
 1d8:	08001298 	stmdaeq	r0, {r3, r4, r7, r9, ip}
 1dc:	00000050 	andeq	r0, r0, r0, asr r0
	...
 1e8:	0000001c 	andeq	r0, r0, ip, lsl r0
 1ec:	12130002 	andsne	r0, r3, #2
 1f0:	00040000 	andeq	r0, r4, r0
 1f4:	00000000 	andeq	r0, r0, r0
 1f8:	080012e8 	stmdaeq	r0, {r3, r5, r6, r7, r9, ip}
 1fc:	0000000c 	andeq	r0, r0, ip
	...
 208:	0000001c 	andeq	r0, r0, ip, lsl r0
 20c:	12af0002 	adcne	r0, pc, #2
 210:	00040000 	andeq	r0, r4, r0
 214:	00000000 	andeq	r0, r0, r0
 218:	080012f4 	stmdaeq	r0, {r2, r4, r5, r6, r7, r9, ip}
 21c:	000000e4 	andeq	r0, r0, r4, ror #1
	...
 228:	0000001c 	andeq	r0, r0, ip, lsl r0
 22c:	147d0002 	ldrbtne	r0, [sp], #-2
 230:	00040000 	andeq	r0, r4, r0
 234:	00000000 	andeq	r0, r0, r0
 238:	080013d8 	stmdaeq	r0, {r3, r4, r6, r7, r8, r9, ip}
 23c:	00000018 	andeq	r0, r0, r8, lsl r0
	...
 248:	0000001c 	andeq	r0, r0, ip, lsl r0
 24c:	15310002 	ldrne	r0, [r1, #-2]!
 250:	00040000 	andeq	r0, r4, r0
 254:	00000000 	andeq	r0, r0, r0
 258:	080013f0 	stmdaeq	r0, {r4, r5, r6, r7, r8, r9, ip}
 25c:	00000278 	andeq	r0, r0, r8, ror r2
	...

Disassembly of section .debug_macro:

00000000 <.debug_macro>:
       0:	00020004 	andeq	r0, r2, r4
       4:	07000000 	streq	r0, [r0, -r0]
       8:	00000011 	andeq	r0, r0, r1, lsl r0
       c:	04010003 	streq	r0, [r1], #-3
      10:	00000400 	andeq	r0, r0, r0, lsl #8
      14:	14470005 	strbne	r0, [r7], #-5
      18:	00050000 	andeq	r0, r5, r0
      1c:	00000124 	andeq	r0, r0, r4, lsr #2
      20:	1df40005 	ldclne	0, cr0, [r4, #20]!
      24:	00050000 	andeq	r0, r5, r0
      28:	00001f6c 	andeq	r1, r0, ip, ror #30
      2c:	0ddc0005 	ldcleq	0, cr0, [ip, #20]
      30:	00050000 	andeq	r0, r5, r0
      34:	00001318 	andeq	r1, r0, r8, lsl r3
      38:	0cd70005 	ldcleq	0, cr0, [r7], {5}
      3c:	00050000 	andeq	r0, r5, r0
      40:	000010d2 	ldrdeq	r1, [r0], -r2
      44:	21a00005 	movcs	r0, r5
      48:	00050000 	andeq	r0, r5, r0
      4c:	00001a50 	andeq	r1, r0, r0, asr sl
      50:	027e0005 	rsbseq	r0, lr, #5
      54:	00050000 	andeq	r0, r5, r0
      58:	00001496 	muleq	r0, r6, r4
      5c:	0bfd0005 	bleq	fff40078 <FPU_MVFR1_ADDR+0x1ff31134>
      60:	00050000 	andeq	r0, r5, r0
      64:	00002229 	andeq	r2, r0, r9, lsr #4
      68:	1f090005 	svcne	0x00090005
      6c:	00050000 	andeq	r0, r5, r0
      70:	000022d2 	ldrdeq	r2, [r0], -r2	; <UNPREDICTABLE>
      74:	11b00005 	movsne	r0, r5
      78:	00050000 	andeq	r0, r5, r0
      7c:	0000068a 	andeq	r0, r0, sl, lsl #13
      80:	0ba40005 	bleq	fe90009c <FPU_MVFR1_ADDR+0x1e8f1158>
      84:	00050000 	andeq	r0, r5, r0
      88:	00000ee4 	andeq	r0, r0, r4, ror #29
      8c:	19150005 	ldmdbne	r5, {r0, r2}
      90:	00050000 	andeq	r0, r5, r0
      94:	000009f6 	strdeq	r0, [r0], -r6
      98:	06350005 	ldrteq	r0, [r5], -r5
      9c:	00050000 	andeq	r0, r5, r0
      a0:	0000006d 	andeq	r0, r0, sp, rrx
      a4:	207e0005 	rsbscs	r0, lr, r5
      a8:	00050000 	andeq	r0, r5, r0
      ac:	00001300 	andeq	r1, r0, r0, lsl #6
      b0:	19f50005 	ldmibne	r5!, {r0, r2}^
      b4:	00050000 	andeq	r0, r5, r0
      b8:	00000e62 	andeq	r0, r0, r2, ror #28
      bc:	19a70005 	stmibne	r7!, {r0, r2}
      c0:	00050000 	andeq	r0, r5, r0
      c4:	000007c8 	andeq	r0, r0, r8, asr #15
      c8:	084e0005 	stmdaeq	lr, {r0, r2}^
      cc:	00050000 	andeq	r0, r5, r0
      d0:	000000e7 	andeq	r0, r0, r7, ror #1
      d4:	047e0005 	ldrbteq	r0, [lr], #-5
      d8:	00050000 	andeq	r0, r5, r0
      dc:	00001e27 	andeq	r1, r0, r7, lsr #28
      e0:	1e740005 	cdpne	0, 7, cr0, cr4, cr5, {0}
      e4:	00050000 	andeq	r0, r5, r0
      e8:	00001a12 	andeq	r1, r0, r2, lsl sl
      ec:	0ec60005 	cdpeq	0, 12, cr0, cr6, cr5, {0}
      f0:	00050000 	andeq	r0, r5, r0
      f4:	00000b1e 	andeq	r0, r0, lr, lsl fp
      f8:	0e7c0005 	cdpeq	0, 7, cr0, cr12, cr5, {0}
      fc:	00050000 	andeq	r0, r5, r0
     100:	0000031f 	andeq	r0, r0, pc, lsl r3
     104:	060e0005 	streq	r0, [lr], -r5
     108:	00050000 	andeq	r0, r5, r0
     10c:	000007ae 	andeq	r0, r0, lr, lsr #15
     110:	09ae0005 	stmibeq	lr!, {r0, r2}
     114:	00050000 	andeq	r0, r5, r0
     118:	000008b4 			; <UNDEFINED> instruction: 0x000008b4
     11c:	00810005 	addeq	r0, r1, r5
     120:	00050000 	andeq	r0, r5, r0
     124:	000005b2 			; <UNDEFINED> instruction: 0x000005b2
     128:	1f7e0005 	svcne	0x007e0005
     12c:	00050000 	andeq	r0, r5, r0
     130:	00001682 	andeq	r1, r0, r2, lsl #13
     134:	021d0005 	andseq	r0, sp, #5
     138:	00050000 	andeq	r0, r5, r0
     13c:	000018d1 	ldrdeq	r1, [r0], -r1	; <UNPREDICTABLE>
     140:	08cc0005 	stmiaeq	ip, {r0, r2}^
     144:	00050000 	andeq	r0, r5, r0
     148:	00001b16 	andeq	r1, r0, r6, lsl fp
     14c:	1a2d0005 	bne	b40168 <FPU_CPACR_CP10+0x840168>
     150:	00050000 	andeq	r0, r5, r0
     154:	000023c5 	andeq	r2, r0, r5, asr #7
     158:	14090005 	strne	r0, [r9], #-5
     15c:	00050000 	andeq	r0, r5, r0
     160:	000000fc 	strdeq	r0, [r0], -ip
     164:	05200005 	streq	r0, [r0, #-5]!
     168:	00050000 	andeq	r0, r5, r0
     16c:	00001323 	andeq	r1, r0, r3, lsr #6
     170:	08eb0005 	stmiaeq	fp!, {r0, r2}^
     174:	00050000 	andeq	r0, r5, r0
     178:	00002114 	andeq	r2, r0, r4, lsl r1
     17c:	115f0005 	cmpne	pc, r5
     180:	00050000 	andeq	r0, r5, r0
     184:	00001e06 	andeq	r1, r0, r6, lsl #28
     188:	21400005 	cmpcs	r0, r5
     18c:	00050000 	andeq	r0, r5, r0
     190:	00001549 	andeq	r1, r0, r9, asr #10
     194:	23760005 	cmncs	r6, #5
     198:	00050000 	andeq	r0, r5, r0
     19c:	00000564 	andeq	r0, r0, r4, ror #10
     1a0:	1c490005 	mcrrne	0, 0, r0, r9, cr5
     1a4:	00050000 	andeq	r0, r5, r0
     1a8:	00002056 	andeq	r2, r0, r6, asr r0
     1ac:	09290005 	stmdbeq	r9!, {r0, r2}
     1b0:	00050000 	andeq	r0, r5, r0
     1b4:	00002000 	andeq	r2, r0, r0
     1b8:	10900005 	addsne	r0, r0, r5
     1bc:	00050000 	andeq	r0, r5, r0
     1c0:	00001901 	andeq	r1, r0, r1, lsl #18
     1c4:	103e0005 	eorsne	r0, lr, r5
     1c8:	00050000 	andeq	r0, r5, r0
     1cc:	000022e9 	andeq	r2, r0, r9, ror #5
     1d0:	0d2d0005 	stceq	0, cr0, [sp, #-20]!	; 0xffffffec
     1d4:	00050000 	andeq	r0, r5, r0
     1d8:	00000291 	muleq	r0, r1, r2
     1dc:	1cfc0005 	ldclne	0, cr0, [ip], #20
     1e0:	00050000 	andeq	r0, r5, r0
     1e4:	00000453 	andeq	r0, r0, r3, asr r4
     1e8:	0c440005 	mcrreq	0, 0, r0, r4, cr5
     1ec:	00050000 	andeq	r0, r5, r0
     1f0:	00001896 	muleq	r0, r6, r8
     1f4:	0a520005 	beq	1480210 <FPU_ENABLE_CPACR_VALUE+0x580210>
     1f8:	00050000 	andeq	r0, r5, r0
     1fc:	0000095b 	andeq	r0, r0, fp, asr r9
     200:	18610005 	stmdane	r1!, {r0, r2}^
     204:	00050000 	andeq	r0, r5, r0
     208:	000014c3 	andeq	r1, r0, r3, asr #9
     20c:	01d20005 	bicseq	r0, r2, r5
     210:	00050000 	andeq	r0, r5, r0
     214:	00001bb2 			; <UNDEFINED> instruction: 0x00001bb2
     218:	208d0005 	addcs	r0, sp, r5
     21c:	00050000 	andeq	r0, r5, r0
     220:	000021bd 			; <UNDEFINED> instruction: 0x000021bd
     224:	12040005 	andne	r0, r4, #5
     228:	00050000 	andeq	r0, r5, r0
     22c:	000023e8 	andeq	r2, r0, r8, ror #7
     230:	080f0005 	stmdaeq	pc, {r0, r2}	; <UNPREDICTABLE>
     234:	00050000 	andeq	r0, r5, r0
     238:	00000a31 	andeq	r0, r0, r1, lsr sl
     23c:	07770005 	ldrbeq	r0, [r7, -r5]!
     240:	00050000 	andeq	r0, r5, r0
     244:	00001347 	andeq	r1, r0, r7, asr #6
     248:	0cb20005 	ldceq	0, cr0, [r2], #20
     24c:	00050000 	andeq	r0, r5, r0
     250:	0000245b 	andeq	r2, r0, fp, asr r4
     254:	0ca40005 	stceq	0, cr0, [r4], #20
     258:	00050000 	andeq	r0, r5, r0
     25c:	00001700 	andeq	r1, r0, r0, lsl #14
     260:	0f400005 	svceq	0x00400005
     264:	00050000 	andeq	r0, r5, r0
     268:	00001ab3 			; <UNDEFINED> instruction: 0x00001ab3
     26c:	0aae0005 	beq	feb80288 <FPU_MVFR1_ADDR+0x1eb71344>
     270:	00050000 	andeq	r0, r5, r0
     274:	000002f6 	strdeq	r0, [r0], -r6
     278:	00d20005 	sbcseq	r0, r2, r5
     27c:	00050000 	andeq	r0, r5, r0
     280:	000011c1 	andeq	r1, r0, r1, asr #3
     284:	23a20005 			; <UNDEFINED> instruction: 0x23a20005
     288:	00050000 	andeq	r0, r5, r0
     28c:	0000087b 	andeq	r0, r0, fp, ror r8
     290:	18f10005 	ldmne	r1!, {r0, r2}^
     294:	00050000 	andeq	r0, r5, r0
     298:	00001e52 	andeq	r1, r0, r2, asr lr
     29c:	1ee40005 	cdpne	0, 14, cr0, cr4, cr5, {0}
     2a0:	00050000 	andeq	r0, r5, r0
     2a4:	00001777 	andeq	r1, r0, r7, ror r7
     2a8:	1c760005 	ldclne	0, cr0, [r6], #-20	; 0xffffffec
     2ac:	00050000 	andeq	r0, r5, r0
     2b0:	000001ea 	andeq	r0, r0, sl, ror #3
     2b4:	10200005 	eorne	r0, r0, r5
     2b8:	00050000 	andeq	r0, r5, r0
     2bc:	00000c26 	andeq	r0, r0, r6, lsr #24
     2c0:	13900005 	orrsne	r0, r0, #5
     2c4:	00050000 	andeq	r0, r5, r0
     2c8:	00000000 	andeq	r0, r0, r0
     2cc:	073d0005 	ldreq	r0, [sp, -r5]!
     2d0:	00050000 	andeq	r0, r5, r0
     2d4:	00001db6 			; <UNDEFINED> instruction: 0x00001db6
     2d8:	0b5b0005 	bleq	16c02f4 <FPU_ENABLE_CPACR_VALUE+0x7c02f4>
     2dc:	00050000 	andeq	r0, r5, r0
     2e0:	0000075d 	andeq	r0, r0, sp, asr r7
     2e4:	14520005 	ldrbne	r0, [r2], #-5
     2e8:	00050000 	andeq	r0, r5, r0
     2ec:	00001ae8 	andeq	r1, r0, r8, ror #21
     2f0:	146e0005 	strbtne	r0, [lr], #-5
     2f4:	00050000 	andeq	r0, r5, r0
     2f8:	000018bb 			; <UNDEFINED> instruction: 0x000018bb
     2fc:	0cfb0005 	ldcleq	0, cr0, [fp], #20
     300:	00050000 	andeq	r0, r5, r0
     304:	000001c2 	andeq	r0, r0, r2, asr #3
     308:	12ec0005 	rscne	r0, ip, #5
     30c:	00050000 	andeq	r0, r5, r0
     310:	00000bbb 			; <UNDEFINED> instruction: 0x00000bbb
     314:	0dee0005 	stcleq	0, cr0, [lr, #20]!
     318:	00050000 	andeq	r0, r5, r0
     31c:	000021fb 	strdeq	r2, [r0], -fp
     320:	0faa0005 	svceq	0x00aa0005
     324:	00050000 	andeq	r0, r5, r0
     328:	00000c10 	andeq	r0, r0, r0, lsl ip
     32c:	11490005 	cmpne	r9, r5
     330:	00050000 	andeq	r0, r5, r0
     334:	000017a2 	andeq	r1, r0, r2, lsr #15
     338:	04ca0005 	strbeq	r0, [sl], #5
     33c:	00050000 	andeq	r0, r5, r0
     340:	00001980 	andeq	r1, r0, r0, lsl #19
     344:	19550005 	ldmdbne	r5, {r0, r2}^
     348:	00050000 	andeq	r0, r5, r0
     34c:	00000711 	andeq	r0, r0, r1, lsl r7
     350:	1ce50005 	stclne	0, cr0, [r5], #20
     354:	00050000 	andeq	r0, r5, r0
     358:	00000d72 	andeq	r0, r0, r2, ror sp
     35c:	0dcb0005 	stcleq	0, cr0, [fp, #20]
     360:	00050000 	andeq	r0, r5, r0
     364:	000004fa 	strdeq	r0, [r0], -sl
     368:	11260005 			; <UNDEFINED> instruction: 0x11260005
     36c:	00050000 	andeq	r0, r5, r0
     370:	000016e8 	andeq	r1, r0, r8, ror #13
     374:	24a10005 	strtcs	r0, [r1], #5
     378:	00050000 	andeq	r0, r5, r0
     37c:	00001432 	andeq	r1, r0, r2, lsr r4
     380:	193e0005 	ldmdbne	lr!, {r0, r2}
     384:	00050000 	andeq	r0, r5, r0
     388:	0000110f 	andeq	r1, r0, pc, lsl #2
     38c:	017d0005 	cmneq	sp, r5
     390:	00050000 	andeq	r0, r5, r0
     394:	000016a4 	andeq	r1, r0, r4, lsr #13
     398:	1eb20005 	cdpne	0, 11, cr0, cr2, cr5, {0}
     39c:	00050000 	andeq	r0, r5, r0
     3a0:	0000129e 	muleq	r0, lr, r2
     3a4:	0ff80005 	svceq	0x00f80005
     3a8:	00050000 	andeq	r0, r5, r0
     3ac:	00000371 	andeq	r0, r0, r1, ror r3
     3b0:	21e30005 	mvncs	r0, r5
     3b4:	00050000 	andeq	r0, r5, r0
     3b8:	00001c17 	andeq	r1, r0, r7, lsl ip
     3bc:	156b0005 	strbne	r0, [fp, #-5]!
     3c0:	00050000 	andeq	r0, r5, r0
     3c4:	00000388 	andeq	r0, r0, r8, lsl #7
     3c8:	11810005 	orrne	r0, r1, r5
     3cc:	00050000 	andeq	r0, r5, r0
     3d0:	000005e4 	andeq	r0, r0, r4, ror #11
     3d4:	1d200005 	stcne	0, cr0, [r0, #-20]!	; 0xffffffec
     3d8:	00050000 	andeq	r0, r5, r0
     3dc:	000003e9 	andeq	r0, r0, r9, ror #7
     3e0:	042d0005 	strteq	r0, [sp], #-5
     3e4:	00050000 	andeq	r0, r5, r0
     3e8:	00000578 	andeq	r0, r0, r8, ror r5
     3ec:	15850005 	strne	r0, [r5, #5]
     3f0:	00050000 	andeq	r0, r5, r0
     3f4:	0000125b 	andeq	r1, r0, fp, asr r2
     3f8:	1e3c0005 	cdpne	0, 3, cr0, cr12, cr5, {0}
     3fc:	00050000 	andeq	r0, r5, r0
     400:	000006f9 	strdeq	r0, [r0], -r9
     404:	09c70005 	stmibeq	r7, {r0, r2}^
     408:	00050000 	andeq	r0, r5, r0
     40c:	00001ad3 	ldrdeq	r1, [r0], -r3
     410:	15310005 	ldrne	r0, [r1, #-5]!
     414:	00050000 	andeq	r0, r5, r0
     418:	000005cf 	andeq	r0, r0, pc, asr #11
     41c:	02070005 	andeq	r0, r7, #5
     420:	00050000 	andeq	r0, r5, r0
     424:	00000d11 	andeq	r0, r0, r1, lsl sp
     428:	20e00005 	rsccs	r0, r0, r5
     42c:	00050000 	andeq	r0, r5, r0
     430:	00001fd9 	ldrdeq	r1, [r0], -r9
     434:	01ac0005 			; <UNDEFINED> instruction: 0x01ac0005
     438:	00050000 	andeq	r0, r5, r0
     43c:	0000175e 	andeq	r1, r0, lr, asr r7
     440:	12880005 	addne	r0, r8, #5
     444:	00050000 	andeq	r0, r5, r0
     448:	0000248a 	andeq	r2, r0, sl, lsl #9
     44c:	1d900005 	ldcne	0, cr0, [r0, #20]
     450:	00050000 	andeq	r0, r5, r0
     454:	000014a9 	andeq	r1, r0, r9, lsr #9
     458:	04990005 	ldreq	r0, [r9], #5
     45c:	00050000 	andeq	r0, r5, r0
     460:	0000171b 	andeq	r1, r0, fp, lsl r7
     464:	10b70005 	adcsne	r0, r7, r5
     468:	00050000 	andeq	r0, r5, r0
     46c:	000011ec 	andeq	r1, r0, ip, ror #3
     470:	233e0005 	teqcs	lr, #5
     474:	00050000 	andeq	r0, r5, r0
     478:	000013b8 			; <UNDEFINED> instruction: 0x000013b8
     47c:	15070005 	strne	r0, [r7, #-5]
     480:	00050000 	andeq	r0, r5, r0
     484:	00001f27 	andeq	r1, r0, r7, lsr #30
     488:	10fd0005 	rscsne	r0, sp, r5
     48c:	00050000 	andeq	r0, r5, r0
     490:	0000046c 	andeq	r0, r0, ip, ror #8
     494:	17f60005 	ldrbne	r0, [r6, r5]!
     498:	00050000 	andeq	r0, r5, r0
     49c:	00000a95 	muleq	r0, r5, sl
     4a0:	03550005 	cmpeq	r5, #5
     4a4:	00050000 	andeq	r0, r5, r0
     4a8:	000003fc 	strdeq	r0, [r0], -ip
     4ac:	1b610005 	blne	18404c8 <FPU_ENABLE_CPACR_VALUE+0x9404c8>
     4b0:	00050000 	andeq	r0, r5, r0
     4b4:	00000e9f 	muleq	r0, pc, lr	; <UNPREDICTABLE>
     4b8:	0e470005 	cdpeq	0, 4, cr0, cr7, cr5, {0}
     4bc:	00050000 	andeq	r0, r5, r0
     4c0:	0000014f 	andeq	r0, r0, pc, asr #2
     4c4:	064e0005 	strbeq	r0, [lr], -r5
     4c8:	00050000 	andeq	r0, r5, r0
     4cc:	00002162 	andeq	r2, r0, r2, ror #2
     4d0:	20f90005 	rscscs	r0, r9, r5
     4d4:	00050000 	andeq	r0, r5, r0
     4d8:	00002186 	andeq	r2, r0, r6, lsl #3
     4dc:	1bee0005 	blne	ffb804f8 <FPU_MVFR1_ADDR+0x1fb715b4>
     4e0:	00050000 	andeq	r0, r5, r0
     4e4:	0000100d 	andeq	r1, r0, sp
     4e8:	1fa10005 	svcne	0x00a10005
     4ec:	00050000 	andeq	r0, r5, r0
     4f0:	000016d3 	ldrdeq	r1, [r0], -r3
     4f4:	0e2b0005 	cdpeq	0, 2, cr0, cr11, cr5, {0}
     4f8:	00050000 	andeq	r0, r5, r0
     4fc:	00001c2c 	andeq	r1, r0, ip, lsr #24
     500:	24bb0005 	ldrtcs	r0, [fp], #5
     504:	00050000 	andeq	r0, r5, r0
     508:	0000050e 	andeq	r0, r0, lr, lsl #10
     50c:	1dd60005 	ldclne	0, cr0, [r6, #20]
     510:	00050000 	andeq	r0, r5, r0
     514:	000007ef 	andeq	r0, r0, pc, ror #15
     518:	123e0005 	eorsne	r0, lr, #5
     51c:	00050000 	andeq	r0, r5, r0
     520:	000010a3 	andeq	r1, r0, r3, lsr #1
     524:	0ce80005 	stcleq	0, cr0, [r8], #20
     528:	00050000 	andeq	r0, r5, r0
     52c:	0000054d 	andeq	r0, r0, sp, asr #10
     530:	24e50005 	strbtcs	r0, [r5], #5
     534:	00050000 	andeq	r0, r5, r0
     538:	00000bc9 	andeq	r0, r0, r9, asr #23
     53c:	0c540005 	mrrceq	0, 0, r0, r4, cr5
     540:	00050000 	andeq	r0, r5, r0
     544:	00002173 	andeq	r2, r0, r3, ror r1
     548:	223c0005 	eorscs	r0, ip, #5
     54c:	00050000 	andeq	r0, r5, r0
     550:	00000660 	andeq	r0, r0, r0, ror #12
     554:	0b850005 	bleq	fe140570 <FPU_MVFR1_ADDR+0x1e13162c>
     558:	00050000 	andeq	r0, r5, r0
     55c:	00002214 	andeq	r2, r0, r4, lsl r2
     560:	059e0005 	ldreq	r0, [lr, #5]
     564:	00050000 	andeq	r0, r5, r0
     568:	00000244 	andeq	r0, r0, r4, asr #4
     56c:	17320005 	ldrne	r0, [r2, -r5]!
     570:	00050000 	andeq	r0, r5, r0
     574:	00001d6f 	andeq	r1, r0, pc, ror #26
     578:	1fb30005 	svcne	0x00b30005
     57c:	00050000 	andeq	r0, r5, r0
     580:	0000013d 	andeq	r0, r0, sp, lsr r1
     584:	1cc30005 	stclne	0, cr0, [r3], {5}
     588:	00050000 	andeq	r0, r5, r0
     58c:	00001b34 	andeq	r1, r0, r4, lsr fp
     590:	02cc0005 	sbceq	r0, ip, #5
     594:	00050000 	andeq	r0, r5, r0
     598:	00001d0d 	andeq	r1, r0, sp, lsl #26
     59c:	19e20005 	stmibne	r2!, {r0, r2}^
     5a0:	00050000 	andeq	r0, r5, r0
     5a4:	000022bb 			; <UNDEFINED> instruction: 0x000022bb
     5a8:	0a0a0005 	beq	2805c4 <SCB_VECTKEYSTAT_INV_MASK+0x2705c5>
     5ac:	00050000 	andeq	r0, r5, r0
     5b0:	0000040f 	andeq	r0, r0, pc, lsl #8
     5b4:	1b4f0005 	blne	13c05d0 <FPU_ENABLE_CPACR_VALUE+0x4c05d0>
     5b8:	00050000 	andeq	r0, r5, r0
     5bc:	00000917 	andeq	r0, r0, r7, lsl r9
     5c0:	24270005 	strtcs	r0, [r7], #-5
     5c4:	00050000 	andeq	r0, r5, r0
     5c8:	00001af8 	strdeq	r1, [r0], -r8
     5cc:	0f8f0005 	svceq	0x008f0005
     5d0:	00050000 	andeq	r0, r5, r0
     5d4:	000017c6 	andeq	r1, r0, r6, asr #15
     5d8:	0dab0005 	stceq	0, cr0, [fp, #20]!
     5dc:	00050000 	andeq	r0, r5, r0
     5e0:	00002302 	andeq	r2, r0, r2, lsl #6
     5e4:	098e0005 	stmibeq	lr, {r0, r2}
     5e8:	00050000 	andeq	r0, r5, r0
     5ec:	000017d9 	ldrdeq	r1, [r0], -r9
     5f0:	227c0005 	rsbscs	r0, ip, #5
     5f4:	00050000 	andeq	r0, r5, r0
     5f8:	000003b1 			; <UNDEFINED> instruction: 0x000003b1
     5fc:	0f6b0005 	svceq	0x006b0005
     600:	00050000 	andeq	r0, r5, r0
     604:	00001a72 	andeq	r1, r0, r2, ror sl
     608:	08970005 	ldmeq	r7, {r0, r2}
     60c:	00050000 	andeq	r0, r5, r0
     610:	00000341 	andeq	r0, r0, r1, asr #6
     614:	1b830005 	blne	fe0c0630 <FPU_MVFR1_ADDR+0x1e0b16ec>
     618:	00050000 	andeq	r0, r5, r0
     61c:	000020ba 	strheq	r2, [r0], -sl
     620:	069c0005 	ldreq	r0, [ip], r5
     624:	00050000 	andeq	r0, r5, r0
     628:	0000009e 	muleq	r0, lr, r0
     62c:	21cf0005 	biccs	r0, pc, r5
     630:	00050000 	andeq	r0, r5, r0
     634:	00002268 	andeq	r2, r0, r8, ror #4
     638:	0c680005 	stcleq	0, cr0, [r8], #-20	; 0xffffffec
     63c:	00050000 	andeq	r0, r5, r0
     640:	00000fbe 			; <UNDEFINED> instruction: 0x00000fbe
     644:	23570005 	cmpcs	r7, #5
     648:	00050000 	andeq	r0, r5, r0
     64c:	000000bd 	strheq	r0, [r0], -sp
     650:	10e80005 	rscne	r0, r8, r5
     654:	00050000 	andeq	r0, r5, r0
     658:	00001a9a 	muleq	r0, sl, sl
     65c:	228f0005 	addcs	r0, pc, #5
     660:	00050000 	andeq	r0, r5, r0
     664:	0000025d 	andeq	r0, r0, sp, asr r2
     668:	0a6b0005 	beq	1ac0684 <FPU_ENABLE_CPACR_VALUE+0xbc0684>
     66c:	00050000 	andeq	r0, r5, r0
     670:	00001082 	andeq	r1, r0, r2, lsl #1
     674:	001f0005 	andseq	r0, pc, r5
     678:	00050000 	andeq	r0, r5, r0
     67c:	00001be0 	andeq	r1, r0, r0, ror #23
     680:	0f140005 	svceq	0x00140005
     684:	00050000 	andeq	r0, r5, r0
     688:	00001055 	andeq	r1, r0, r5, asr r0
     68c:	1b970005 	blne	fe5c06a8 <FPU_MVFR1_ADDR+0x1e5b1764>
     690:	00050000 	andeq	r0, r5, r0
     694:	00001853 	andeq	r1, r0, r3, asr r8
     698:	0afa0005 	beq	ffe806b4 <FPU_MVFR1_ADDR+0x1fe71770>
     69c:	00050000 	andeq	r0, r5, r0
     6a0:	00000a44 	andeq	r0, r0, r4, asr #20
     6a4:	13630005 	cmnne	r3, #5
     6a8:	00050000 	andeq	r0, r5, r0
     6ac:	0000165a 	andeq	r1, r0, sl, asr r6
     6b0:	016d0005 	cmneq	sp, r5
     6b4:	00050000 	andeq	r0, r5, r0
     6b8:	0000004f 	andeq	r0, r0, pc, asr #32
     6bc:	0eb60005 	cdpeq	0, 11, cr0, cr6, cr5, {0}
     6c0:	00050000 	andeq	r0, r5, r0
     6c4:	0000164b 	andeq	r1, r0, fp, asr #12
     6c8:	1bd00005 	blne	ff4006e4 <FPU_MVFR1_ADDR+0x1f3f17a0>
     6cc:	00050000 	andeq	r0, r5, r0
     6d0:	00001522 	andeq	r1, r0, r2, lsr #10
     6d4:	002e0005 	eoreq	r0, lr, r5
     6d8:	00050000 	andeq	r0, r5, r0
     6dc:	0000097f 	andeq	r0, r0, pc, ror r9
     6e0:	1c090005 	stcne	0, cr0, [r9], {5}
     6e4:	00050000 	andeq	r0, r5, r0
     6e8:	00001674 	andeq	r1, r0, r4, ror r6
     6ec:	1b740005 	blne	1d00708 <FPU_ENABLE_CPACR_VALUE+0xe00708>
     6f0:	00050000 	andeq	r0, r5, r0
     6f4:	00000626 	andeq	r0, r0, r6, lsr #12
     6f8:	0f230005 	svceq	0x00230005
     6fc:	00050000 	andeq	r0, r5, r0
     700:	00001a63 	andeq	r1, r0, r3, ror #20
     704:	20d10005 	sbcscs	r0, r1, r5
     708:	00050000 	andeq	r0, r5, r0
     70c:	000006ea 	andeq	r0, r0, sl, ror #13
     710:	1efa0005 	cdpne	0, 15, cr0, cr10, cr5, {0}
     714:	00050000 	andeq	r0, r5, r0
     718:	0000005e 	andeq	r0, r0, lr, asr r0
     71c:	23170005 	tstcs	r7, #5
     720:	00050000 	andeq	r0, r5, r0
     724:	00000fe8 	andeq	r0, r0, r8, ror #31
     728:	03c40005 	biceq	r0, r4, #5
     72c:	00050000 	andeq	r0, r5, r0
     730:	000003a1 	andeq	r0, r0, r1, lsr #7
     734:	003f0005 	eorseq	r0, pc, r5
     738:	00050000 	andeq	r0, r5, r0
     73c:	00001486 	andeq	r1, r0, r6, lsl #9
     740:	0b460005 	bleq	118075c <FPU_ENABLE_CPACR_VALUE+0x28075c>
     744:	00050000 	andeq	r0, r5, r0
     748:	00002327 	andeq	r2, r0, r7, lsr #6
     74c:	24ce0005 	strbcs	r0, [lr], #5
     750:	00050000 	andeq	r0, r5, r0
     754:	00001d4f 	andeq	r1, r0, pc, asr #26
     758:	11da0005 	bicsne	r0, sl, r5
     75c:	00050000 	andeq	r0, r5, r0
     760:	00001135 	andeq	r1, r0, r5, lsr r1
     764:	24020005 	strcs	r0, [r2], #-5
     768:	00050000 	andeq	r0, r5, r0
     76c:	00002017 	andeq	r2, r0, r7, lsl r0
     770:	12190005 	andsne	r0, r9, #5
     774:	00050000 	andeq	r0, r5, r0
     778:	00000d54 	andeq	r0, r0, r4, asr sp
     77c:	14e90005 	strbtne	r0, [r9], #5
     780:	00050000 	andeq	r0, r5, r0
     784:	00001e90 	muleq	r0, r0, lr
     788:	0ad80005 	beq	ff6007a4 <FPU_MVFR1_ADDR+0x1f5f1860>
     78c:	00050000 	andeq	r0, r5, r0
     790:	0000078d 	andeq	r0, r0, sp, lsl #15
     794:	18770005 	ldmdane	r7!, {r0, r2}^
     798:	00050000 	andeq	r0, r5, r0
     79c:	00000ef7 	strdeq	r0, [r0], -r7
     7a0:	13720005 	cmnne	r2, #5
     7a4:	00050000 	andeq	r0, r5, r0
     7a8:	00001063 	andeq	r1, r0, r3, rrx
     7ac:	06c60005 	strbeq	r0, [r6], r5
     7b0:	00050000 	andeq	r0, r5, r0
     7b4:	000019c1 	andeq	r1, r0, r1, asr #19
     7b8:	0a790005 	beq	1e407d4 <FPU_ENABLE_CPACR_VALUE+0xf407d4>
     7bc:	00050000 	andeq	r0, r5, r0
     7c0:	00000832 	andeq	r0, r0, r2, lsr r8
     7c4:	0be80005 	bleq	ffa007e0 <FPU_MVFR1_ADDR+0x1f9f189c>
     7c8:	00050000 	andeq	r0, r5, r0
     7cc:	000002b8 			; <UNDEFINED> instruction: 0x000002b8
     7d0:	07260005 	streq	r0, [r6, -r5]!
     7d4:	00050000 	andeq	r0, r5, r0
     7d8:	00001fc5 	andeq	r1, r0, r5, asr #31
     7dc:	0c8f0005 	stceq	0, cr0, [pc], {5}
     7e0:	00050000 	andeq	r0, r5, r0
     7e4:	00000903 	andeq	r0, r0, r3, lsl #18
     7e8:	03d40006 	bicseq	r0, r4, #6
     7ec:	00050000 	andeq	r0, r5, r0
     7f0:	0000203c 	andeq	r2, r0, ip, lsr r0
     7f4:	23b10006 			; <UNDEFINED> instruction: 0x23b10006
     7f8:	00050000 	andeq	r0, r5, r0
     7fc:	0000119c 	muleq	r0, ip, r1
     800:	09e00005 	stmibeq	r0!, {r0, r2}^
     804:	00050000 	andeq	r0, r5, r0
     808:	000005fa 	strdeq	r0, [r0], -sl
     80c:	1d380005 	ldcne	0, cr0, [r8, #-20]!	; 0xffffffec
     810:	00050000 	andeq	r0, r5, r0
     814:	00000f4f 	andeq	r0, r0, pc, asr #30
     818:	24730005 	ldrbtcs	r0, [r3], #-5
     81c:	00050000 	andeq	r0, r5, r0
     820:	00000ac2 	andeq	r0, r0, r2, asr #21
     824:	18b10005 	ldmne	r1!, {r0, r2}
     828:	00050000 	andeq	r0, r5, r0
     82c:	0000133a 	andeq	r1, r0, sl, lsr r3
     830:	0f320005 	svceq	0x00320005
     834:	00050000 	andeq	r0, r5, r0
     838:	000004ee 	andeq	r0, r0, lr, ror #9
     83c:	18460005 	stmdane	r6, {r0, r2}^
     840:	00050000 	andeq	r0, r5, r0
     844:	000002e8 	andeq	r0, r0, r8, ror #5
     848:	13f20005 	mvnsne	r0, #5
     84c:	00050000 	andeq	r0, r5, r0
     850:	00001ba6 	andeq	r1, r0, r6, lsr #23
     854:	02ab0005 	adceq	r0, fp, #5
     858:	00050000 	andeq	r0, r5, r0
     85c:	00001f1c 	andeq	r1, r0, ip, lsl pc
     860:	212c0005 			; <UNDEFINED> instruction: 0x212c0005
     864:	00060000 	andeq	r0, r6, r0
     868:	00000dbe 			; <UNDEFINED> instruction: 0x00000dbe
     86c:	225d0006 	subscs	r0, sp, #6
     870:	00060000 	andeq	r0, r6, r0
     874:	00000e1d 	andeq	r0, r0, sp, lsl lr
     878:	19280005 	stmdbne	r8!, {r0, r2}
     87c:	00050000 	andeq	r0, r5, r0
     880:	00002448 	andeq	r2, r0, r8, asr #8
     884:	1d5f0005 	ldclne	0, cr0, [pc, #-20]	; 878 <SCB_AIRCR_PRIGROUP_MASK+0x178>
     888:	00050000 	andeq	r0, r5, r0
     88c:	00001c67 	andeq	r1, r0, r7, ror #24
     890:	0e050005 	cdpeq	0, 0, cr0, cr5, cr5, {0}
     894:	00050000 	andeq	r0, r5, r0
     898:	00001814 	andeq	r1, r0, r4, lsl r8
     89c:	18290005 	stmdane	r9!, {r0, r2}
     8a0:	00050000 	andeq	r0, r5, r0
     8a4:	000012d4 	ldrdeq	r1, [r0], -r4
     8a8:	0d8a0005 	stceq	0, cr0, [sl, #20]
     8ac:	00050000 	andeq	r0, r5, r0
     8b0:	00000a27 	andeq	r0, r0, r7, lsr #20
     8b4:	0b0a0005 	bleq	2808d0 <SCB_VECTKEYSTAT_INV_MASK+0x2708d1>
     8b8:	04000000 	streq	r0, [r0], #-0
     8bc:	00df0200 	sbcseq	r0, pc, r0, lsl #4
     8c0:	11070000 	mrsne	r0, (UNDEF: 7)
     8c4:	03000000 	movweq	r0, #0
     8c8:	10030100 	andne	r0, r3, r0, lsl #2
     8cc:	b4110502 	ldrlt	r0, [r1], #-1282	; 0xfffffafe
     8d0:	04000026 	streq	r0, [r0], #-38	; 0xffffffda
     8d4:	05061103 	streq	r1, [r6, #-259]	; 0xfffffefd
     8d8:	002c6911 	eoreq	r6, ip, r1, lsl r9
     8dc:	03140300 	tsteq	r4, #0, 6
     8e0:	00094e07 	andeq	r4, r9, r7, lsl #28
     8e4:	15030400 	strne	r0, [r3, #-1024]	; 0xfffffc00
     8e8:	6b110505 	blvs	441d04 <FPU_CPACR_CP10+0x141d04>
     8ec:	03000026 	movweq	r0, #38	; 0x26
     8f0:	ed070414 	cfstrs	mvf0, [r7, #-80]	; 0xffffffb0
     8f4:	0400000a 	streq	r0, [r0], #-10
     8f8:	000b3f07 	andeq	r3, fp, r7, lsl #30
     8fc:	b2070400 	andlt	r0, r7, #0, 8
     900:	0400000c 	streq	r0, [r0], #-12
     904:	07071203 	streq	r1, [r7, -r3, lsl #4]
     908:	00000e75 	andeq	r0, r0, r5, ror lr
     90c:	08130304 	ldmdaeq	r3, {r2, r8, r9}
     910:	000ea307 	andeq	sl, lr, r7, lsl #6
     914:	15030400 	strne	r0, [r3, #-1024]	; 0xfffffc00
     918:	b5110509 	ldrlt	r0, [r1, #-1289]	; 0xfffffaf7
     91c:	03000042 	movweq	r0, #66	; 0x42
     920:	bf070a13 	svclt	0x00070a13
     924:	0400000e 	streq	r0, [r0], #-14
     928:	000f1107 	andeq	r1, pc, r7, lsl #2
     92c:	16030400 	strne	r0, [r3], -r0, lsl #8
     930:	5a11050b 	bpl	441d64 <FPU_CPACR_CP10+0x141d64>
     934:	03000026 	movweq	r0, #38	; 0x26
     938:	11050c14 	tstne	r5, r4, lsl ip
     93c:	00003233 	andeq	r3, r0, r3, lsr r2
     940:	04041303 	streq	r1, [r4], #-771	; 0xfffffcfd
     944:	3bce1b05 	blcc	ff387560 <FPU_MVFR1_ADDR+0x1f37861c>
     948:	04040000 	streq	r0, [r4], #-0
     94c:	00040004 	andeq	r0, r4, r4
     950:	d4130500 	ldrle	r0, [r3], #-1280	; 0xfffffb00
     954:	0500002b 	streq	r0, [r0, #-43]	; 0xffffffd5
     958:	002d301c 	eoreq	r3, sp, ip, lsl r0
     95c:	e71e0500 	ldr	r0, [lr, -r0, lsl #10]
     960:	0500003a 	streq	r0, [r0, #-58]	; 0xffffffc6
     964:	002fd720 	eoreq	sp, pc, r0, lsr #14
     968:	ea220500 	b	881d70 <FPU_CPACR_CP10+0x581d70>
     96c:	05000025 	streq	r0, [r0, #-37]	; 0xffffffdb
     970:	0025ad23 	eoreq	sl, r5, r3, lsr #26
     974:	c9250500 	stmdbgt	r5!, {r8, sl}
     978:	0500003a 	streq	r0, [r0, #-58]	; 0xffffffc6
     97c:	002da327 	eoreq	sl, sp, r7, lsr #6
     980:	2e2a0500 	cfsh64cs	mvdx0, mvdx10, #0
     984:	05000029 	streq	r0, [r0, #-41]	; 0xffffffd7
     988:	003a4a2b 	eorseq	r4, sl, fp, lsr #20
     98c:	902d0500 	eorls	r0, sp, r0, lsl #10
     990:	05000037 	streq	r0, [r0, #-55]	; 0xffffffc9
     994:	002aa72e 	eoreq	sl, sl, lr, lsr #14
     998:	6f300500 	svcvs	0x00300500
     99c:	05000034 	streq	r0, [r0, #-52]	; 0xffffffcc
     9a0:	0031a632 	eorseq	sl, r1, r2, lsr r6
     9a4:	53330500 	teqpl	r3, #0, 10
     9a8:	05000037 	streq	r0, [r0, #-55]	; 0xffffffc9
     9ac:	003ea435 	eorseq	sl, lr, r5, lsr r4
     9b0:	46370500 	ldrtmi	r0, [r7], -r0, lsl #10
     9b4:	0500003f 	streq	r0, [r0, #-63]	; 0xffffffc1
     9b8:	003e203a 	eorseq	r2, lr, sl, lsr r0
     9bc:	4b3c0500 	blmi	f01dc4 <FPU_ENABLE_CPACR_VALUE+0x1dc4>
     9c0:	0500002a 	streq	r0, [r0, #-42]	; 0xffffffd6
     9c4:	002ddb3e 	eoreq	sp, sp, lr, lsr fp
     9c8:	f5400500 			; <UNDEFINED> instruction: 0xf5400500
     9cc:	05000027 	streq	r0, [r0, #-39]	; 0xffffffd9
     9d0:	00426441 	subeq	r6, r2, r1, asr #8
     9d4:	35430500 	strbcc	r0, [r3, #-1280]	; 0xfffffb00
     9d8:	05000034 	streq	r0, [r0, #-52]	; 0xffffffcc
     9dc:	00402145 	subeq	r2, r0, r5, asr #2
     9e0:	42480500 	submi	r0, r8, #0, 10
     9e4:	05000026 	streq	r0, [r0, #-38]	; 0xffffffda
     9e8:	0040bb4b 	subeq	fp, r0, fp, asr #22
     9ec:	324d0500 	subcc	r0, sp, #0, 10
     9f0:	0500003a 	streq	r0, [r0, #-58]	; 0xffffffc6
     9f4:	00403f4f 	subeq	r3, r0, pc, asr #30
     9f8:	a1510500 	cmpge	r1, r0, lsl #10
     9fc:	05000040 	streq	r0, [r0, #-64]	; 0xffffffc0
     a00:	00411253 	subeq	r1, r1, r3, asr r2
     a04:	28550500 	ldmdacs	r5, {r8, sl}^
     a08:	05000037 	streq	r0, [r0, #-55]	; 0xffffffc9
     a0c:	003b9e57 	eorseq	r9, fp, r7, asr lr
     a10:	18590500 	ldmdane	r9, {r8, sl}^
     a14:	0500003f 	streq	r0, [r0, #-63]	; 0xffffffc1
     a18:	0036fb5b 	eorseq	pc, r6, fp, asr fp	; <UNPREDICTABLE>
     a1c:	075d0500 	ldrbeq	r0, [sp, -r0, lsl #10]
     a20:	05000027 	streq	r0, [r0, #-39]	; 0xffffffd9
     a24:	0042e65f 	subeq	lr, r2, pc, asr r6
     a28:	2b610500 	blcs	1841e30 <FPU_ENABLE_CPACR_VALUE+0x941e30>
     a2c:	05000041 	streq	r0, [r0, #-65]	; 0xffffffbf
     a30:	0035e463 	eorseq	lr, r5, r3, ror #8
     a34:	09650500 	stmdbeq	r5!, {r8, sl}^
     a38:	0500003a 	streq	r0, [r0, #-58]	; 0xffffffc6
     a3c:	00431367 	subeq	r1, r3, r7, ror #6
     a40:	c96a0500 	stmdbgt	sl!, {r8, sl}^
     a44:	05000035 	streq	r0, [r0, #-53]	; 0xffffffcb
     a48:	0026256c 	eoreq	r2, r6, ip, ror #10
     a4c:	536e0500 	cmnpl	lr, #0, 10
     a50:	05000034 	streq	r0, [r0, #-52]	; 0xffffffcc
     a54:	00278870 	eoreq	r8, r7, r0, ror r8
     a58:	c6720500 	ldrbtgt	r0, [r2], -r0, lsl #10
     a5c:	0500002e 	streq	r0, [r0, #-46]	; 0xffffffd2
     a60:	002ae274 	eoreq	lr, sl, r4, ror r2
     a64:	14760500 	ldrbtne	r0, [r6], #-1280	; 0xfffffb00
     a68:	05000029 	streq	r0, [r0, #-41]	; 0xffffffd7
     a6c:	00440678 	subeq	r0, r4, r8, ror r6
     a70:	4d7a0500 	cfldr64mi	mvdx0, [sl, #-0]
     a74:	05000038 	streq	r0, [r0, #-56]	; 0xffffffc8
     a78:	0041867c 	subeq	r8, r1, ip, ror r6
     a7c:	227e0500 	rsbscs	r0, lr, #0, 10
     a80:	05000039 	streq	r0, [r0, #-57]	; 0xffffffc7
     a84:	31d60181 	bicscc	r0, r6, r1, lsl #3
     a88:	83050000 	movwhi	r0, #20480	; 0x5000
     a8c:	002df901 	eoreq	pc, sp, r1, lsl #18
     a90:	01860500 	orreq	r0, r6, r0, lsl #10
     a94:	0000307b 	andeq	r3, r0, fp, ror r0
     a98:	04018805 	streq	r8, [r1], #-2053	; 0xfffff7fb
     a9c:	0500003b 	streq	r0, [r0, #-59]	; 0xffffffc5
     aa0:	2afd018a 	bcs	fff410d0 <FPU_MVFR1_ADDR+0x1ff3218c>
     aa4:	8c050000 	stchi	0, cr0, [r5], {-0}
     aa8:	003c8801 	eorseq	r8, ip, r1, lsl #16
     aac:	018e0500 	orreq	r0, lr, r0, lsl #10
     ab0:	00002b48 	andeq	r2, r0, r8, asr #22
     ab4:	ac019005 	stcge	0, cr9, [r1], {5}
     ab8:	0500002e 	streq	r0, [r0, #-46]	; 0xffffffd2
     abc:	2b170192 	blcs	5c110c <FPU_CPACR_CP10+0x2c110c>
     ac0:	94050000 	strls	r0, [r5], #-0
     ac4:	002b9b01 	eoreq	r9, fp, r1, lsl #22
     ac8:	01960500 	orrseq	r0, r6, r0, lsl #10
     acc:	00002b62 	andeq	r2, r0, r2, ror #22
     ad0:	e1019805 	tst	r1, r5, lsl #16
     ad4:	05000036 	streq	r0, [r0, #-54]	; 0xffffffca
     ad8:	2a00019a 	bcs	1148 <SCB_AIRCR_PRIGROUP_MASK+0xa48>
     adc:	9c050000 	stcls	0, cr0, [r5], {-0}
     ae0:	00432c01 	subeq	r2, r3, r1, lsl #24
     ae4:	019f0500 	orrseq	r0, pc, r0, lsl #10
     ae8:	00002f96 	muleq	r0, r6, pc	; <UNPREDICTABLE>
     aec:	00000400 	andeq	r0, r0, r0, lsl #8
     af0:	42a11005 	adcmi	r1, r1, #5
     af4:	3d050000 	stccc	0, cr0, [r5, #-0]
     af8:	00003a22 	andeq	r3, r0, r2, lsr #20
     afc:	33443f05 	movtcc	r3, #20229	; 0x4f05
     b00:	41050000 	mrsmi	r0, (UNDEF: 5)
     b04:	000042ca 	andeq	r4, r0, sl, asr #5
     b08:	396b4305 	stmdbcc	fp!, {r0, r2, r8, r9, lr}^
     b0c:	46050000 	strmi	r0, [r5], -r0
     b10:	00003cef 	andeq	r3, r0, pc, ror #25
     b14:	3ee54805 	cdpcc	8, 14, cr4, cr5, cr5, {0}
     b18:	4a050000 	bmi	140b20 <SCB_VECTKEYSTAT_INV_MASK+0x130b21>
     b1c:	000041b3 			; <UNDEFINED> instruction: 0x000041b3
     b20:	3bf94c05 	blcc	ffe53b3c <FPU_MVFR1_ADDR+0x1fe44bf8>
     b24:	4f050000 	svcmi	0x00050000
     b28:	0000407c 	andeq	r4, r0, ip, ror r0
     b2c:	43455105 	movtmi	r5, #20741	; 0x5105
     b30:	53050000 	movwpl	r0, #20480	; 0x5000
     b34:	00002a91 	muleq	r0, r1, sl
     b38:	36585505 	ldrbcc	r5, [r8], -r5, lsl #10
     b3c:	04000000 	streq	r0, [r0], #-0
     b40:	1b050000 	blne	140b48 <SCB_VECTKEYSTAT_INV_MASK+0x130b49>
     b44:	000034e8 	andeq	r3, r0, r8, ror #9
     b48:	32701d05 	rsbscc	r1, r0, #320	; 0x140
     b4c:	1f050000 	svcne	0x00050000
     b50:	00003247 	andeq	r3, r0, r7, asr #4
     b54:	3d652105 	stfcce	f2, [r5, #-20]!	; 0xffffffec
     b58:	23050000 	movwcs	r0, #20480	; 0x5000
     b5c:	0000354e 	andeq	r3, r0, lr, asr #10
     b60:	36252505 	strtcc	r2, [r5], -r5, lsl #10
     b64:	27050000 	strcs	r0, [r5, -r0]
     b68:	00003ca2 	andeq	r3, r0, r2, lsr #25
     b6c:	38de2a05 	ldmcc	lr, {r0, r2, r9, fp, sp}^
     b70:	2c050000 	stccs	0, cr0, [r5], {-0}
     b74:	00002575 	andeq	r2, r0, r5, ror r5
     b78:	27df2e05 	ldrbcs	r2, [pc, r5, lsl #28]
     b7c:	30050000 	andcc	r0, r5, r0
     b80:	00003ab3 			; <UNDEFINED> instruction: 0x00003ab3
     b84:	43913305 	orrsmi	r3, r1, #335544320	; 0x14000000
     b88:	35050000 	strcc	r0, [r5, #-0]
     b8c:	000037c1 	andeq	r3, r0, r1, asr #15
     b90:	3b1f3805 	blcc	7cebac <FPU_CPACR_CP10+0x4cebac>
     b94:	3a050000 	bcc	140b9c <SCB_VECTKEYSTAT_INV_MASK+0x130b9d>
     b98:	00003d4e 	andeq	r3, r0, lr, asr #26
     b9c:	39f43c05 	ldmibcc	r4!, {r0, r2, sl, fp, ip, sp}^
     ba0:	3e050000 	cdpcc	0, 0, cr0, cr5, cr0, {0}
     ba4:	00002dc1 	andeq	r2, r0, r1, asr #27
     ba8:	3f8e4105 	svccc	0x008e4105
     bac:	43050000 	movwmi	r0, #20480	; 0x5000
     bb0:	000028a2 	andeq	r2, r0, r2, lsr #17
     bb4:	3f644505 	svccc	0x00644505
     bb8:	48050000 	stmdami	r5, {}	; <UNPREDICTABLE>
     bbc:	00003e10 	andeq	r3, r0, r0, lsl lr
     bc0:	383d4a05 	ldmdacc	sp!, {r0, r2, r9, fp, lr}
     bc4:	4c050000 	stcmi	0, cr0, [r5], {-0}
     bc8:	000032ef 	andeq	r3, r0, pc, ror #5
     bcc:	3f084e05 	svccc	0x00084e05
     bd0:	50050000 	andpl	r0, r5, r0
     bd4:	00003e3d 	andeq	r3, r0, sp, lsr lr
     bd8:	38945205 	ldmcc	r4, {r0, r2, r9, ip, lr}
     bdc:	54050000 	strpl	r0, [r5], #-0
     be0:	0000259d 	muleq	r0, sp, r5
     be4:	32875605 	addcc	r5, r7, #5242880	; 0x500000
     be8:	58050000 	stmdapl	r5, {}	; <UNPREDICTABLE>
     bec:	00002c59 	andeq	r2, r0, r9, asr ip
     bf0:	2bf75a05 	blcs	ffdd740c <FPU_MVFR1_ADDR+0x1fdc84c8>
     bf4:	5c050000 	stcpl	0, cr0, [r5], {-0}
     bf8:	00003507 	andeq	r3, r0, r7, lsl #10
     bfc:	31c45e05 	biccc	r5, r4, r5, lsl #28
     c00:	60050000 	andvs	r0, r5, r0
     c04:	00002a7f 	andeq	r2, r0, pc, ror sl
     c08:	3c536205 	lfmcc	f6, 2, [r3], {5}
     c0c:	64050000 	strvs	r0, [r5], #-0
     c10:	000041fa 	strdeq	r4, [r0], -sl
     c14:	41546605 	cmpmi	r4, r5, lsl #12
     c18:	69050000 	stmdbvs	r5, {}	; <UNPREDICTABLE>
     c1c:	00002d75 	andeq	r2, r0, r5, ror sp
     c20:	32976b05 	addscc	r6, r7, #5120	; 0x1400
     c24:	6e050000 	cdpvs	0, 0, cr0, cr5, cr0, {0}
     c28:	00003597 	muleq	r0, r7, r5
     c2c:	41a07005 	movmi	r7, r5
     c30:	73050000 	movwvc	r0, #20480	; 0x5000
     c34:	00004068 	andeq	r4, r0, r8, rrx
     c38:	3f337505 	svccc	0x00337505
     c3c:	78050000 	stmdavc	r5, {}	; <UNPREDICTABLE>
     c40:	00002e9a 	muleq	r0, sl, lr
     c44:	258b7b05 	strcs	r7, [fp, #2821]	; 0xb05
     c48:	7d050000 	stcvc	0, cr0, [r5, #-0]
     c4c:	000037da 	ldrdeq	r3, [r0], -sl
     c50:	3b4f7f05 	blcc	13e086c <FPU_ENABLE_CPACR_VALUE+0x4e086c>
     c54:	81050000 	mrshi	r0, (UNDEF: 5)
     c58:	002fc501 	eoreq	ip, pc, r1, lsl #10
     c5c:	01830500 	orreq	r0, r3, r0, lsl #10
     c60:	00004056 	andeq	r4, r0, r6, asr r0
     c64:	a2018505 	andge	r8, r1, #20971520	; 0x1400000
     c68:	0500003f 	streq	r0, [r0, #-63]	; 0xffffffc1
     c6c:	35850187 	strcc	r0, [r5, #391]	; 0x187
     c70:	89050000 	stmdbhi	r5, {}	; <UNPREDICTABLE>
     c74:	00309701 	eorseq	r9, r0, r1, lsl #14
     c78:	018b0500 	orreq	r0, fp, r0, lsl #10
     c7c:	00004452 	andeq	r4, r0, r2, asr r4
     c80:	18018d05 	stmdane	r1, {r0, r2, r8, sl, fp, pc}
     c84:	0500002e 	streq	r0, [r0, #-46]	; 0xffffffd2
     c88:	294b018f 	stmdbcs	fp, {r0, r1, r2, r3, r7, r8}^
     c8c:	91050000 	mrsls	r0, (UNDEF: 5)
     c90:	0026f401 	eoreq	pc, r6, r1, lsl #8
     c94:	01930500 	orrseq	r0, r3, r0, lsl #10
     c98:	00003cfc 	strdeq	r3, [r0], -ip
     c9c:	e2019505 	and	r9, r1, #20971520	; 0x1400000
     ca0:	05000043 	streq	r0, [r0, #-67]	; 0xffffffbd
     ca4:	2f6c0197 	svccs	0x006c0197
     ca8:	99050000 	stmdbls	r5, {}	; <UNPREDICTABLE>
     cac:	00337601 	eorseq	r7, r3, r1, lsl #12
     cb0:	00040000 	andeq	r0, r4, r0
     cb4:	ca1d0500 	bgt	7420bc <FPU_CPACR_CP10+0x4420bc>
     cb8:	05000033 	streq	r0, [r0, #-51]	; 0xffffffcd
     cbc:	0028321e 	eoreq	r3, r8, lr, lsl r2
     cc0:	23200500 	nopcs	{0}	; <UNPREDICTABLE>
     cc4:	05000027 	streq	r0, [r0, #-39]	; 0xffffffd9
     cc8:	0028b421 	eoreq	fp, r8, r1, lsr #8
     ccc:	1a230500 	bne	8c20d4 <FPU_CPACR_CP10+0x5c20d4>
     cd0:	0500002a 	streq	r0, [r0, #-42]	; 0xffffffd6
     cd4:	00274f24 	eoreq	r4, r7, r4, lsr #30
     cd8:	c0260500 	eorgt	r0, r6, r0, lsl #10
     cdc:	05000027 	streq	r0, [r0, #-39]	; 0xffffffd9
     ce0:	00301427 	eorseq	r1, r0, r7, lsr #8
     ce4:	19290500 	stmdbne	r9!, {r8, sl}
     ce8:	0500003c 	streq	r0, [r0, #-60]	; 0xffffffc4
     cec:	002c072a 	eoreq	r0, ip, sl, lsr #14
     cf0:	332c0500 			; <UNDEFINED> instruction: 0x332c0500
     cf4:	05000044 	streq	r0, [r0, #-68]	; 0xffffffbc
     cf8:	003d0f2d 	eorseq	r0, sp, sp, lsr #30
     cfc:	67300500 	ldrvs	r0, [r0, -r0, lsl #10]!
     d00:	05000028 	streq	r0, [r0, #-40]	; 0xffffffd8
     d04:	002ff532 	eoreq	pc, pc, r2, lsr r5	; <UNPREDICTABLE>
     d08:	85340500 	ldrhi	r0, [r4, #-1280]!	; 0xfffffb00
     d0c:	0500003e 	streq	r0, [r0, #-62]	; 0xffffffc2
     d10:	0040d636 	subeq	sp, r0, r6, lsr r6
     d14:	ff380500 			; <UNDEFINED> instruction: 0xff380500
     d18:	05000037 	streq	r0, [r0, #-55]	; 0xffffffc9
     d1c:	0042323a 	subeq	r3, r2, sl, lsr r2
     d20:	133c0500 	teqne	ip, #0, 10
     d24:	05000028 	streq	r0, [r0, #-40]	; 0xffffffd8
     d28:	0026083e 	eoreq	r0, r6, lr, lsr r8
     d2c:	66400500 	strbvs	r0, [r0], -r0, lsl #10
     d30:	05000041 	streq	r0, [r0, #-65]	; 0xffffffbf
     d34:	0032cf42 	eorseq	ip, r2, r2, asr #30
     d38:	5b440500 	blpl	1102140 <FPU_ENABLE_CPACR_VALUE+0x202140>
     d3c:	05000030 	streq	r0, [r0, #-48]	; 0xffffffd0
     d40:	00386747 	eorseq	r6, r8, r7, asr #14
     d44:	de490500 	cdple	5, 4, cr0, cr9, cr0, {0}
     d48:	0500003b 	streq	r0, [r0, #-59]	; 0xffffffc5
     d4c:	0039524b 	eorseq	r5, r9, fp, asr #4
     d50:	c94d0500 	stmdbgt	sp, {r8, sl}^
     d54:	05000029 	streq	r0, [r0, #-41]	; 0xffffffd7
     d58:	003fc84f 	eorseq	ip, pc, pc, asr #16
     d5c:	79510500 	ldmdbvc	r1, {r8, sl}^
     d60:	05000043 	streq	r0, [r0, #-67]	; 0xffffffbd
     d64:	0029e753 	eoreq	lr, r9, r3, asr r7
     d68:	88560500 	ldmdahi	r6, {r8, sl}^
     d6c:	0500002d 	streq	r0, [r0, #-45]	; 0xffffffd3
     d70:	002ee258 	eoreq	lr, lr, r8, asr r2
     d74:	385a0500 	ldmdacc	sl, {r8, sl}^
     d78:	0500003c 	streq	r0, [r0, #-60]	; 0xffffffc4
     d7c:	003e4d5c 	eorseq	r4, lr, ip, asr sp
     d80:	695e0500 	ldmdbvs	lr, {r8, sl}^
     d84:	0500003e 	streq	r0, [r0, #-62]	; 0xffffffc2
     d88:	0035fc60 	eorseq	pc, r5, r0, ror #24
     d8c:	77620500 	strbvc	r0, [r2, -r0, lsl #10]!
     d90:	0500003b 	streq	r0, [r0, #-59]	; 0xffffffc5
     d94:	0035ab64 	eorseq	sl, r5, r4, ror #22
     d98:	9b660500 	blls	19821a0 <FPU_ENABLE_CPACR_VALUE+0xa821a0>
     d9c:	05000039 	streq	r0, [r0, #-57]	; 0xffffffc7
     da0:	002bb568 	eoreq	fp, fp, r8, ror #10
     da4:	3b6a0500 	blcc	1a821ac <FPU_ENABLE_CPACR_VALUE+0xb821ac>
     da8:	05000036 	streq	r0, [r0, #-54]	; 0xffffffca
     dac:	00381e6c 	eorseq	r1, r8, ip, ror #28
     db0:	8d6f0500 	cfstr64hi	mvdx0, [pc, #-0]	; db8 <SCB_AIRCR_PRIGROUP_MASK+0x6b8>
     db4:	05000034 	streq	r0, [r0, #-52]	; 0xffffffcc
     db8:	0034c771 	eorseq	ip, r4, r1, ror r7
     dbc:	f3730500 	vrshl.u64	d16, d0, d3
     dc0:	05000028 	streq	r0, [r0, #-40]	; 0xffffffd8
     dc4:	003c6575 	eorseq	r6, ip, r5, ror r5
     dc8:	64770500 	ldrbtvs	r0, [r7], #-1280	; 0xfffffb00
     dcc:	05000035 	streq	r0, [r0, #-53]	; 0xffffffcb
     dd0:	00251b7a 	eoreq	r1, r5, sl, ror fp
     dd4:	f57c0500 			; <UNDEFINED> instruction: 0xf57c0500
     dd8:	05000040 	streq	r0, [r0, #-64]	; 0xffffffc0
     ddc:	0032157e 	eorseq	r1, r2, lr, ror r5
     de0:	01800500 	orreq	r0, r0, r0, lsl #10
     de4:	000041d8 	ldrdeq	r4, [r0], -r8
     de8:	2f018205 	svccs	0x00018205
     dec:	05000035 	streq	r0, [r0, #-53]	; 0xffffffcb
     df0:	3ec20184 	polccd	f0, f2, f4
     df4:	86050000 	strhi	r0, [r5], -r0
     df8:	0026d501 	eoreq	sp, r6, r1, lsl #10
     dfc:	01880500 	orreq	r0, r8, r0, lsl #10
     e00:	00002efd 	strdeq	r2, [r0], -sp
     e04:	ff018b05 			; <UNDEFINED> instruction: 0xff018b05
     e08:	05000032 	streq	r0, [r0, #-50]	; 0xffffffce
     e0c:	2f52018e 	svccs	0x0052018e
     e10:	90050000 	andls	r0, r5, r0
     e14:	003a8501 	eorseq	r8, sl, r1, lsl #10
     e18:	01920500 	orrseq	r0, r2, r0, lsl #10
     e1c:	00002887 	andeq	r2, r0, r7, lsl #17
     e20:	c5019405 	strgt	r9, [r1, #-1029]	; 0xfffffbfb
     e24:	05000043 	streq	r0, [r0, #-67]	; 0xffffffbd
     e28:	3b340196 	blcc	d01488 <FPU_CPACR_CP11+0x101488>
     e2c:	99050000 	stmdbls	r5, {}	; <UNPREDICTABLE>
     e30:	002f7f01 	eoreq	r7, pc, r1, lsl #30
     e34:	019b0500 	orrseq	r0, fp, r0, lsl #10
     e38:	000034ae 	andeq	r3, r0, lr, lsr #9
     e3c:	eb019d05 	bl	68258 <SCB_VECTKEYSTAT_INV_MASK+0x58259>
     e40:	05000030 	streq	r0, [r0, #-48]	; 0xffffffd0
     e44:	447601a4 	ldrbtmi	r0, [r6], #-420	; 0xfffffe5c
     e48:	a6050000 	strge	r0, [r5], -r0
     e4c:	003ef501 	eorseq	pc, lr, r1, lsl #10
     e50:	01a80500 			; <UNDEFINED> instruction: 0x01a80500
     e54:	00004302 	andeq	r4, r0, r2, lsl #6
     e58:	0c01aa05 			; <UNDEFINED> instruction: 0x0c01aa05
     e5c:	05000042 	streq	r0, [r0, #-66]	; 0xffffffbe
     e60:	3cb801ac 	ldfccs	f0, [r8], #688	; 0x2b0
     e64:	b3050000 	movwlt	r0, #20480	; 0x5000
     e68:	00253701 	eoreq	r3, r5, r1, lsl #14
     e6c:	01b50500 			; <UNDEFINED> instruction: 0x01b50500
     e70:	00002507 	andeq	r2, r0, r7, lsl #10
     e74:	00000400 	andeq	r0, r0, r0, lsl #8
     e78:	25521105 	ldrbcs	r1, [r2, #-261]	; 0xfffffefb
     e7c:	1b050000 	blne	140e84 <SCB_VECTKEYSTAT_INV_MASK+0x130e85>
     e80:	00002994 	muleq	r0, r4, r9
     e84:	3fe61c05 	svccc	0x00e61c05
     e88:	1f050000 	svcne	0x00050000
     e8c:	000033e4 	andeq	r3, r0, r4, ror #7
     e90:	30a92105 	adccc	r2, r9, r5, lsl #2
     e94:	23050000 	movwcs	r0, #20480	; 0x5000
     e98:	00002c9d 	muleq	r0, sp, ip
     e9c:	43572605 	cmpmi	r7, #5242880	; 0x500000
     ea0:	04000000 	streq	r0, [r0], #-0
     ea4:	11050000 	mrsne	r0, (UNDEF: 5)
     ea8:	000030c8 	andeq	r3, r0, r8, asr #1
     eac:	33571b05 	cmpcc	r7, #5120	; 0x1400
     eb0:	1c050000 	stcne	0, cr0, [r5], {-0}
     eb4:	000038a4 	andeq	r3, r0, r4, lsr #17
     eb8:	44881f05 	strmi	r1, [r8], #3845	; 0xf05
     ebc:	04000000 	streq	r0, [r0], #-0
     ec0:	11050000 	mrsne	r0, (UNDEF: 5)
     ec4:	00003ccb 	andeq	r3, r0, fp, asr #25
     ec8:	421d1805 	andsmi	r1, sp, #327680	; 0x50000
     ecc:	1a050000 	bne	140ed4 <SCB_VECTKEYSTAT_INV_MASK+0x130ed5>
     ed0:	00003fb4 			; <UNDEFINED> instruction: 0x00003fb4
     ed4:	38f31c05 	ldmcc	r3!, {r0, r2, sl, fp, ip}^
     ed8:	1f050000 	svcne	0x00050000
     edc:	00003519 	andeq	r3, r0, r9, lsl r5
     ee0:	269f2105 	ldrcs	r2, [pc], r5, lsl #2
     ee4:	23050000 	movwcs	r0, #20480	; 0x5000
     ee8:	00003bb8 			; <UNDEFINED> instruction: 0x00003bb8
     eec:	2e2a2505 	cfsh64cs	mvdx2, mvdx10, #5
     ef0:	28050000 	stmdacs	r5, {}	; <UNPREDICTABLE>
     ef4:	00003f76 	andeq	r3, r0, r6, ror pc
     ef8:	36792a05 	ldrbtcc	r2, [r9], -r5, lsl #20
     efc:	2c050000 	stccs	0, cr0, [r5], {-0}
     f00:	00002a68 	andeq	r2, r0, r8, ror #20
     f04:	34152e05 	ldrcc	r2, [r5], #-3589	; 0xfffff1fb
     f08:	30050000 	andcc	r0, r5, r0
     f0c:	000039ce 	andeq	r3, r0, lr, asr #19
     f10:	00000400 	andeq	r0, r0, r0, lsl #8
     f14:	31041605 	tstcc	r4, r5, lsl #12
     f18:	1f050000 	svcne	0x00050000
     f1c:	000031f5 	strdeq	r3, [r0], -r5
     f20:	34032205 	strcc	r2, [r3], #-517	; 0xfffffdfb
     f24:	23050000 	movwcs	r0, #20480	; 0x5000
     f28:	0000339c 	muleq	r0, ip, r3
     f2c:	2d4d2405 	cfstrdcs	mvd2, [sp, #-20]	; 0xffffffec
     f30:	25050000 	strcs	r0, [r5, #-0]
     f34:	00003d87 	andeq	r3, r0, r7, lsl #27
     f38:	36a82705 	strtcc	r2, [r8], r5, lsl #14
     f3c:	2a050000 	bcs	140f44 <SCB_VECTKEYSTAT_INV_MASK+0x130f45>
     f40:	00002986 	andeq	r2, r0, r6, lsl #19
     f44:	02000400 	andeq	r0, r0, #0, 8
     f48:	00000331 	andeq	r0, r0, r1, lsr r3
     f4c:	00001107 	andeq	r1, r0, r7, lsl #2
     f50:	01000300 	mrseq	r0, LR_irq
     f54:	05021003 	streq	r1, [r2, #-3]
     f58:	0026b411 	eoreq	fp, r6, r1, lsl r4
     f5c:	11030400 	tstne	r3, r0, lsl #8
     f60:	52110504 	andspl	r0, r1, #4, 10	; 0x1000000
     f64:	03000025 	movweq	r0, #37	; 0x25
     f68:	ed070314 	stc	3, cr0, [r7, #-80]	; 0xffffffb0
     f6c:	0400000a 	streq	r0, [r0], #-10
     f70:	000fb807 	andeq	fp, pc, r7, lsl #16
     f74:	12030400 	andne	r0, r3, #0, 8
     f78:	b6110505 	ldrlt	r0, [r1], -r5, lsl #10
     f7c:	04000044 	streq	r0, [r0], #-68	; 0xffffffbc
     f80:	05061403 	streq	r1, [r6, #-1027]	; 0xfffffbfd
     f84:	0042b511 	subeq	fp, r2, r1, lsl r5
     f88:	07130300 	ldreq	r0, [r3, -r0, lsl #6]
     f8c:	000ebf07 	andeq	fp, lr, r7, lsl #30
     f90:	11070400 	tstne	r7, r0, lsl #8
     f94:	0400000f 	streq	r0, [r0], #-15
     f98:	05081503 	streq	r1, [r8, #-1283]	; 0xfffffafd
     f9c:	00265a11 	eoreq	r5, r6, r1, lsl sl
     fa0:	09140300 	ldmdbeq	r4, {r8, r9}
     fa4:	32331105 	eorscc	r1, r3, #1073741825	; 0x40000001
     fa8:	13030000 	movwne	r0, #12288	; 0x3000
     fac:	1b050403 	blne	141fc0 <SCB_VECTKEYSTAT_INV_MASK+0x131fc1>
     fb0:	00003bce 	andeq	r3, r0, lr, asr #23
     fb4:	00040404 	andeq	r0, r4, r4, lsl #8
     fb8:	05000004 	streq	r0, [r0, #-4]
     fbc:	0029941b 	eoreq	r9, r9, fp, lsl r4
     fc0:	e61c0500 	ldr	r0, [ip], -r0, lsl #10
     fc4:	0500003f 	streq	r0, [r0, #-63]	; 0xffffffc1
     fc8:	0033e41f 	eorseq	lr, r3, pc, lsl r4
     fcc:	a9210500 	stmdbge	r1!, {r8, sl}
     fd0:	05000030 	streq	r0, [r0, #-48]	; 0xffffffd0
     fd4:	002c9d23 	eoreq	r9, ip, r3, lsr #26
     fd8:	57260500 	strpl	r0, [r6, -r0, lsl #10]!
     fdc:	00000043 	andeq	r0, r0, r3, asr #32
     fe0:	8a020004 	bhi	80ff8 <SCB_VECTKEYSTAT_INV_MASK+0x70ff9>
     fe4:	07000004 	streq	r0, [r0, -r4]
     fe8:	00000011 	andeq	r0, r0, r1, lsl r0
     fec:	03010003 	movweq	r0, #4099	; 0x1003
     ff0:	11050210 	tstne	r5, r0, lsl r2
     ff4:	000026b4 			; <UNDEFINED> instruction: 0x000026b4
     ff8:	04110304 	ldreq	r0, [r1], #-772	; 0xfffffcfc
     ffc:	266b1105 	strbtcs	r1, [fp], -r5, lsl #2
    1000:	14030000 	strne	r0, [r3], #-0
    1004:	0aed0703 	beq	ffb42c18 <FPU_MVFR1_ADDR+0x1fb33cd4>
    1008:	07040000 	streq	r0, [r4, -r0]
    100c:	00000b3f 	andeq	r0, r0, pc, lsr fp
    1010:	05130304 	ldreq	r0, [r3, #-772]	; 0xfffffcfc
    1014:	42b51105 	adcsmi	r1, r5, #1073741825	; 0x40000001
    1018:	13030000 	movwne	r0, #12288	; 0x3000
    101c:	0ebf0706 	cdpeq	7, 11, cr0, cr15, cr6, {0}
    1020:	07040000 	streq	r0, [r4, -r0]
    1024:	00000f11 	andeq	r0, r0, r1, lsl pc
    1028:	07140304 	ldreq	r0, [r4, -r4, lsl #6]
    102c:	32331105 	eorscc	r1, r3, #1073741825	; 0x40000001
    1030:	13030000 	movwne	r0, #12288	; 0x3000
    1034:	1b050403 	blne	142048 <SCB_VECTKEYSTAT_INV_MASK+0x132049>
    1038:	00003bce 	andeq	r3, r0, lr, asr #23
    103c:	08150304 	ldmdaeq	r5, {r2, r8, r9}
    1040:	265a1105 	ldrbcs	r1, [sl], -r5, lsl #2
    1044:	05040000 	streq	r0, [r4, #-0]
    1048:	00488728 	subeq	r8, r8, r8, lsr #14
    104c:	5b5e0500 	blpl	1782454 <FPU_ENABLE_CPACR_VALUE+0x882454>
    1050:	05000047 	streq	r0, [r0, #-71]	; 0xffffffb9
    1054:	00457477 	subeq	r7, r5, r7, ror r4
    1058:	018f0500 	orreq	r0, pc, r0, lsl #10
    105c:	000046a9 	andeq	r4, r0, r9, lsr #13
    1060:	53019905 	movwpl	r9, #6405	; 0x1905
    1064:	05000045 	streq	r0, [r0, #-69]	; 0xffffffbb
    1068:	485201a2 	ldmdami	r2, {r1, r5, r7, r8}^
    106c:	aa050000 	bge	141074 <SCB_VECTKEYSTAT_INV_MASK+0x131075>
    1070:	00452e01 	subeq	r2, r5, r1, lsl #28
    1074:	01b20500 			; <UNDEFINED> instruction: 0x01b20500
    1078:	00004682 	andeq	r4, r0, r2, lsl #13
    107c:	2d01ba05 	vstrcs	s22, [r1, #-20]	; 0xffffffec
    1080:	04000047 	streq	r0, [r0], #-71	; 0xffffffb9
    1084:	02000400 	andeq	r0, r0, #0, 8
    1088:	00000672 	andeq	r0, r0, r2, ror r6
    108c:	00001107 	andeq	r1, r0, r7, lsl #2
    1090:	01000300 	mrseq	r0, LR_irq
    1094:	05031003 	streq	r1, [r3, #-3]
    1098:	0026b411 	eoreq	fp, r6, r1, lsl r4
    109c:	11030400 	tstne	r3, r0, lsl #8
    10a0:	6f110504 	svcvs	0x00110504
    10a4:	0300004c 	movweq	r0, #76	; 0x4c
    10a8:	ed070513 	cfstr32	mvfx0, [r7, #-76]	; 0xffffffb4
    10ac:	0400000a 	streq	r0, [r0], #-10
    10b0:	05021403 	streq	r1, [r2, #-1027]	; 0xfffffbfd
    10b4:	00323311 	eorseq	r3, r2, r1, lsl r3
    10b8:	05130300 	ldreq	r0, [r3, #-768]	; 0xfffffd00
    10bc:	06140304 	ldreq	r0, [r4], -r4, lsl #6
    10c0:	42b51105 	adcsmi	r1, r5, #1073741825	; 0x40000001
    10c4:	13030000 	movwne	r0, #12288	; 0x3000
    10c8:	0ebf0707 	cdpeq	7, 11, cr0, cr15, cr7, {0}
    10cc:	07040000 	streq	r0, [r4, -r0]
    10d0:	00000f11 	andeq	r0, r0, r1, lsl pc
    10d4:	ce1b0504 	cfmul32gt	mvfx0, mvfx11, mvfx4
    10d8:	0400003b 	streq	r0, [r0], #-59	; 0xffffffc5
    10dc:	08120304 	ldmdaeq	r2, {r2, r8, r9}
    10e0:	4c341105 	ldfmis	f1, [r4], #-20	; 0xffffffec
    10e4:	15030000 	strne	r0, [r3, #-0]
    10e8:	04040407 	streq	r0, [r4], #-1031	; 0xfffffbf9
    10ec:	02000400 	andeq	r0, r0, #0, 8
    10f0:	00000775 	andeq	r0, r0, r5, ror r7
    10f4:	00001107 	andeq	r1, r0, r7, lsl #2
    10f8:	01000300 	mrseq	r0, LR_irq
    10fc:	05021003 	streq	r1, [r2, #-3]
    1100:	0026b411 	eoreq	fp, r6, r1, lsl r4
    1104:	11030400 	tstne	r3, r0, lsl #8
    1108:	c8110504 	ldmdagt	r1, {r2, r8, sl}
    110c:	03000030 	movweq	r0, #48	; 0x30
    1110:	ed070314 	stc	3, cr0, [r7, #-80]	; 0xffffffb0
    1114:	0400000a 	streq	r0, [r0], #-10
    1118:	00115607 	andseq	r5, r1, r7, lsl #12
    111c:	13030400 	movwne	r0, #13312	; 0x3400
    1120:	b5110505 	ldrlt	r0, [r1, #-1285]	; 0xfffffafb
    1124:	03000042 	movweq	r0, #66	; 0x42
    1128:	bf070613 	svclt	0x00070613
    112c:	0400000e 	streq	r0, [r0], #-14
    1130:	000f1107 	andeq	r1, pc, r7, lsl #2
    1134:	14030400 	strne	r0, [r3], #-1024	; 0xfffffc00
    1138:	5a110507 	bpl	44255c <FPU_CPACR_CP10+0x14255c>
    113c:	03000026 	movweq	r0, #38	; 0x26
    1140:	11050814 	tstne	r5, r4, lsl r8
    1144:	00003233 	andeq	r3, r0, r3, lsr r2
    1148:	04031303 	streq	r1, [r3], #-771	; 0xfffffcfd
    114c:	3bce1b05 	blcc	ff387d68 <FPU_MVFR1_ADDR+0x1f378e24>
    1150:	04040000 	streq	r0, [r4], #-0
    1154:	00040004 	andeq	r0, r4, r4
    1158:	571b0500 	ldrpl	r0, [fp, -r0, lsl #10]
    115c:	05000033 	streq	r0, [r0, #-51]	; 0xffffffcd
    1160:	0038a41c 	eorseq	sl, r8, ip, lsl r4
    1164:	881f0500 	ldmdahi	pc, {r8, sl}	; <UNPREDICTABLE>
    1168:	00000044 	andeq	r0, r0, r4, asr #32
    116c:	a1020004 	tstge	r2, r4
    1170:	07000008 	streq	r0, [r0, -r8]
    1174:	00000011 	andeq	r0, r0, r1, lsl r0
    1178:	03010003 	movweq	r0, #4099	; 0x1003
    117c:	11050212 	tstne	r5, r2, lsl r2
    1180:	000026b4 			; <UNDEFINED> instruction: 0x000026b4
    1184:	03130304 	tsteq	r3, #4, 6	; 0x10000000
    1188:	00094e07 	andeq	r4, r9, r7, lsl #28
    118c:	14030400 	strne	r0, [r3], #-1024	; 0xfffffc00
    1190:	69110506 	ldmdbvs	r1, {r1, r2, r8, sl}
    1194:	0300002c 	movweq	r0, #44	; 0x2c
    1198:	03040314 	movweq	r0, #17172	; 0x4314
    119c:	11050515 	tstne	r5, r5, lsl r5
    11a0:	0000266b 	andeq	r2, r0, fp, ror #12
    11a4:	07041403 	streq	r1, [r4, -r3, lsl #8]
    11a8:	00000aed 	andeq	r0, r0, sp, ror #21
    11ac:	0b3f0704 	bleq	fc2dc4 <FPU_ENABLE_CPACR_VALUE+0xc2dc4>
    11b0:	07040000 	streq	r0, [r4, -r0]
    11b4:	00000cb2 			; <UNDEFINED> instruction: 0x00000cb2
    11b8:	08150304 	ldmdaeq	r5, {r2, r8, r9}
    11bc:	4c341105 	ldfmis	f1, [r4], #-20	; 0xffffffec
    11c0:	14030000 	strne	r0, [r3], #-0
    11c4:	33110507 	tstcc	r1, #29360128	; 0x1c00000
    11c8:	03000032 	movweq	r0, #50	; 0x32
    11cc:	03040413 	movweq	r0, #17427	; 0x4413
    11d0:	11050914 	tstne	r5, r4, lsl r9
    11d4:	000042b5 			; <UNDEFINED> instruction: 0x000042b5
    11d8:	070a1303 	streq	r1, [sl, -r3, lsl #6]
    11dc:	00000ebf 			; <UNDEFINED> instruction: 0x00000ebf
    11e0:	0f110704 	svceq	0x00110704
    11e4:	05040000 	streq	r0, [r4, #-0]
    11e8:	003bce1b 	eorseq	ip, fp, fp, lsl lr
    11ec:	15030400 	strne	r0, [r3, #-1024]	; 0xfffffc00
    11f0:	0304040a 	movweq	r0, #17418	; 0x440a
    11f4:	11050b18 	tstne	r5, r8, lsl fp
    11f8:	0000265a 	andeq	r2, r0, sl, asr r6
    11fc:	0f2e0504 	svceq	0x002e0504
    1200:	0500004d 	streq	r0, [r0, #-77]	; 0xffffffb3
    1204:	0053d155 	subseq	sp, r3, r5, asr r1
    1208:	87730500 	ldrbhi	r0, [r3, -r0, lsl #10]!
    120c:	0500004e 	streq	r0, [r0, #-78]	; 0xffffffb2
    1210:	51ed0193 			; <UNDEFINED> instruction: 0x51ed0193
    1214:	b2050000 	andlt	r0, r5, #0
    1218:	00508701 	subseq	r8, r0, r1, lsl #14
    121c:	01d10500 	bicseq	r0, r1, r0, lsl #10
    1220:	00005355 	andeq	r5, r0, r5, asr r3
    1224:	db01dc05 	blle	78240 <SCB_VECTKEYSTAT_INV_MASK+0x68241>
    1228:	0400004f 	streq	r0, [r0], #-79	; 0xffffffb1
    122c:	02000400 	andeq	r0, r0, #0, 8
    1230:	00000af8 	strdeq	r0, [r0], -r8
    1234:	00001107 	andeq	r1, r0, r7, lsl #2
    1238:	01000300 	mrseq	r0, LR_irq
    123c:	05021103 	streq	r1, [r2, #-259]	; 0xfffffefd
    1240:	0026b411 	eoreq	fp, r6, r1, lsl r4
    1244:	12030400 	andne	r0, r3, #0, 8
    1248:	0aed0703 	beq	ffb42e5c <FPU_MVFR1_ADDR+0x1fb33f18>
    124c:	03040000 	movweq	r0, #16384	; 0x4000
    1250:	11050413 	tstne	r5, r3, lsl r4
    1254:	00003233 	andeq	r3, r0, r3, lsr r2
    1258:	04031303 	streq	r1, [r3], #-771	; 0xfffffcfd
    125c:	05051403 	streq	r1, [r5, #-1027]	; 0xfffffbfd
    1260:	0042b511 	subeq	fp, r2, r1, lsl r5
    1264:	06130300 	ldreq	r0, [r3], -r0, lsl #6
    1268:	000ebf07 	andeq	fp, lr, r7, lsl #30
    126c:	11070400 	tstne	r7, r0, lsl #8
    1270:	0400000f 	streq	r0, [r0], #-15
    1274:	3bce1b05 	blcc	ff387e90 <FPU_MVFR1_ADDR+0x1f378f4c>
    1278:	03040000 	movweq	r0, #16384	; 0x4000
    127c:	12050714 	andne	r0, r5, #20, 14	; 0x500000
    1280:	00005592 	muleq	r0, r2, r5
    1284:	08150304 	ldmdaeq	r5, {r2, r8, r9}
    1288:	0012a407 	andseq	sl, r2, r7, lsl #8
    128c:	16030400 	strne	r0, [r3], -r0, lsl #8
    1290:	22110509 	andscs	r0, r1, #37748736	; 0x2400000
    1294:	04000056 	streq	r0, [r0], #-86	; 0xffffffaa
    1298:	050a1703 	streq	r1, [sl, #-1795]	; 0xfffff8fd
    129c:	00265a11 	eoreq	r5, r6, r1, lsl sl
    12a0:	00040400 	andeq	r0, r4, r0, lsl #8
    12a4:	05000004 	streq	r0, [r0, #-4]
    12a8:	00554c11 	subseq	r4, r5, r1, lsl ip
    12ac:	411b0500 	tstmi	fp, r0, lsl #10
    12b0:	05000056 	streq	r0, [r0, #-86]	; 0xffffffaa
    12b4:	0054f11c 	subseq	pc, r4, ip, lsl r1	; <UNPREDICTABLE>
    12b8:	791f0500 	ldmdbvc	pc, {r8, sl}	; <UNPREDICTABLE>
    12bc:	05000056 	streq	r0, [r0, #-86]	; 0xffffffaa
    12c0:	00573520 	subseq	r3, r7, r0, lsr #10
    12c4:	f9230500 			; <UNDEFINED> instruction: 0xf9230500
    12c8:	05000056 	streq	r0, [r0, #-86]	; 0xffffffaa
    12cc:	00578c24 	subseq	r8, r7, r4, lsr #24
    12d0:	5d270500 	cfstr32pl	mvfx0, [r7, #-0]
    12d4:	05000056 	streq	r0, [r0, #-86]	; 0xffffffaa
    12d8:	0055e928 	subseq	lr, r5, r8, lsr #18
    12dc:	142b0500 	strtne	r0, [fp], #-1280	; 0xfffffb00
    12e0:	05000057 	streq	r0, [r0, #-87]	; 0xffffffa9
    12e4:	0055b92d 	subseq	fp, r5, sp, lsr #18
    12e8:	952f0500 	strls	r0, [pc, #-1280]!	; df0 <SCB_AIRCR_PRIGROUP_MASK+0x6f0>
    12ec:	05000056 	streq	r0, [r0, #-86]	; 0xffffffaa
    12f0:	00557331 	subseq	r7, r5, r1, lsr r3
    12f4:	6e340500 	cfabs32vs	mvfx0, mvfx4
    12f8:	00000057 	andeq	r0, r0, r7, asr r0
    12fc:	34020004 	strcc	r0, [r2], #-4
    1300:	0700000e 	streq	r0, [r0, -lr]
    1304:	00000011 	andeq	r0, r0, r1, lsl r0
    1308:	03010003 	movweq	r0, #4099	; 0x1003
    130c:	11050210 	tstne	r5, r0, lsl r2
    1310:	000026b4 			; <UNDEFINED> instruction: 0x000026b4
    1314:	03110304 	tsteq	r1, #4, 6	; 0x10000000
    1318:	57f71105 	ldrbpl	r1, [r7, r5, lsl #2]!
    131c:	04040000 	streq	r0, [r4], #-0
    1320:	02000400 	andeq	r0, r0, #0, 8
    1324:	00000ec1 	andeq	r0, r0, r1, asr #29
    1328:	00001107 	andeq	r1, r0, r7, lsl #2
    132c:	01000300 	mrseq	r0, LR_irq
    1330:	05021003 	streq	r1, [r2, #-3]
    1334:	0026b411 	eoreq	fp, r6, r1, lsl r4
    1338:	11030400 	tstne	r3, r0, lsl #8
    133c:	b5110507 	ldrlt	r0, [r1, #-1287]	; 0xfffffaf9
    1340:	03000042 	movweq	r0, #66	; 0x42
    1344:	bf070813 	svclt	0x00070813
    1348:	0400000e 	streq	r0, [r0], #-14
    134c:	000f1107 	andeq	r1, pc, r7, lsl #2
    1350:	12030400 	andne	r0, r3, #0, 8
    1354:	34110505 	ldrcc	r0, [r1], #-1285	; 0xfffffafb
    1358:	0300004c 	movweq	r0, #76	; 0x4c
    135c:	ed070313 	stc	3, cr0, [r7, #-76]	; 0xffffffb4
    1360:	0400000a 	streq	r0, [r0], #-10
    1364:	05041403 	streq	r1, [r4, #-1027]	; 0xfffffbfd
    1368:	00323311 	eorseq	r3, r2, r1, lsl r3
    136c:	03130300 	tsteq	r3, #0, 6
    1370:	ce1b0504 	cfmul32gt	mvfx0, mvfx11, mvfx4
    1374:	0400003b 	streq	r0, [r0], #-59	; 0xffffffc5
    1378:	04081503 	streq	r1, [r8], #-1283	; 0xfffffafd
    137c:	06130304 	ldreq	r0, [r3], -r4, lsl #6
    1380:	265a1105 	ldrbcs	r1, [sl], -r5, lsl #2
    1384:	03040000 	movweq	r0, #16384	; 0x4000
    1388:	11050914 	tstne	r5, r4, lsl r9
    138c:	00004c6f 	andeq	r4, r0, pc, ror #24
    1390:	0a150304 	beq	541fa8 <FPU_CPACR_CP10+0x241fa8>
    1394:	57f71105 	ldrbpl	r1, [r7, r5, lsl #2]!
    1398:	03040000 	movweq	r0, #16384	; 0x4000
    139c:	12050b16 	andne	r0, r5, #22528	; 0x5800
    13a0:	00005592 	muleq	r0, r2, r5
    13a4:	04000404 	streq	r0, [r0], #-1028	; 0xfffffbfc
    13a8:	100f0200 	andne	r0, pc, r0, lsl #4
    13ac:	11070000 	mrsne	r0, (UNDEF: 7)
    13b0:	03000000 	movweq	r0, #0
    13b4:	01030100 	mrseq	r0, (UNDEF: 19)
    13b8:	33110503 	tstcc	r1, #12582912	; 0xc00000
    13bc:	03000032 	movweq	r0, #50	; 0x32
    13c0:	ed070213 	sfm	f0, 4, [r7, #-76]	; 0xffffffb4
    13c4:	0400000a 	streq	r0, [r0], #-10
    13c8:	05041403 	streq	r1, [r4, #-1027]	; 0xfffffbfd
    13cc:	0042b511 	subeq	fp, r2, r1, lsl r5
    13d0:	05130300 	ldreq	r0, [r3, #-768]	; 0xfffffd00
    13d4:	000ebf07 	andeq	fp, lr, r7, lsl #30
    13d8:	11070400 	tstne	r7, r0, lsl #8
    13dc:	0400000f 	streq	r0, [r0], #-15
    13e0:	3bce1b05 	blcc	ff387ffc <FPU_MVFR1_ADDR+0x1f3790b8>
    13e4:	04040000 	streq	r0, [r4], #-0
    13e8:	02000400 	andeq	r0, r0, #0, 8
    13ec:	000010b4 	strheq	r1, [r0], -r4
    13f0:	00001107 	andeq	r1, r0, r7, lsl #2
    13f4:	01000300 	mrseq	r0, LR_irq
    13f8:	05021003 	streq	r1, [r2, #-3]
    13fc:	0026b411 	eoreq	fp, r6, r1, lsl r4
    1400:	11030400 	tstne	r3, r0, lsl #8
    1404:	b5110506 	ldrlt	r0, [r1, #-1286]	; 0xfffffafa
    1408:	03000042 	movweq	r0, #66	; 0x42
    140c:	bf070713 	svclt	0x00070713
    1410:	0400000e 	streq	r0, [r0], #-14
    1414:	000f1107 	andeq	r1, pc, r7, lsl #2
    1418:	12030400 	andne	r0, r3, #0, 8
    141c:	5a110505 	bpl	442838 <FPU_CPACR_CP10+0x142838>
    1420:	03000026 	movweq	r0, #38	; 0x26
    1424:	11050414 	tstne	r5, r4, lsl r4
    1428:	00003233 	andeq	r3, r0, r3, lsr r2
    142c:	07031303 	streq	r1, [r3, -r3, lsl #6]
    1430:	00000aed 	andeq	r0, r0, sp, ror #21
    1434:	ce1b0504 	cfmul32gt	mvfx0, mvfx11, mvfx4
    1438:	0400003b 	streq	r0, [r0], #-59	; 0xffffffc5
    143c:	Address 0x000000000000143c is out of bounds.


Disassembly of section .debug_line:

00000000 <.debug_line>:
       0:	00000036 	andeq	r0, r0, r6, lsr r0
       4:	00210002 	eoreq	r0, r1, r2
       8:	01020000 	mrseq	r0, (UNDEF: 2)
       c:	000d0efb 	strdeq	r0, [sp], -fp
      10:	01010101 	tsteq	r1, r1, lsl #2
      14:	01000000 	mrseq	r0, (UNDEF: 0)
      18:	73010000 	movwvc	r0, #4096	; 0x1000
      1c:	00006372 	andeq	r6, r0, r2, ror r3
      20:	6e69616d 	powvsez	f6, f1, #5.0
      24:	0100632e 	tsteq	r0, lr, lsr #6
      28:	00000000 	andeq	r0, r0, r0
      2c:	02100205 	andseq	r0, r0, #1342177280	; 0x50000000
      30:	2f130800 	svccs	0x00130800
      34:	00050221 	andeq	r0, r5, r1, lsr #4
      38:	003b0101 	eorseq	r0, fp, r1, lsl #2
      3c:	00020000 	andeq	r0, r2, r0
      40:	00000024 	andeq	r0, r0, r4, lsr #32
      44:	0efb0102 	cdpeq	1, 15, cr0, cr11, cr2, {0}
      48:	0101000d 	tsteq	r1, sp
      4c:	00000101 	andeq	r0, r0, r1, lsl #2
      50:	00000100 	andeq	r0, r0, r0, lsl #2
      54:	63727301 	cmnvs	r2, #67108864	; 0x4000000
      58:	73610000 	cmnvc	r1, #0
      5c:	70615f6d 	rsbvc	r5, r1, sp, ror #30
      60:	00532e69 	subseq	r2, r3, r9, ror #28
      64:	00000001 	andeq	r0, r0, r1
      68:	20020500 	andcs	r0, r2, r0, lsl #10
      6c:	03080002 	movweq	r0, #32770	; 0x8002
      70:	2f2f0136 	svccs	0x002f0136
      74:	01000102 	tsteq	r0, r2, lsl #2
      78:	00006201 	andeq	r6, r0, r1, lsl #4
      7c:	21000200 	mrscs	r0, R8_usr
      80:	02000000 	andeq	r0, r0, #0
      84:	0d0efb01 	vstreq	d15, [lr, #-4]
      88:	01010100 	mrseq	r0, (UNDEF: 17)
      8c:	00000001 	andeq	r0, r0, r1
      90:	01000001 	tsteq	r0, r1
      94:	00637273 	rsbeq	r7, r3, r3, ror r2
      98:	6f6f6200 	svcvs	0x006f6200
      9c:	00532e74 	subseq	r2, r3, r4, ror lr
      a0:	00000001 	andeq	r0, r0, r1
      a4:	90020500 	andls	r0, r2, r0, lsl #10
      a8:	03080001 	movweq	r0, #32769	; 0x8001
      ac:	360101f9 			; <UNDEFINED> instruction: 0x360101f9
      b0:	2f2f2f2f 	svccs	0x002f2f2f
      b4:	312f2f2f 			; <UNDEFINED> instruction: 0x312f2f2f
      b8:	21212321 			; <UNDEFINED> instruction: 0x21212321
      bc:	21222130 			; <UNDEFINED> instruction: 0x21222130
      c0:	2121252f 			; <UNDEFINED> instruction: 0x2121252f
      c4:	21212122 			; <UNDEFINED> instruction: 0x21212122
      c8:	242f2f21 	strtcs	r2, [pc], #-3873	; d0 <FPU_FPCCR_MONRDY-0x30>
      cc:	31313131 	teqcc	r1, r1, lsr r1
      d0:	322e5403 	eorcc	r5, lr, #50331648	; 0x3000000
      d4:	2e0d032f 	cdpcs	3, 0, cr0, cr13, cr15, {1}
      d8:	02022f2f 	andeq	r2, r2, #47, 30	; 0xbc
      dc:	4e010100 	adfmis	f0, f1, f0
      e0:	02000002 	andeq	r0, r0, #2
      e4:	00014400 	andeq	r4, r1, r0, lsl #8
      e8:	fb010200 	blx	408f2 <SCB_VECTKEYSTAT_INV_MASK+0x308f3>
      ec:	01000d0e 	tsteq	r0, lr, lsl #26
      f0:	00010101 	andeq	r0, r1, r1, lsl #2
      f4:	00010000 	andeq	r0, r1, r0
      f8:	72730100 	rsbsvc	r0, r3, #0, 2
      fc:	2e2e0063 	cdpcs	0, 2, cr0, cr14, cr3, {3}
     100:	2f2e2e2f 	svccs	0x002e2e2f
     104:	2e2f2e2e 	cdpcs	14, 2, cr2, cr15, cr14, {1}
     108:	79742f2e 	ldmdbvc	r4!, {r1, r2, r3, r5, r8, r9, sl, fp, sp}^
     10c:	2f736570 	svccs	0x00736570
     110:	6c636e69 	stclvs	14, cr6, [r3], #-420	; 0xfffffe5c
     114:	73656475 	cmnvc	r5, #1962934272	; 0x75000000
     118:	636e6900 	cmnvs	lr, #0, 18
     11c:	6564756c 	strbvs	r7, [r4, #-1388]!	; 0xfffffa94
     120:	2e2e0073 	mcrcs	0, 1, r0, cr14, cr3, {3}
     124:	2f2e2e2f 	svccs	0x002e2e2f
     128:	2e2f2e2e 	cdpcs	14, 2, cr2, cr15, cr14, {1}
     12c:	696c2f2e 	stmdbvs	ip!, {r1, r2, r3, r5, r8, r9, sl, fp, sp}^
     130:	6e692f62 	cdpvs	15, 6, cr2, cr9, cr2, {3}
     134:	64756c63 	ldrbtvs	r6, [r5], #-3171	; 0xfffff39d
     138:	2e007365 	cdpcs	3, 0, cr7, cr0, cr5, {3}
     13c:	2e2e2f2e 	cdpcs	15, 2, cr2, cr14, cr14, {1}
     140:	2f2e2e2f 	svccs	0x002e2e2f
     144:	2e2f2e2e 	cdpcs	14, 2, cr2, cr15, cr14, {1}
     148:	2e2e002e 	cdpcs	0, 2, cr0, cr14, cr14, {1}
     14c:	2f2e2e2f 	svccs	0x002e2e2f
     150:	622f2e2e 	eorvs	r2, pc, #736	; 0x2e0
     154:	6472616f 	ldrbtvs	r6, [r2], #-367	; 0xfffffe91
     158:	636e692f 	cmnvs	lr, #770048	; 0xbc000
     15c:	6564756c 	strbvs	r7, [r4, #-1388]!	; 0xfffffa94
     160:	2e2e0073 	mcrcs	0, 1, r0, cr14, cr3, {3}
     164:	2f2e2e2f 	svccs	0x002e2e2f
     168:	2e2f2e2e 	cdpcs	14, 2, cr2, cr15, cr14, {1}
     16c:	6f692f2e 	svcvs	0x00692f2e
     170:	636e692f 	cmnvs	lr, #770048	; 0xbc000
     174:	6564756c 	strbvs	r7, [r4, #-1388]!	; 0xfffffa94
     178:	62000073 	andvs	r0, r0, #115	; 0x73
     17c:	635f7073 	cmpvs	pc, #115	; 0x73
     180:	6b636f6c 	blvs	18dbf38 <FPU_ENABLE_CPACR_VALUE+0x9dbf38>
     184:	00632e73 	rsbeq	r2, r3, r3, ror lr
     188:	65000001 	strvs	r0, [r0, #-1]
     18c:	726f7272 	rsbvc	r7, pc, #536870919	; 0x20000007
     190:	7079745f 	rsbsvc	r7, r9, pc, asr r4
     194:	682e7365 	stmdavs	lr!, {r0, r2, r5, r6, r8, r9, ip, sp, lr}
     198:	00000200 	andeq	r0, r0, r0, lsl #4
     19c:	5f707362 	svcpl	0x00707362
     1a0:	72617375 	rsbvc	r7, r1, #-738197503	; 0xd4000001
     1a4:	00682e74 	rsbeq	r2, r8, r4, ror lr
     1a8:	73000003 	movwvc	r0, #3
     1ac:	6e696474 	mcrvs	4, 3, r6, cr9, cr4, {3}
     1b0:	00682e74 	rsbeq	r2, r8, r4, ror lr
     1b4:	62000004 	andvs	r0, r0, #4
     1b8:	675f7073 			; <UNDEFINED> instruction: 0x675f7073
     1bc:	2e6f6970 			; <UNDEFINED> instruction: 0x2e6f6970
     1c0:	00030068 	andeq	r0, r3, r8, rrx
     1c4:	70736200 	rsbsvc	r6, r3, r0, lsl #4
     1c8:	6f6c635f 	svcvs	0x006c635f
     1cc:	2e736b63 	vsubcs.f64	d22, d3, d19
     1d0:	00030068 	andeq	r0, r3, r8, rrx
     1d4:	70736200 	rsbsvc	r6, r3, r0, lsl #4
     1d8:	616c665f 	cmnvs	ip, pc, asr r6
     1dc:	682e6873 	stmdavs	lr!, {r0, r1, r4, r5, r6, fp, sp, lr}
     1e0:	00000300 	andeq	r0, r0, r0, lsl #6
     1e4:	5f707362 	svcpl	0x00707362
     1e8:	65776f70 	ldrbvs	r6, [r7, #-3952]!	; 0xfffff090
     1ec:	00682e72 	rsbeq	r2, r8, r2, ror lr
     1f0:	63000003 	movwvs	r0, #3
     1f4:	69666e6f 	stmdbvs	r6!, {r0, r1, r2, r3, r5, r6, r9, sl, fp, sp, lr}^
     1f8:	00682e67 	rsbeq	r2, r8, r7, ror #28
     1fc:	73000005 	movwvc	r0, #5
     200:	61697265 	cmnvs	r9, r5, ror #4
     204:	65735f6c 	ldrbvs	r5, [r3, #-3948]!	; 0xfffff094
     208:	6e697474 	mcrvs	4, 3, r7, cr9, cr4, {3}
     20c:	682e7367 	stmdavs	lr!, {r0, r1, r2, r5, r6, r8, r9, ip, sp, lr}
     210:	00000600 	andeq	r0, r0, r0, lsl #12
     214:	67676f6c 	strbvs	r6, [r7, -ip, ror #30]!
     218:	682e7265 	stmdavs	lr!, {r0, r2, r5, r6, r9, ip, sp, lr}
     21c:	00000700 	andeq	r0, r0, r0, lsl #14
     220:	64647473 	strbtvs	r7, [r4], #-1139	; 0xfffffb8d
     224:	682e6665 	stmdavs	lr!, {r0, r2, r5, r6, r9, sl, sp, lr}
     228:	00000400 	andeq	r0, r0, r0, lsl #8
     22c:	02050000 	andeq	r0, r5, #0
     230:	0800022c 	stmdaeq	r0, {r2, r3, r5, r9}
     234:	2f012f03 	svccs	0x00012f03
     238:	04020084 	streq	r0, [r2], #-132	; 0xffffff7c
     23c:	06200601 	strteq	r0, [r0], -r1, lsl #12
     240:	74090367 	strvc	r0, [r9], #-871	; 0xfffffc99
     244:	2a406c30 	bcs	101b30c <FPU_ENABLE_CPACR_VALUE+0x11b30c>
     248:	02006928 	andeq	r6, r0, #40, 18	; 0xa0000
     24c:	20060104 	andcs	r0, r6, r4, lsl #2
     250:	30d06706 	sbcscc	r6, r0, r6, lsl #14
     254:	242d3d86 	strtcs	r3, [sp], #-3462	; 0xfffff27a
     258:	04020086 	streq	r0, [r2], #-134	; 0xffffff7a
     25c:	06200601 	strteq	r0, [r0], -r1, lsl #12
     260:	740b0367 	strvc	r0, [fp], #-871	; 0xfffffc99
     264:	32406840 	subcc	r6, r0, #64, 16	; 0x400000
     268:	2d599385 	ldclcs	3, cr9, [r9, #-532]	; 0xfffffdec
     26c:	5bb4214d 	blpl	fed087a8 <FPU_MVFR1_ADDR+0x1ecf9864>
     270:	222f3108 	eorcs	r3, pc, #8, 2
     274:	222f222f 	eorcs	r2, pc, #-268435454	; 0xf0000002
     278:	222f222f 	eorcs	r2, pc, #-268435454	; 0xf0000002
     27c:	3e31222f 	cdpcc	2, 3, cr2, cr1, cr15, {1}
     280:	0067316a 	rsbeq	r3, r7, sl, ror #2
     284:	06010402 	streq	r0, [r1], -r2, lsl #8
     288:	6b680620 	blvs	1a01b10 <FPU_ENABLE_CPACR_VALUE+0xb01b10>
     28c:	315baf21 	cmpcc	fp, r1, lsr #30
     290:	02006877 	andeq	r6, r0, #7798784	; 0x770000
     294:	20060104 	andcs	r0, r6, r4, lsl #2
     298:	68226706 	stmdavs	r2!, {r1, r2, r8, r9, sl, sp, lr}
     29c:	01040200 	mrseq	r0, R12_usr
     2a0:	67062006 	strvs	r2, [r6, -r6]
     2a4:	02006822 	andeq	r6, r0, #2228224	; 0x220000
     2a8:	20060104 	andcs	r0, r6, r4, lsl #2
     2ac:	6a236706 	bvs	8d9ecc <FPU_CPACR_CP10+0x5d9ecc>
     2b0:	216c3e31 	cmncs	ip, r1, lsr lr
     2b4:	6a4c40bd 	bvs	13105b0 <FPU_ENABLE_CPACR_VALUE+0x4105b0>
     2b8:	02006732 	andeq	r6, r0, #13107200	; 0xc80000
     2bc:	20060104 	andcs	r0, r6, r4, lsl #2
     2c0:	00676706 	rsbeq	r6, r7, r6, lsl #14
     2c4:	06010402 	streq	r0, [r1], -r2, lsl #8
     2c8:	67690620 	strbvs	r0, [r9, -r0, lsr #12]!
     2cc:	3e59323e 	mrccc	2, 2, r3, cr9, cr14, {1}
     2d0:	312f2f32 			; <UNDEFINED> instruction: 0x312f2f32
     2d4:	59303e59 	ldmdbpl	r0!, {r0, r3, r4, r6, r9, sl, fp, ip, sp}
     2d8:	3d6c313e 	stfcce	f3, [ip, #-248]!	; 0xffffff08
     2dc:	685dd921 	ldmdavs	sp, {r0, r5, r8, fp, ip, lr, pc}^
     2e0:	683e685a 	ldmdavs	lr!, {r1, r3, r4, r6, fp, sp, lr}
     2e4:	68683241 	stmdavs	r8!, {r0, r6, r9, ip, sp}^
     2e8:	04020085 	streq	r0, [r2], #-133	; 0xffffff7b
     2ec:	063c0601 	ldrteq	r0, [ip], -r1, lsl #12
     2f0:	0200303e 	andeq	r3, r0, #62	; 0x3e
     2f4:	3c060104 	stfccs	f0, [r6], {4}
     2f8:	69683f06 	stmdbvs	r8!, {r1, r2, r8, r9, sl, fp, ip, sp}^
     2fc:	77033e84 	strvc	r3, [r3, -r4, lsl #29]
     300:	200d033c 	andcs	r0, sp, ip, lsr r3
     304:	01040200 	mrseq	r0, R12_usr
     308:	3f063c06 	svccc	0x00063c06
     30c:	3e846868 	cdpcc	8, 8, cr6, cr4, cr8, {3}
     310:	033c7803 	teqeq	ip, #196608	; 0x30000
     314:	6203200e 	andvs	r2, r3, #14
     318:	2e10033c 	mrccs	3, 0, r0, cr0, cr12, {1}
     31c:	79201103 	stmdbvc	r0!, {r0, r1, r8, ip}
     320:	01040200 	mrseq	r0, R12_usr
     324:	674bd921 	strbvs	sp, [fp, -r1, lsr #18]
     328:	21316a4c 	teqcs	r1, ip, asr #20
     32c:	01000702 	tsteq	r0, r2, lsl #14
     330:	00015501 	andeq	r5, r1, r1, lsl #10
     334:	2a000200 	bcs	b3c <SCB_AIRCR_PRIGROUP_MASK+0x43c>
     338:	02000001 	andeq	r0, r0, #1
     33c:	0d0efb01 	vstreq	d15, [lr, #-4]
     340:	01010100 	mrseq	r0, (UNDEF: 17)
     344:	00000001 	andeq	r0, r0, r1
     348:	01000001 	tsteq	r0, r1
     34c:	00637273 	rsbeq	r7, r3, r3, ror r2
     350:	2e2f2e2e 	cdpcs	14, 2, cr2, cr15, cr14, {1}
     354:	2e2e2f2e 	cdpcs	15, 2, cr2, cr14, cr14, {1}
     358:	2f2e2e2f 	svccs	0x002e2e2f
     35c:	65707974 	ldrbvs	r7, [r0, #-2420]!	; 0xfffff68c
     360:	6e692f73 	mcrvs	15, 3, r2, cr9, cr3, {3}
     364:	64756c63 	ldrbtvs	r6, [r5], #-3171	; 0xfffff39d
     368:	2e007365 	cdpcs	3, 0, cr7, cr0, cr5, {3}
     36c:	2e2e2f2e 	cdpcs	15, 2, cr2, cr14, cr14, {1}
     370:	2f2e2e2f 	svccs	0x002e2e2f
     374:	6c2f2e2e 	stcvs	14, cr2, [pc], #-184	; 2c4 <FPU_FPCCR_MONRDY+0x1c4>
     378:	692f6269 	stmdbvs	pc!, {r0, r3, r5, r6, r9, sp, lr}	; <UNPREDICTABLE>
     37c:	756c636e 	strbvc	r6, [ip, #-878]!	; 0xfffffc92
     380:	00736564 	rsbseq	r6, r3, r4, ror #10
     384:	6c636e69 	stclvs	14, cr6, [r3], #-420	; 0xfffffe5c
     388:	73656475 	cmnvc	r5, #1962934272	; 0x75000000
     38c:	2f2e2e00 	svccs	0x002e2e00
     390:	2e2f2e2e 	cdpcs	14, 2, cr2, cr15, cr14, {1}
     394:	70632f2e 	rsbvc	r2, r3, lr, lsr #30
     398:	6e692f75 	mcrvs	15, 3, r2, cr9, cr5, {3}
     39c:	64756c63 	ldrbtvs	r6, [r5], #-3171	; 0xfffff39d
     3a0:	2e007365 	cdpcs	3, 0, cr7, cr0, cr5, {3}
     3a4:	2e2e2f2e 	cdpcs	15, 2, cr2, cr14, cr14, {1}
     3a8:	2f2e2e2f 	svccs	0x002e2e2f
     3ac:	2e2f2e2e 	cdpcs	14, 2, cr2, cr15, cr14, {1}
     3b0:	2e2e002e 	cdpcs	0, 2, cr0, cr14, cr14, {1}
     3b4:	2f2e2e2f 	svccs	0x002e2e2f
     3b8:	622f2e2e 	eorvs	r2, pc, #736	; 0x2e0
     3bc:	6472616f 	ldrbtvs	r6, [r2], #-367	; 0xfffffe91
     3c0:	636e692f 	cmnvs	lr, #770048	; 0xbc000
     3c4:	6564756c 	strbvs	r7, [r4, #-1388]!	; 0xfffffa94
     3c8:	2e2e0073 	mcrcs	0, 1, r0, cr14, cr3, {3}
     3cc:	2f2e2e2f 	svccs	0x002e2e2f
     3d0:	2e2f2e2e 	cdpcs	14, 2, cr2, cr15, cr14, {1}
     3d4:	6f692f2e 	svcvs	0x00692f2e
     3d8:	636e692f 	cmnvs	lr, #770048	; 0xbc000
     3dc:	6564756c 	strbvs	r7, [r4, #-1388]!	; 0xfffffa94
     3e0:	62000073 	andvs	r0, r0, #115	; 0x73
     3e4:	665f7073 			; <UNDEFINED> instruction: 0x665f7073
     3e8:	6873616c 	ldmdavs	r3!, {r2, r3, r5, r6, r8, sp, lr}^
     3ec:	0100632e 	tsteq	r0, lr, lsr #6
     3f0:	72650000 	rsbvc	r0, r5, #0
     3f4:	5f726f72 	svcpl	0x00726f72
     3f8:	65707974 	ldrbvs	r7, [r0, #-2420]!	; 0xfffff68c
     3fc:	00682e73 	rsbeq	r2, r8, r3, ror lr
     400:	73000002 	movwvc	r0, #2
     404:	6e696474 	mcrvs	4, 3, r6, cr9, cr4, {3}
     408:	00682e74 	rsbeq	r2, r8, r4, ror lr
     40c:	62000003 	andvs	r0, r0, #3
     410:	665f7073 			; <UNDEFINED> instruction: 0x665f7073
     414:	6873616c 	ldmdavs	r3!, {r2, r3, r5, r6, r8, sp, lr}^
     418:	0400682e 	streq	r6, [r0], #-2094	; 0xfffff7d2
     41c:	70630000 	rsbvc	r0, r3, r0
     420:	70615f75 	rsbvc	r5, r1, r5, ror pc
     424:	00682e69 	rsbeq	r2, r8, r9, ror #28
     428:	63000005 	movwvs	r0, #5
     42c:	69666e6f 	stmdbvs	r6!, {r0, r1, r2, r3, r5, r6, r9, sl, fp, sp, lr}^
     430:	00682e67 	rsbeq	r2, r8, r7, ror #28
     434:	73000006 	movwvc	r0, #6
     438:	61697265 	cmnvs	r9, r5, ror #4
     43c:	65735f6c 	ldrbvs	r5, [r3, #-3948]!	; 0xfffff094
     440:	6e697474 	mcrvs	4, 3, r7, cr9, cr4, {3}
     444:	682e7367 	stmdavs	lr!, {r0, r1, r2, r5, r6, r8, r9, ip, sp, lr}
     448:	00000700 	andeq	r0, r0, r0, lsl #14
     44c:	67676f6c 	strbvs	r6, [r7, -ip, ror #30]!
     450:	682e7265 	stmdavs	lr!, {r0, r2, r5, r6, r9, ip, sp, lr}
     454:	00000800 	andeq	r0, r0, r0, lsl #16
     458:	64647473 	strbtvs	r7, [r4], #-1139	; 0xfffffb8d
     45c:	682e6665 	stmdavs	lr!, {r0, r2, r5, r6, r9, sl, sp, lr}
     460:	00000300 	andeq	r0, r0, r0, lsl #6
     464:	02050000 	andeq	r0, r5, #0
     468:	08000714 	stmdaeq	r0, {r2, r4, r8, r9, sl}
     46c:	2f012303 	svccs	0x00012303
     470:	2f232d3d 	svccs	0x00232d3d
     474:	2f672f4d 	svccs	0x00672f4d
     478:	00865d4d 	addeq	r5, r6, sp, asr #26
     47c:	06010402 	streq	r0, [r1], -r2, lsl #8
     480:	6b760620 	blvs	1d81d08 <FPU_ENABLE_CPACR_VALUE+0xe81d08>
     484:	00080221 	andeq	r0, r8, r1, lsr #4
     488:	01a20101 			; <UNDEFINED> instruction: 0x01a20101
     48c:	00020000 	andeq	r0, r2, r0
     490:	00000105 	andeq	r0, r0, r5, lsl #2
     494:	0efb0102 	cdpeq	1, 15, cr0, cr11, cr2, {0}
     498:	0101000d 	tsteq	r1, sp
     49c:	00000101 	andeq	r0, r0, r1, lsl #2
     4a0:	00000100 	andeq	r0, r0, r0, lsl #2
     4a4:	63727301 	cmnvs	r2, #67108864	; 0x4000000
     4a8:	2f2e2e00 	svccs	0x002e2e00
     4ac:	2e2f2e2e 	cdpcs	14, 2, cr2, cr15, cr14, {1}
     4b0:	2e2e2f2e 	cdpcs	15, 2, cr2, cr14, cr14, {1}
     4b4:	7079742f 	rsbsvc	r7, r9, pc, lsr #8
     4b8:	692f7365 	stmdbvs	pc!, {r0, r2, r5, r6, r8, r9, ip, sp, lr}	; <UNPREDICTABLE>
     4bc:	756c636e 	strbvc	r6, [ip, #-878]!	; 0xfffffc92
     4c0:	00736564 	rsbseq	r6, r3, r4, ror #10
     4c4:	2e2f2e2e 	cdpcs	14, 2, cr2, cr15, cr14, {1}
     4c8:	2e2e2f2e 	cdpcs	15, 2, cr2, cr14, cr14, {1}
     4cc:	2f2e2e2f 	svccs	0x002e2e2f
     4d0:	2f62696c 	svccs	0x0062696c
     4d4:	6c636e69 	stclvs	14, cr6, [r3], #-420	; 0xfffffe5c
     4d8:	73656475 	cmnvc	r5, #1962934272	; 0x75000000
     4dc:	636e6900 	cmnvs	lr, #0, 18
     4e0:	6564756c 	strbvs	r7, [r4, #-1388]!	; 0xfffffa94
     4e4:	2e2e0073 	mcrcs	0, 1, r0, cr14, cr3, {3}
     4e8:	2f2e2e2f 	svccs	0x002e2e2f
     4ec:	2e2f2e2e 	cdpcs	14, 2, cr2, cr15, cr14, {1}
     4f0:	2e2e2f2e 	cdpcs	15, 2, cr2, cr14, cr14, {1}
     4f4:	2f2e2e00 	svccs	0x002e2e00
     4f8:	2e2f2e2e 	cdpcs	14, 2, cr2, cr15, cr14, {1}
     4fc:	6f622f2e 	svcvs	0x00622f2e
     500:	2f647261 	svccs	0x00647261
     504:	6c636e69 	stclvs	14, cr6, [r3], #-420	; 0xfffffe5c
     508:	73656475 	cmnvc	r5, #1962934272	; 0x75000000
     50c:	2f2e2e00 	svccs	0x002e2e00
     510:	2e2f2e2e 	cdpcs	14, 2, cr2, cr15, cr14, {1}
     514:	2e2e2f2e 	cdpcs	15, 2, cr2, cr14, cr14, {1}
     518:	2f6f692f 	svccs	0x006f692f
     51c:	6c636e69 	stclvs	14, cr6, [r3], #-420	; 0xfffffe5c
     520:	73656475 	cmnvc	r5, #1962934272	; 0x75000000
     524:	73620000 	cmnvc	r2, #0
     528:	70675f70 	rsbvc	r5, r7, r0, ror pc
     52c:	632e6f69 			; <UNDEFINED> instruction: 0x632e6f69
     530:	00000100 	andeq	r0, r0, r0, lsl #2
     534:	6f727265 	svcvs	0x00727265
     538:	79745f72 	ldmdbvc	r4!, {r1, r4, r5, r6, r8, r9, sl, fp, ip, lr}^
     53c:	2e736570 	mrccs	5, 3, r6, cr3, cr0, {3}
     540:	00020068 	andeq	r0, r2, r8, rrx
     544:	64747300 	ldrbtvs	r7, [r4], #-768	; 0xfffffd00
     548:	2e746e69 	cdpcs	14, 7, cr6, cr4, cr9, {3}
     54c:	00030068 	andeq	r0, r3, r8, rrx
     550:	70736200 	rsbsvc	r6, r3, r0, lsl #4
     554:	6970675f 	ldmdbvs	r0!, {r0, r1, r2, r3, r4, r6, r8, r9, sl, sp, lr}^
     558:	00682e6f 	rsbeq	r2, r8, pc, ror #28
     55c:	63000004 	movwvs	r0, #4
     560:	69666e6f 	stmdbvs	r6!, {r0, r1, r2, r3, r5, r6, r9, sl, fp, sp, lr}^
     564:	00682e67 	rsbeq	r2, r8, r7, ror #28
     568:	73000005 	movwvc	r0, #5
     56c:	61697265 	cmnvs	r9, r5, ror #4
     570:	65735f6c 	ldrbvs	r5, [r3, #-3948]!	; 0xfffff094
     574:	6e697474 	mcrvs	4, 3, r7, cr9, cr4, {3}
     578:	682e7367 	stmdavs	lr!, {r0, r1, r2, r5, r6, r8, r9, ip, sp, lr}
     57c:	00000600 	andeq	r0, r0, r0, lsl #12
     580:	64647473 	strbtvs	r7, [r4], #-1139	; 0xfffffb8d
     584:	682e6665 	stmdavs	lr!, {r0, r2, r5, r6, r9, sl, sp, lr}
     588:	00000300 	andeq	r0, r0, r0, lsl #6
     58c:	67676f6c 	strbvs	r6, [r7, -ip, ror #30]!
     590:	682e7265 	stmdavs	lr!, {r0, r2, r5, r6, r9, ip, sp, lr}
     594:	00000700 	andeq	r0, r0, r0, lsl #14
     598:	02050000 	andeq	r0, r5, #0
     59c:	08000794 	stmdaeq	r0, {r2, r4, r7, r8, r9, sl}
     5a0:	0101c103 	tsteq	r1, r3, lsl #2
     5a4:	306a3e6c 	rsbcc	r3, sl, ip, ror #28
     5a8:	01040200 	mrseq	r0, R12_usr
     5ac:	02008206 	andeq	r8, r0, #1610612736	; 0x60000000
     5b0:	003c0304 	eorseq	r0, ip, r4, lsl #6
     5b4:	3c050402 	cfstrscc	mvf0, [r5], {2}
     5b8:	09040200 	stmdbeq	r4, {r9}
     5bc:	0402003c 	streq	r0, [r2], #-60	; 0xffffffc4
     5c0:	02009008 	andeq	r9, r0, #8
     5c4:	00820c04 	addeq	r0, r2, r4, lsl #24
     5c8:	3c100402 	cfldrscc	mvf0, [r0], {2}
     5cc:	0f040200 	svceq	0x00040200
     5d0:	04020090 	streq	r0, [r2], #-144	; 0xffffff70
     5d4:	02008213 	andeq	r8, r0, #805306369	; 0x30000001
     5d8:	003c1404 	eorseq	r1, ip, r4, lsl #8
     5dc:	3c160402 	cfldrscc	mvf0, [r6], {2}
     5e0:	02009106 	andeq	r9, r0, #-2147483647	; 0x80000001
     5e4:	4a060204 	bmi	180dfc <SCB_VECTKEYSTAT_INV_MASK+0x170dfd>
     5e8:	02009106 	andeq	r9, r0, #-2147483647	; 0x80000001
     5ec:	4a060204 	bmi	180e04 <SCB_VECTKEYSTAT_INV_MASK+0x170e05>
     5f0:	ae3f9306 	cdpge	3, 3, cr9, cr15, cr6, {0}
     5f4:	01040200 	mrseq	r0, R12_usr
     5f8:	04020067 	streq	r0, [r2], #-103	; 0xffffff99
     5fc:	75324901 	ldrvc	r4, [r2, #-2305]!	; 0xfffff6ff
     600:	392f2f83 	stmdbcc	pc!, {r0, r1, r7, r8, r9, sl, fp, sp}	; <UNPREDICTABLE>
     604:	73917541 	orrsvc	r7, r1, #272629760	; 0x10400000
     608:	863e6940 	ldrthi	r6, [lr], -r0, asr #18
     60c:	418f9177 	orrmi	r9, pc, r7, ror r1	; <UNPREDICTABLE>
     610:	40739167 	rsbsmi	r9, r3, r7, ror #2
     614:	475a9175 			; <UNDEFINED> instruction: 0x475a9175
     618:	02040200 	andeq	r0, r4, #0, 4
     61c:	003c5503 	eorseq	r5, ip, r3, lsl #10
     620:	06010402 	streq	r0, [r1], -r2, lsl #8
     624:	3103063c 	tstcc	r3, ip, lsr r6
     628:	02216b4a 	eoreq	r6, r1, #75776	; 0x12800
     62c:	0101000f 	tsteq	r1, pc
     630:	0000003e 	andeq	r0, r0, lr, lsr r0
     634:	00250002 	eoreq	r0, r5, r2
     638:	01020000 	mrseq	r0, (UNDEF: 2)
     63c:	000d0efb 	strdeq	r0, [sp], -fp
     640:	01010101 	tsteq	r1, r1, lsl #2
     644:	01000000 	mrseq	r0, (UNDEF: 0)
     648:	73010000 	movwvc	r0, #4096	; 0x1000
     64c:	00006372 	andeq	r6, r0, r2, ror r3
     650:	5f707362 	svcpl	0x00707362
     654:	74696e69 	strbtvc	r6, [r9], #-3689	; 0xfffff197
     658:	0100532e 	tsteq	r0, lr, lsr #6
     65c:	00000000 	andeq	r0, r0, r0
     660:	0a0c0205 	beq	300e7c <FPU_CPACR_CP10+0xe7c>
     664:	38030800 	stmdacc	r3, {fp}
     668:	312f2301 			; <UNDEFINED> instruction: 0x312f2301
     66c:	00010230 	andeq	r0, r1, r0, lsr r2
     670:	00ff0101 	rscseq	r0, pc, r1, lsl #2
     674:	00020000 	andeq	r0, r2, r0
     678:	000000e8 	andeq	r0, r0, r8, ror #1
     67c:	0efb0102 	cdpeq	1, 15, cr0, cr11, cr2, {0}
     680:	0101000d 	tsteq	r1, sp
     684:	00000101 	andeq	r0, r0, r1, lsl #2
     688:	00000100 	andeq	r0, r0, r0, lsl #2
     68c:	63727301 	cmnvs	r2, #67108864	; 0x4000000
     690:	2f2e2e00 	svccs	0x002e2e00
     694:	2e2f2e2e 	cdpcs	14, 2, cr2, cr15, cr14, {1}
     698:	2e2e2f2e 	cdpcs	15, 2, cr2, cr14, cr14, {1}
     69c:	62696c2f 	rsbvs	r6, r9, #12032	; 0x2f00
     6a0:	636e692f 	cmnvs	lr, #770048	; 0xbc000
     6a4:	6564756c 	strbvs	r7, [r4, #-1388]!	; 0xfffffa94
     6a8:	2e2e0073 	mcrcs	0, 1, r0, cr14, cr3, {3}
     6ac:	2f2e2e2f 	svccs	0x002e2e2f
     6b0:	2e2f2e2e 	cdpcs	14, 2, cr2, cr15, cr14, {1}
     6b4:	79742f2e 	ldmdbvc	r4!, {r1, r2, r3, r5, r8, r9, sl, fp, sp}^
     6b8:	2f736570 	svccs	0x00736570
     6bc:	6c636e69 	stclvs	14, cr6, [r3], #-420	; 0xfffffe5c
     6c0:	73656475 	cmnvc	r5, #1962934272	; 0x75000000
     6c4:	2f2e2e00 	svccs	0x002e2e00
     6c8:	2e2f2e2e 	cdpcs	14, 2, cr2, cr15, cr14, {1}
     6cc:	6f622f2e 	svcvs	0x00622f2e
     6d0:	2f647261 	svccs	0x00647261
     6d4:	6c636e69 	stclvs	14, cr6, [r3], #-420	; 0xfffffe5c
     6d8:	73656475 	cmnvc	r5, #1962934272	; 0x75000000
     6dc:	2f2e2e00 	svccs	0x002e2e00
     6e0:	2e2f2e2e 	cdpcs	14, 2, cr2, cr15, cr14, {1}
     6e4:	2e2e2f2e 	cdpcs	15, 2, cr2, cr14, cr14, {1}
     6e8:	002e2e2f 	eoreq	r2, lr, pc, lsr #28
     6ec:	70736200 	rsbsvc	r6, r3, r0, lsl #4
     6f0:	676f6c5f 			; <UNDEFINED> instruction: 0x676f6c5f
     6f4:	2e726567 	cdpcs	5, 7, cr6, cr2, cr7, {3}
     6f8:	00010063 	andeq	r0, r1, r3, rrx
     6fc:	64747300 	ldrbtvs	r7, [r4], #-768	; 0xfffffd00
     700:	2e666564 	cdpcs	5, 6, cr6, cr6, cr4, {3}
     704:	00020068 	andeq	r0, r2, r8, rrx
     708:	72726500 	rsbsvc	r6, r2, #0, 10
     70c:	745f726f 	ldrbvc	r7, [pc], #-623	; 714 <SCB_AIRCR_PRIGROUP_MASK+0x14>
     710:	73657079 	cmnvc	r5, #121	; 0x79
     714:	0300682e 	movweq	r6, #2094	; 0x82e
     718:	73620000 	cmnvc	r2, #0
     71c:	6f6c5f70 	svcvs	0x006c5f70
     720:	72656767 	rsbvc	r6, r5, #27000832	; 0x19c0000
     724:	0400682e 	streq	r6, [r0], #-2094	; 0xfffff7d2
     728:	74730000 	ldrbtvc	r0, [r3], #-0
     72c:	746e6964 	strbtvc	r6, [lr], #-2404	; 0xfffff69c
     730:	0200682e 	andeq	r6, r0, #3014656	; 0x2e0000
     734:	6f630000 	svcvs	0x00630000
     738:	6769666e 	strbvs	r6, [r9, -lr, ror #12]!
     73c:	0500682e 	streq	r6, [r0, #-2094]	; 0xfffff7d2
     740:	65730000 	ldrbvs	r0, [r3, #-0]!
     744:	6c616972 			; <UNDEFINED> instruction: 0x6c616972
     748:	7465735f 	strbtvc	r7, [r5], #-863	; 0xfffffca1
     74c:	676e6974 			; <UNDEFINED> instruction: 0x676e6974
     750:	00682e73 	rsbeq	r2, r8, r3, ror lr
     754:	73000004 	movwvc	r0, #4
     758:	61697265 	cmnvs	r9, r5, ror #4
     75c:	00682e6c 	rsbeq	r2, r8, ip, ror #28
     760:	00000004 	andeq	r0, r0, r4
     764:	1c020500 	cfstr32ne	mvfx0, [r2], {-0}
     768:	0308000a 	movweq	r0, #32778	; 0x800a
     76c:	4b5a0122 	blmi	1680bfc <FPU_ENABLE_CPACR_VALUE+0x780bfc>
     770:	01000402 	tsteq	r0, r2, lsl #8
     774:	00012801 	andeq	r2, r1, r1, lsl #16
     778:	07000200 	streq	r0, [r0, -r0, lsl #4]
     77c:	02000001 	andeq	r0, r0, #1
     780:	0d0efb01 	vstreq	d15, [lr, #-4]
     784:	01010100 	mrseq	r0, (UNDEF: 17)
     788:	00000001 	andeq	r0, r0, r1
     78c:	01000001 	tsteq	r0, r1
     790:	00637273 	rsbeq	r7, r3, r3, ror r2
     794:	2e2f2e2e 	cdpcs	14, 2, cr2, cr15, cr14, {1}
     798:	2e2e2f2e 	cdpcs	15, 2, cr2, cr14, cr14, {1}
     79c:	2f2e2e2f 	svccs	0x002e2e2f
     7a0:	65707974 	ldrbvs	r7, [r0, #-2420]!	; 0xfffff68c
     7a4:	6e692f73 	mcrvs	15, 3, r2, cr9, cr3, {3}
     7a8:	64756c63 	ldrbtvs	r6, [r5], #-3171	; 0xfffff39d
     7ac:	2e007365 	cdpcs	3, 0, cr7, cr0, cr5, {3}
     7b0:	2e2e2f2e 	cdpcs	15, 2, cr2, cr14, cr14, {1}
     7b4:	2f2e2e2f 	svccs	0x002e2e2f
     7b8:	6c2f2e2e 	stcvs	14, cr2, [pc], #-184	; 708 <SCB_AIRCR_PRIGROUP_MASK+0x8>
     7bc:	692f6269 	stmdbvs	pc!, {r0, r3, r5, r6, r9, sp, lr}	; <UNPREDICTABLE>
     7c0:	756c636e 	strbvc	r6, [ip, #-878]!	; 0xfffffc92
     7c4:	00736564 	rsbseq	r6, r3, r4, ror #10
     7c8:	6c636e69 	stclvs	14, cr6, [r3], #-420	; 0xfffffe5c
     7cc:	73656475 	cmnvc	r5, #1962934272	; 0x75000000
     7d0:	2f2e2e00 	svccs	0x002e2e00
     7d4:	2e2f2e2e 	cdpcs	14, 2, cr2, cr15, cr14, {1}
     7d8:	2e2e2f2e 	cdpcs	15, 2, cr2, cr14, cr14, {1}
     7dc:	002e2e2f 	eoreq	r2, lr, pc, lsr #28
     7e0:	2e2f2e2e 	cdpcs	14, 2, cr2, cr15, cr14, {1}
     7e4:	2e2e2f2e 	cdpcs	15, 2, cr2, cr14, cr14, {1}
     7e8:	616f622f 	cmnvs	pc, pc, lsr #4
     7ec:	692f6472 	stmdbvs	pc!, {r1, r4, r5, r6, sl, sp, lr}	; <UNPREDICTABLE>
     7f0:	756c636e 	strbvc	r6, [ip, #-878]!	; 0xfffffc92
     7f4:	00736564 	rsbseq	r6, r3, r4, ror #10
     7f8:	2e2f2e2e 	cdpcs	14, 2, cr2, cr15, cr14, {1}
     7fc:	2e2e2f2e 	cdpcs	15, 2, cr2, cr14, cr14, {1}
     800:	2f2e2e2f 	svccs	0x002e2e2f
     804:	692f6f69 	stmdbvs	pc!, {r0, r3, r5, r6, r8, r9, sl, fp, sp, lr}	; <UNPREDICTABLE>
     808:	756c636e 	strbvc	r6, [ip, #-878]!	; 0xfffffc92
     80c:	00736564 	rsbseq	r6, r3, r4, ror #10
     810:	70736200 	rsbsvc	r6, r3, r0, lsl #4
     814:	776f705f 			; <UNDEFINED> instruction: 0x776f705f
     818:	632e7265 			; <UNDEFINED> instruction: 0x632e7265
     81c:	00000100 	andeq	r0, r0, r0, lsl #2
     820:	6f727265 	svcvs	0x00727265
     824:	79745f72 	ldmdbvc	r4!, {r1, r4, r5, r6, r8, r9, sl, fp, ip, lr}^
     828:	2e736570 	mrccs	5, 3, r6, cr3, cr0, {3}
     82c:	00020068 	andeq	r0, r2, r8, rrx
     830:	64747300 	ldrbtvs	r7, [r4], #-768	; 0xfffffd00
     834:	2e746e69 	cdpcs	14, 7, cr6, cr4, cr9, {3}
     838:	00030068 	andeq	r0, r3, r8, rrx
     83c:	70736200 	rsbsvc	r6, r3, r0, lsl #4
     840:	776f705f 			; <UNDEFINED> instruction: 0x776f705f
     844:	682e7265 	stmdavs	lr!, {r0, r2, r5, r6, r9, ip, sp, lr}
     848:	00000400 	andeq	r0, r0, r0, lsl #8
     84c:	666e6f63 	strbtvs	r6, [lr], -r3, ror #30
     850:	682e6769 	stmdavs	lr!, {r0, r3, r5, r6, r8, r9, sl, sp, lr}
     854:	00000500 	andeq	r0, r0, r0, lsl #10
     858:	69726573 	ldmdbvs	r2!, {r0, r1, r4, r5, r6, r8, sl, sp, lr}^
     85c:	735f6c61 	cmpvc	pc, #24832	; 0x6100
     860:	69747465 	ldmdbvs	r4!, {r0, r2, r5, r6, sl, ip, sp, lr}^
     864:	2e73676e 	cdpcs	7, 7, cr6, cr3, cr14, {3}
     868:	00060068 	andeq	r0, r6, r8, rrx
     86c:	676f6c00 	strbvs	r6, [pc, -r0, lsl #24]!
     870:	2e726567 	cdpcs	5, 7, cr6, cr2, cr7, {3}
     874:	00070068 	andeq	r0, r7, r8, rrx
     878:	64747300 	ldrbtvs	r7, [r4], #-768	; 0xfffffd00
     87c:	2e666564 	cdpcs	5, 6, cr6, cr6, cr4, {3}
     880:	00030068 	andeq	r0, r3, r8, rrx
     884:	05000000 	streq	r0, [r0, #-0]
     888:	000a3802 	andeq	r3, sl, r2, lsl #16
     88c:	01220308 			; <UNDEFINED> instruction: 0x01220308
     890:	0200855c 	andeq	r8, r0, #92, 10	; 0x17000000
     894:	20060104 	andcs	r0, r6, r4, lsl #2
     898:	216b7606 	cmncs	fp, r6, lsl #12
     89c:	01000802 	tsteq	r0, r2, lsl #16
     8a0:	00025301 	andeq	r5, r2, r1, lsl #6
     8a4:	31000200 	mrscc	r0, R8_usr
     8a8:	02000001 	andeq	r0, r0, #1
     8ac:	0d0efb01 	vstreq	d15, [lr, #-4]
     8b0:	01010100 	mrseq	r0, (UNDEF: 17)
     8b4:	00000001 	andeq	r0, r0, r1
     8b8:	01000001 	tsteq	r0, r1
     8bc:	00637273 	rsbeq	r7, r3, r3, ror r2
     8c0:	2e2f2e2e 	cdpcs	14, 2, cr2, cr15, cr14, {1}
     8c4:	2e2e2f2e 	cdpcs	15, 2, cr2, cr14, cr14, {1}
     8c8:	2f2e2e2f 	svccs	0x002e2e2f
     8cc:	65707974 	ldrbvs	r7, [r0, #-2420]!	; 0xfffff68c
     8d0:	6e692f73 	mcrvs	15, 3, r2, cr9, cr3, {3}
     8d4:	64756c63 	ldrbtvs	r6, [r5], #-3171	; 0xfffff39d
     8d8:	69007365 	stmdbvs	r0, {r0, r2, r5, r6, r8, r9, ip, sp, lr}
     8dc:	756c636e 	strbvc	r6, [ip, #-878]!	; 0xfffffc92
     8e0:	00736564 	rsbseq	r6, r3, r4, ror #10
     8e4:	2e2f2e2e 	cdpcs	14, 2, cr2, cr15, cr14, {1}
     8e8:	2e2e2f2e 	cdpcs	15, 2, cr2, cr14, cr14, {1}
     8ec:	2f2e2e2f 	svccs	0x002e2e2f
     8f0:	2f62696c 	svccs	0x0062696c
     8f4:	6c636e69 	stclvs	14, cr6, [r3], #-420	; 0xfffffe5c
     8f8:	73656475 	cmnvc	r5, #1962934272	; 0x75000000
     8fc:	2f2e2e00 	svccs	0x002e2e00
     900:	2e2f2e2e 	cdpcs	14, 2, cr2, cr15, cr14, {1}
     904:	6f622f2e 	svcvs	0x00622f2e
     908:	2f647261 	svccs	0x00647261
     90c:	6c636e69 	stclvs	14, cr6, [r3], #-420	; 0xfffffe5c
     910:	73656475 	cmnvc	r5, #1962934272	; 0x75000000
     914:	2f2e2e00 	svccs	0x002e2e00
     918:	2e2f2e2e 	cdpcs	14, 2, cr2, cr15, cr14, {1}
     91c:	2e2e2f2e 	cdpcs	15, 2, cr2, cr14, cr14, {1}
     920:	002e2e2f 	eoreq	r2, lr, pc, lsr #28
     924:	2e2f2e2e 	cdpcs	14, 2, cr2, cr15, cr14, {1}
     928:	2e2e2f2e 	cdpcs	15, 2, cr2, cr14, cr14, {1}
     92c:	2f2e2e2f 	svccs	0x002e2e2f
     930:	692f6f69 	stmdbvs	pc!, {r0, r3, r5, r6, r8, r9, sl, fp, sp, lr}	; <UNPREDICTABLE>
     934:	756c636e 	strbvc	r6, [ip, #-878]!	; 0xfffffc92
     938:	00736564 	rsbseq	r6, r3, r4, ror #10
     93c:	70736200 	rsbsvc	r6, r3, r0, lsl #4
     940:	6173755f 	cmnvs	r3, pc, asr r5
     944:	632e7472 			; <UNDEFINED> instruction: 0x632e7472
     948:	00000100 	andeq	r0, r0, r0, lsl #2
     94c:	6f727265 	svcvs	0x00727265
     950:	79745f72 	ldmdbvc	r4!, {r1, r4, r5, r6, r8, r9, sl, fp, ip, lr}^
     954:	2e736570 	mrccs	5, 3, r6, cr3, cr0, {3}
     958:	00020068 	andeq	r0, r2, r8, rrx
     95c:	70736200 	rsbsvc	r6, r3, r0, lsl #4
     960:	6173755f 	cmnvs	r3, pc, asr r5
     964:	682e7472 	stmdavs	lr!, {r1, r4, r5, r6, sl, ip, sp, lr}
     968:	00000300 	andeq	r0, r0, r0, lsl #6
     96c:	69647473 	stmdbvs	r4!, {r0, r1, r4, r5, r6, sl, ip, sp, lr}^
     970:	682e746e 	stmdavs	lr!, {r1, r2, r3, r5, r6, sl, ip, sp, lr}
     974:	00000400 	andeq	r0, r0, r0, lsl #8
     978:	5f707362 	svcpl	0x00707362
     97c:	6f697067 	svcvs	0x00697067
     980:	0300682e 	movweq	r6, #2094	; 0x82e
     984:	73620000 	cmnvc	r2, #0
     988:	6c635f70 	stclvs	15, cr5, [r3], #-448	; 0xfffffe40
     98c:	736b636f 	cmnvc	fp, #-1140850687	; 0xbc000001
     990:	0300682e 	movweq	r6, #2094	; 0x82e
     994:	74730000 	ldrbtvc	r0, [r3], #-0
     998:	66656464 	strbtvs	r6, [r5], -r4, ror #8
     99c:	0400682e 	streq	r6, [r0], #-2094	; 0xfffff7d2
     9a0:	65730000 	ldrbvs	r0, [r3, #-0]!
     9a4:	6c616972 			; <UNDEFINED> instruction: 0x6c616972
     9a8:	0500682e 	streq	r6, [r0, #-2094]	; 0xfffff7d2
     9ac:	6f630000 	svcvs	0x00630000
     9b0:	6769666e 	strbvs	r6, [r9, -lr, ror #12]!
     9b4:	0600682e 	streq	r6, [r0], -lr, lsr #16
     9b8:	65730000 	ldrbvs	r0, [r3, #-0]!
     9bc:	6c616972 			; <UNDEFINED> instruction: 0x6c616972
     9c0:	7465735f 	strbtvc	r7, [r5], #-863	; 0xfffffca1
     9c4:	676e6974 			; <UNDEFINED> instruction: 0x676e6974
     9c8:	00682e73 	rsbeq	r2, r8, r3, ror lr
     9cc:	6c000005 	stcvs	0, cr0, [r0], {5}
     9d0:	6567676f 	strbvs	r6, [r7, #-1903]!	; 0xfffff891
     9d4:	00682e72 	rsbeq	r2, r8, r2, ror lr
     9d8:	00000007 	andeq	r0, r0, r7
     9dc:	80020500 	andhi	r0, r2, r0, lsl #10
     9e0:	0308000a 	movweq	r0, #32778	; 0x800a
     9e4:	8a0101ea 	bhi	41194 <SCB_VECTKEYSTAT_INV_MASK+0x31195>
     9e8:	03821503 	orreq	r1, r2, #12582912	; 0xc00000
     9ec:	2f2f206e 	svccs	0x002f206e
     9f0:	2f222f2f 	svccs	0x00222f2f
     9f4:	222f2f2f 	eorcs	r2, pc, #47, 30	; 0xbc
     9f8:	2f2f2f2f 	svccs	0x002f2f2f
     9fc:	002f8a26 	eoreq	r8, pc, r6, lsr #20
     a00:	06010402 	streq	r0, [r1], -r2, lsl #8
     a04:	0402004a 	streq	r0, [r2], #-74	; 0xffffffb6
     a08:	2d062e02 	stccs	14, cr2, [r6, #-8]
     a0c:	02002f22 	andeq	r2, r0, #34, 30	; 0x88
     a10:	2e060204 	cdpcs	2, 0, cr0, cr6, cr4, {0}
     a14:	02040200 	andeq	r0, r4, #0, 4
     a18:	02002d06 	andeq	r2, r0, #384	; 0x180
     a1c:	062f0104 	strteq	r0, [pc], -r4, lsl #2
     a20:	232c062e 			; <UNDEFINED> instruction: 0x232c062e
     a24:	01040200 	mrseq	r0, R12_usr
     a28:	02004a06 	andeq	r4, r0, #24576	; 0x6000
     a2c:	062e0204 	strteq	r0, [lr], -r4, lsl #4
     a30:	3629222d 	strtcc	r2, [r9], -sp, lsr #4
     a34:	820d0388 	andhi	r0, sp, #136, 6	; 0x20000002
     a38:	67207603 	strvs	r7, [r0, -r3, lsl #12]!
     a3c:	67226722 	strvs	r6, [r2, -r2, lsr #14]!
     a40:	0d038927 	vstreq.16	s16, [r3, #-78]	; 0xffffffb2	; <UNPREDICTABLE>
     a44:	20760382 	rsbscs	r0, r6, r2, lsl #7
     a48:	22672267 	rsbcs	r2, r7, #1879048198	; 0x70000006
     a4c:	02002867 	andeq	r2, r0, #6750208	; 0x670000
     a50:	4a060104 	bmi	180e68 <SCB_VECTKEYSTAT_INV_MASK+0x170e69>
     a54:	be084c06 	cdplt	12, 0, cr4, cr8, cr6, {0}
     a58:	024b084d 	subeq	r0, fp, #5046272	; 0x4d0000
     a5c:	76081772 			; <UNDEFINED> instruction: 0x76081772
     a60:	2d117f02 	ldccs	15, cr7, [r1, #-8]
     a64:	4a0a0331 	bmi	281730 <SCB_VECTKEYSTAT_INV_MASK+0x271731>
     a68:	740c0359 	strvc	r0, [ip], #-857	; 0xfffffca7
     a6c:	67207703 	strvs	r7, [r0, -r3, lsl #14]!
     a70:	67226722 	strvs	r6, [r2, -r2, lsr #14]!
     a74:	ba0a0324 	blt	28170c <SCB_VECTKEYSTAT_INV_MASK+0x27170d>
     a78:	740c0359 	strvc	r0, [ip], #-857	; 0xfffffca7
     a7c:	67207703 	strvs	r7, [r0, -r3, lsl #14]!
     a80:	67226722 	strvs	r6, [r2, -r2, lsr #14]!
     a84:	4c52c124 	ldfmip	f4, [r2], {36}	; 0x24
     a88:	6a3e326a 	bvs	f8d438 <FPU_ENABLE_CPACR_VALUE+0x8d438>
     a8c:	04020030 	streq	r0, [r2], #-48	; 0xffffffd0
     a90:	2f020601 	svccs	0x00020601
     a94:	21068212 	tstcs	r6, r2, lsl r2
     a98:	01040200 	mrseq	r0, R12_usr
     a9c:	06905806 	ldreq	r5, [r0], r6, lsl #16
     aa0:	04020021 	streq	r0, [r2], #-33	; 0xffffffdf
     aa4:	90580601 	subsls	r0, r8, r1, lsl #12
     aa8:	02002106 	andeq	r2, r0, #-2147483647	; 0x80000001
     aac:	58060104 	stmdapl	r6, {r2, r8}
     ab0:	00210690 	mlaeq	r1, r0, r6, r0
     ab4:	06010402 	streq	r0, [r1], -r2, lsl #8
     ab8:	23069090 	movwcs	r9, #24720	; 0x6090
     abc:	59303e59 	ldmdbpl	r0!, {r0, r3, r4, r6, r9, sl, fp, ip, sp}
     ac0:	3130323e 	teqcc	r0, lr, lsr r2
     ac4:	3e83302f 	cdpcc	0, 8, cr3, cr3, cr15, {1}
     ac8:	3e4d3f32 	mcrcc	15, 2, r3, cr13, cr2, {1}
     acc:	02003d6b 	andeq	r3, r0, #6848	; 0x1ac0
     ad0:	08210104 	stmdaeq	r1!, {r2, r8}
     ad4:	314c5b5b 	cmpcc	ip, fp, asr fp
     ad8:	0402003f 	streq	r0, [r2], #-63	; 0xffffffc1
     adc:	00200601 	eoreq	r0, r0, r1, lsl #12
     ae0:	06020402 	streq	r0, [r2], -r2, lsl #8
     ae4:	04020068 	streq	r0, [r2], #-104	; 0xffffff98
     ae8:	02006102 	andeq	r6, r0, #-2147483648	; 0x80000000
     aec:	3c060104 	stfccs	f0, [r6], {4}
     af0:	02215206 	eoreq	r5, r1, #1610612736	; 0x60000000
     af4:	0101000d 	tsteq	r1, sp
     af8:	00000184 	andeq	r0, r0, r4, lsl #3
     afc:	013c0002 	teqeq	ip, r2
     b00:	01020000 	mrseq	r0, (UNDEF: 2)
     b04:	000d0efb 	strdeq	r0, [sp], -fp
     b08:	01010101 	tsteq	r1, r1, lsl #2
     b0c:	01000000 	mrseq	r0, (UNDEF: 0)
     b10:	73010000 	movwvc	r0, #4096	; 0x1000
     b14:	2e006372 	mcrcs	3, 0, r6, cr0, cr2, {3}
     b18:	2e2e2f2e 	cdpcs	15, 2, cr2, cr14, cr14, {1}
     b1c:	2f2e2e2f 	svccs	0x002e2e2f
     b20:	742f2e2e 	strtvc	r2, [pc], #-3630	; b28 <SCB_AIRCR_PRIGROUP_MASK+0x428>
     b24:	73657079 	cmnvc	r5, #121	; 0x79
     b28:	636e692f 	cmnvs	lr, #770048	; 0xbc000
     b2c:	6564756c 	strbvs	r7, [r4, #-1388]!	; 0xfffffa94
     b30:	2e2e0073 	mcrcs	0, 1, r0, cr14, cr3, {3}
     b34:	2f2e2e2f 	svccs	0x002e2e2f
     b38:	2e2f2e2e 	cdpcs	14, 2, cr2, cr15, cr14, {1}
     b3c:	696c2f2e 	stmdbvs	ip!, {r1, r2, r3, r5, r8, r9, sl, fp, sp}^
     b40:	6e692f62 	cdpvs	15, 6, cr2, cr9, cr2, {3}
     b44:	64756c63 	ldrbtvs	r6, [r5], #-3171	; 0xfffff39d
     b48:	2e007365 	cdpcs	3, 0, cr7, cr0, cr5, {3}
     b4c:	2e2e2f2e 	cdpcs	15, 2, cr2, cr14, cr14, {1}
     b50:	2f2e2e2f 	svccs	0x002e2e2f
     b54:	2e2f2e2e 	cdpcs	14, 2, cr2, cr15, cr14, {1}
     b58:	2e2e002e 	cdpcs	0, 2, cr0, cr14, cr14, {1}
     b5c:	2f2e2e2f 	svccs	0x002e2e2f
     b60:	622f2e2e 	eorvs	r2, pc, #736	; 0x2e0
     b64:	6472616f 	ldrbtvs	r6, [r2], #-367	; 0xfffffe91
     b68:	636e692f 	cmnvs	lr, #770048	; 0xbc000
     b6c:	6564756c 	strbvs	r7, [r4, #-1388]!	; 0xfffffa94
     b70:	2e2e0073 	mcrcs	0, 1, r0, cr14, cr3, {3}
     b74:	2f2e2e2f 	svccs	0x002e2e2f
     b78:	632f2e2e 			; <UNDEFINED> instruction: 0x632f2e2e
     b7c:	692f7570 	stmdbvs	pc!, {r4, r5, r6, r8, sl, ip, sp, lr}	; <UNPREDICTABLE>
     b80:	756c636e 	strbvc	r6, [ip, #-878]!	; 0xfffffc92
     b84:	00736564 	rsbseq	r6, r3, r4, ror #10
     b88:	6c636e69 	stclvs	14, cr6, [r3], #-420	; 0xfffffe5c
     b8c:	73656475 	cmnvc	r5, #1962934272	; 0x75000000
     b90:	2f2e2e00 	svccs	0x002e2e00
     b94:	2e2f2e2e 	cdpcs	14, 2, cr2, cr15, cr14, {1}
     b98:	2e2e2f2e 	cdpcs	15, 2, cr2, cr14, cr14, {1}
     b9c:	2f6f692f 	svccs	0x006f692f
     ba0:	6c636e69 	stclvs	14, cr6, [r3], #-420	; 0xfffffe5c
     ba4:	73656475 	cmnvc	r5, #1962934272	; 0x75000000
     ba8:	70630000 	rsbvc	r0, r3, r0
     bac:	69745f75 	ldmdbvs	r4!, {r0, r2, r4, r5, r6, r8, r9, sl, fp, ip, lr}^
     bb0:	2e72656d 	cdpcs	5, 7, cr6, cr2, cr13, {3}
     bb4:	00010063 	andeq	r0, r1, r3, rrx
     bb8:	72726500 	rsbsvc	r6, r2, #0, 10
     bbc:	745f726f 	ldrbvc	r7, [pc], #-623	; bc4 <SCB_AIRCR_PRIGROUP_MASK+0x4c4>
     bc0:	73657079 	cmnvc	r5, #121	; 0x79
     bc4:	0200682e 	andeq	r6, r0, #3014656	; 0x2e0000
     bc8:	74730000 	ldrbtvc	r0, [r3], #-0
     bcc:	746e6964 	strbtvc	r6, [lr], #-2404	; 0xfffff69c
     bd0:	0300682e 	movweq	r6, #2094	; 0x82e
     bd4:	74730000 	ldrbtvc	r0, [r3], #-0
     bd8:	66656464 	strbtvs	r6, [r5], -r4, ror #8
     bdc:	0300682e 	movweq	r6, #2094	; 0x82e
     be0:	6f630000 	svcvs	0x00630000
     be4:	6769666e 	strbvs	r6, [r9, -lr, ror #12]!
     be8:	0400682e 	streq	r6, [r0], #-2094	; 0xfffff7d2
     bec:	65730000 	ldrbvs	r0, [r3, #-0]!
     bf0:	6c616972 			; <UNDEFINED> instruction: 0x6c616972
     bf4:	7465735f 	strbtvc	r7, [r5], #-863	; 0xfffffca1
     bf8:	676e6974 			; <UNDEFINED> instruction: 0x676e6974
     bfc:	00682e73 	rsbeq	r2, r8, r3, ror lr
     c00:	63000005 	movwvs	r0, #5
     c04:	745f7570 	ldrbvc	r7, [pc], #-1392	; c0c <SCB_AIRCR_PRIGROUP_MASK+0x50c>
     c08:	72656d69 	rsbvc	r6, r5, #6720	; 0x1a40
     c0c:	0600682e 	streq	r6, [r0], -lr, lsr #16
     c10:	70630000 	rsbvc	r0, r3, r0
     c14:	69745f75 	ldmdbvs	r4!, {r0, r2, r4, r5, r6, r8, r9, sl, fp, ip, lr}^
     c18:	5f72656d 	svcpl	0x0072656d
     c1c:	2e666564 	cdpcs	5, 6, cr6, cr6, cr4, {3}
     c20:	00070068 	andeq	r0, r7, r8, rrx
     c24:	6f6c6300 	svcvs	0x006c6300
     c28:	2e736b63 	vsubcs.f64	d22, d3, d19
     c2c:	00050068 	andeq	r0, r5, r8, rrx
     c30:	676f6c00 	strbvs	r6, [pc, -r0, lsl #24]!
     c34:	2e726567 	cdpcs	5, 7, cr6, cr2, cr7, {3}
     c38:	00080068 	andeq	r0, r8, r8, rrx
     c3c:	05000000 	streq	r0, [r0, #-0]
     c40:	00114c02 	andseq	r4, r1, r2, lsl #24
     c44:	01280308 			; <UNDEFINED> instruction: 0x01280308
     c48:	02003f5a 	andeq	r3, r0, #360	; 0x168
     c4c:	3c060104 	stfccs	f0, [r6], {4}
     c50:	02040200 	andeq	r0, r4, #0, 4
     c54:	3a1f062e 	bcc	7c2514 <FPU_CPACR_CP10+0x4c2514>
     c58:	30932125 	addscc	r2, r3, r5, lsr #2
     c5c:	4f772168 	svcmi	0x00772168
     c60:	01040200 	mrseq	r0, R12_usr
     c64:	5a063c06 	bpl	18fc84 <SCB_VECTKEYSTAT_INV_MASK+0x17fc85>
     c68:	3e75326a 	cdpcc	2, 7, cr3, cr5, cr10, {3}
     c6c:	3e3e5b32 	vmovcc.s16	r5, d14[2]
     c70:	01040200 	mrseq	r0, R12_usr
     c74:	3e4ba121 	sqtccep	f2, f1
     c78:	02214c31 	eoreq	r4, r1, #12544	; 0x3100
     c7c:	01010008 	tsteq	r1, r8
     c80:	00000043 	andeq	r0, r0, r3, asr #32
     c84:	00200002 	eoreq	r0, r0, r2
     c88:	01020000 	mrseq	r0, (UNDEF: 2)
     c8c:	000d0efb 	strdeq	r0, [sp], -fp
     c90:	01010101 	tsteq	r1, r1, lsl #2
     c94:	01000000 	mrseq	r0, (UNDEF: 0)
     c98:	73010000 	movwvc	r0, #4096	; 0x1000
     c9c:	00006372 	andeq	r6, r0, r2, ror r3
     ca0:	2e757066 	cdpcs	0, 7, cr7, cr5, cr6, {3}
     ca4:	00010053 	andeq	r0, r1, r3, asr r0
     ca8:	05000000 	streq	r0, [r0, #-0]
     cac:	00123c02 	andseq	r3, r2, r2, lsl #24
     cb0:	00e40308 	rsceq	r0, r4, r8, lsl #6
     cb4:	23212f01 			; <UNDEFINED> instruction: 0x23212f01
     cb8:	222f2121 	eorcs	r2, pc, #1073741832	; 0x40000008
     cbc:	7403302f 	strvc	r3, [r3], #-47	; 0xffffffd1
     cc0:	02023220 	andeq	r3, r2, #32, 4
     cc4:	53010100 	movwpl	r0, #4352	; 0x1100
     cc8:	02000000 	andeq	r0, r0, #0
     ccc:	00002700 	andeq	r2, r0, r0, lsl #14
     cd0:	fb010200 	blx	414da <SCB_VECTKEYSTAT_INV_MASK+0x314db>
     cd4:	01000d0e 	tsteq	r0, lr, lsl #26
     cd8:	00010101 	andeq	r0, r1, r1, lsl #2
     cdc:	00010000 	andeq	r0, r1, r0
     ce0:	72730100 	rsbsvc	r0, r3, #0, 2
     ce4:	69000063 	stmdbvs	r0, {r0, r1, r5, r6}
     ce8:	765f746e 	ldrbvc	r7, [pc], -lr, ror #8
     cec:	6f746365 	svcvs	0x00746365
     cf0:	00532e72 	subseq	r2, r3, r2, ror lr
     cf4:	00000001 	andeq	r0, r0, r1
     cf8:	60020500 	andvs	r0, r2, r0, lsl #10
     cfc:	03080012 	movweq	r0, #32786	; 0x8012
     d00:	32010190 	andcc	r0, r1, #144, 2	; 0x24
     d04:	2f242f21 	svccs	0x00242f21
     d08:	2f242f24 	svccs	0x00242f24
     d0c:	2f272f24 	svccs	0x00272f24
     d10:	200a032f 	andcs	r0, sl, pc, lsr #6
     d14:	00d8032f 	sbcseq	r0, r8, pc, lsr #6
     d18:	00010220 	andeq	r0, r1, r0, lsr #4
     d1c:	00b80101 	adcseq	r0, r8, r1, lsl #2
     d20:	00020000 	andeq	r0, r2, r0
     d24:	00000021 	andeq	r0, r0, r1, lsr #32
     d28:	0efb0102 	cdpeq	1, 15, cr0, cr11, cr2, {0}
     d2c:	0101000d 	tsteq	r1, sp
     d30:	00000101 	andeq	r0, r0, r1, lsl #2
     d34:	00000100 	andeq	r0, r0, r0, lsl #2
     d38:	63727301 	cmnvs	r2, #67108864	; 0x4000000
     d3c:	616d0000 	cmnvs	sp, r0
     d40:	532e6874 			; <UNDEFINED> instruction: 0x532e6874
     d44:	00000100 	andeq	r0, r0, r0, lsl #2
     d48:	02050000 	andeq	r0, r5, #0
     d4c:	08001668 	stmdaeq	r0, {r3, r5, r6, r9, sl, ip}
     d50:	21012403 	tstcs	r1, r3, lsl #8
     d54:	21212121 			; <UNDEFINED> instruction: 0x21212121
     d58:	21212528 			; <UNDEFINED> instruction: 0x21212528
     d5c:	21222121 			; <UNDEFINED> instruction: 0x21222121
     d60:	22212121 	eorcs	r2, r1, #1073741832	; 0x40000008
     d64:	21222121 			; <UNDEFINED> instruction: 0x21222121
     d68:	21222121 			; <UNDEFINED> instruction: 0x21222121
     d6c:	21212121 			; <UNDEFINED> instruction: 0x21212121
     d70:	21242421 			; <UNDEFINED> instruction: 0x21242421
     d74:	21212f2f 			; <UNDEFINED> instruction: 0x21212f2f
     d78:	21212421 			; <UNDEFINED> instruction: 0x21212421
     d7c:	21222121 			; <UNDEFINED> instruction: 0x21222121
     d80:	21212121 			; <UNDEFINED> instruction: 0x21212121
     d84:	21212122 			; <UNDEFINED> instruction: 0x21212122
     d88:	22212121 	eorcs	r2, r1, #1073741832	; 0x40000008
     d8c:	21212122 			; <UNDEFINED> instruction: 0x21212122
     d90:	22212121 	eorcs	r2, r1, #1073741832	; 0x40000008
     d94:	21212121 			; <UNDEFINED> instruction: 0x21212121
     d98:	21222121 			; <UNDEFINED> instruction: 0x21222121
     d9c:	01000202 	tsteq	r0, r2, lsl #4
     da0:	02050001 	andeq	r0, r5, #1
     da4:	08001702 	stmdaeq	r0, {r1, r8, r9, sl, ip}
     da8:	01019703 	tsteq	r1, r3, lsl #14
     dac:	21212121 			; <UNDEFINED> instruction: 0x21212121
     db0:	21212121 			; <UNDEFINED> instruction: 0x21212121
     db4:	21212121 			; <UNDEFINED> instruction: 0x21212121
     db8:	21212f21 			; <UNDEFINED> instruction: 0x21212f21
     dbc:	2f222121 	svccs	0x00222121
     dc0:	21212121 			; <UNDEFINED> instruction: 0x21212121
     dc4:	21212121 			; <UNDEFINED> instruction: 0x21212121
     dc8:	212f2122 			; <UNDEFINED> instruction: 0x212f2122
     dcc:	21212121 			; <UNDEFINED> instruction: 0x21212121
     dd0:	2121212f 			; <UNDEFINED> instruction: 0x2121212f
     dd4:	00010221 	andeq	r0, r1, r1, lsr #4
     dd8:	00560101 	subseq	r0, r6, r1, lsl #2
     ddc:	00020000 	andeq	r0, r2, r0
     de0:	00000021 	andeq	r0, r0, r1, lsr #32
     de4:	0efb0102 	cdpeq	1, 15, cr0, cr11, cr2, {0}
     de8:	0101000d 	tsteq	r1, sp
     dec:	00000101 	andeq	r0, r0, r1, lsl #2
     df0:	00000100 	andeq	r0, r0, r0, lsl #2
     df4:	63727301 	cmnvs	r2, #67108864	; 0x4000000
     df8:	766e0000 	strbtvc	r0, [lr], -r0
     dfc:	532e6369 			; <UNDEFINED> instruction: 0x532e6369
     e00:	00000100 	andeq	r0, r0, r0, lsl #2
     e04:	02050000 	andeq	r0, r5, #0
     e08:	08001298 	stmdaeq	r0, {r3, r4, r7, r9, ip}
     e0c:	0100cf03 	tsteq	r0, r3, lsl #30
     e10:	23212f23 			; <UNDEFINED> instruction: 0x23212f23
     e14:	0f03302f 	svceq	0x0003302f
     e18:	212f2120 			; <UNDEFINED> instruction: 0x212f2120
     e1c:	21213123 			; <UNDEFINED> instruction: 0x21213123
     e20:	2f21312f 	svccs	0x0021312f
     e24:	21232f2f 			; <UNDEFINED> instruction: 0x21232f2f
     e28:	032e5303 			; <UNDEFINED> instruction: 0x032e5303
     e2c:	02342e1f 	eorseq	r2, r4, #496	; 0x1f0
     e30:	01010002 	tsteq	r1, r2
     e34:	00000089 	andeq	r0, r0, r9, lsl #1
     e38:	006f0002 	rsbeq	r0, pc, r2
     e3c:	01020000 	mrseq	r0, (UNDEF: 2)
     e40:	000d0efb 	strdeq	r0, [sp], -fp
     e44:	01010101 	tsteq	r1, r1, lsl #2
     e48:	01000000 	mrseq	r0, (UNDEF: 0)
     e4c:	73010000 	movwvc	r0, #4096	; 0x1000
     e50:	2e006372 	mcrcs	3, 0, r6, cr0, cr2, {3}
     e54:	2e2e2f2e 	cdpcs	15, 2, cr2, cr14, cr14, {1}
     e58:	2f2e2e2f 	svccs	0x002e2e2f
     e5c:	742f2e2e 	strtvc	r2, [pc], #-3630	; e64 <SCB_AIRCR_PRIGROUP_MASK+0x764>
     e60:	73657079 	cmnvc	r5, #121	; 0x79
     e64:	636e692f 	cmnvs	lr, #770048	; 0xbc000
     e68:	6564756c 	strbvs	r7, [r4, #-1388]!	; 0xfffffa94
     e6c:	2e2e0073 	mcrcs	0, 1, r0, cr14, cr3, {3}
     e70:	2f2e2e2f 	svccs	0x002e2e2f
     e74:	632f2e2e 			; <UNDEFINED> instruction: 0x632f2e2e
     e78:	692f7570 	stmdbvs	pc!, {r4, r5, r6, r8, sl, ip, sp, lr}	; <UNPREDICTABLE>
     e7c:	756c636e 	strbvc	r6, [ip, #-878]!	; 0xfffffc92
     e80:	00736564 	rsbseq	r6, r3, r4, ror #10
     e84:	6e617000 	cdpvs	0, 6, cr7, cr1, cr0, {0}
     e88:	632e6369 			; <UNDEFINED> instruction: 0x632e6369
     e8c:	00000100 	andeq	r0, r0, r0, lsl #2
     e90:	6f727265 	svcvs	0x00727265
     e94:	79745f72 	ldmdbvc	r4!, {r1, r4, r5, r6, r8, r9, sl, fp, ip, lr}^
     e98:	2e736570 	mrccs	5, 3, r6, cr3, cr0, {3}
     e9c:	00020068 	andeq	r0, r2, r8, rrx
     ea0:	6e617000 	cdpvs	0, 6, cr7, cr1, cr0, {0}
     ea4:	682e6369 	stmdavs	lr!, {r0, r3, r5, r6, r8, r9, sp, lr}
     ea8:	00000300 	andeq	r0, r0, r0, lsl #6
     eac:	02050000 	andeq	r0, r5, #0
     eb0:	080012e8 	stmdaeq	r0, {r3, r5, r6, r7, r9, ip}
     eb4:	00011f03 	andeq	r1, r1, r3, lsl #30
     eb8:	5d010402 	cfstrspl	mvf0, [r1, #-8]
     ebc:	01000102 	tsteq	r0, r2, lsl #2
     ec0:	00014a01 	andeq	r4, r1, r1, lsl #20
     ec4:	18000200 	stmdane	r0, {r9}
     ec8:	02000001 	andeq	r0, r0, #1
     ecc:	0d0efb01 	vstreq	d15, [lr, #-4]
     ed0:	01010100 	mrseq	r0, (UNDEF: 17)
     ed4:	00000001 	andeq	r0, r0, r1
     ed8:	01000001 	tsteq	r0, r1
     edc:	00637273 	rsbeq	r7, r3, r3, ror r2
     ee0:	742f2e2e 	strtvc	r2, [pc], #-3630	; ee8 <SCB_AIRCR_PRIGROUP_MASK+0x7e8>
     ee4:	73657079 	cmnvc	r5, #121	; 0x79
     ee8:	636e692f 	cmnvs	lr, #770048	; 0xbc000
     eec:	6564756c 	strbvs	r7, [r4, #-1388]!	; 0xfffffa94
     ef0:	2e2e0073 	mcrcs	0, 1, r0, cr14, cr3, {3}
     ef4:	62696c2f 	rsbvs	r6, r9, #12032	; 0x2f00
     ef8:	636e692f 	cmnvs	lr, #770048	; 0xbc000
     efc:	6564756c 	strbvs	r7, [r4, #-1388]!	; 0xfffffa94
     f00:	2e2e0073 	mcrcs	0, 1, r0, cr14, cr3, {3}
     f04:	6372612f 	cmnvs	r2, #-1073741813	; 0xc000000b
     f08:	6f622f68 	svcvs	0x00622f68
     f0c:	2f647261 	svccs	0x00647261
     f10:	6c636e69 	stclvs	14, cr6, [r3], #-420	; 0xfffffe5c
     f14:	73656475 	cmnvc	r5, #1962934272	; 0x75000000
     f18:	2f2e2e00 	svccs	0x002e2e00
     f1c:	692f6f69 	stmdbvs	pc!, {r0, r3, r5, r6, r8, r9, sl, fp, sp, lr}	; <UNPREDICTABLE>
     f20:	756c636e 	strbvc	r6, [ip, #-878]!	; 0xfffffc92
     f24:	00736564 	rsbseq	r6, r3, r4, ror #10
     f28:	2e2f2e2e 	cdpcs	14, 2, cr2, cr15, cr14, {1}
     f2c:	2e2e002e 	cdpcs	0, 2, cr0, cr14, cr14, {1}
     f30:	6372612f 	cmnvs	r2, #-1073741813	; 0xc000000b
     f34:	70632f68 	rsbvc	r2, r3, r8, ror #30
     f38:	6e692f75 	mcrvs	15, 3, r2, cr9, cr5, {3}
     f3c:	64756c63 	ldrbtvs	r6, [r5], #-3171	; 0xfffff39d
     f40:	00007365 	andeq	r7, r0, r5, ror #6
     f44:	6e72656b 	cdpvs	5, 7, cr6, cr2, cr11, {3}
     f48:	655f6c65 	ldrbvs	r6, [pc, #-3173]	; 2eb <FPU_FPCCR_MONRDY+0x1eb>
     f4c:	7972746e 	ldmdbvc	r2!, {r1, r2, r3, r5, r6, sl, ip, sp, lr}^
     f50:	0100632e 	tsteq	r0, lr, lsr #6
     f54:	72650000 	rsbvc	r0, r5, #0
     f58:	5f726f72 	svcpl	0x00726f72
     f5c:	65707974 	ldrbvs	r7, [r0, #-2420]!	; 0xfffff68c
     f60:	00682e73 	rsbeq	r2, r8, r3, ror lr
     f64:	73000002 	movwvc	r0, #2
     f68:	6e696474 	mcrvs	4, 3, r6, cr9, cr4, {3}
     f6c:	00682e74 	rsbeq	r2, r8, r4, ror lr
     f70:	73000003 	movwvc	r0, #3
     f74:	65646474 	strbvs	r6, [r4, #-1140]!	; 0xfffffb8c
     f78:	00682e66 	rsbeq	r2, r8, r6, ror #28
     f7c:	73000003 	movwvc	r0, #3
     f80:	61697265 	cmnvs	r9, r5, ror #4
     f84:	00682e6c 	rsbeq	r2, r8, ip, ror #28
     f88:	6c000004 	stcvs	0, cr0, [r0], {4}
     f8c:	6567676f 	strbvs	r6, [r7, #-1903]!	; 0xfffff891
     f90:	00682e72 	rsbeq	r2, r8, r2, ror lr
     f94:	63000005 	movwvs	r0, #5
     f98:	69666e6f 	stmdbvs	r6!, {r0, r1, r2, r3, r5, r6, r9, sl, fp, sp, lr}^
     f9c:	00682e67 	rsbeq	r2, r8, r7, ror #28
     fa0:	73000006 	movwvc	r0, #6
     fa4:	61697265 	cmnvs	r9, r5, ror #4
     fa8:	65735f6c 	ldrbvs	r5, [r3, #-3948]!	; 0xfffff094
     fac:	6e697474 	mcrvs	4, 3, r7, cr9, cr4, {3}
     fb0:	682e7367 	stmdavs	lr!, {r0, r1, r2, r5, r6, r8, r9, ip, sp, lr}
     fb4:	00000400 	andeq	r0, r0, r0, lsl #8
     fb8:	5f707362 	svcpl	0x00707362
     fbc:	67676f6c 	strbvs	r6, [r7, -ip, ror #30]!
     fc0:	682e7265 	stmdavs	lr!, {r0, r2, r5, r6, r9, ip, sp, lr}
     fc4:	00000400 	andeq	r0, r0, r0, lsl #8
     fc8:	696e6170 	stmdbvs	lr!, {r4, r5, r6, r8, sp, lr}^
     fcc:	00682e63 	rsbeq	r2, r8, r3, ror #28
     fd0:	63000007 	movwvs	r0, #7
     fd4:	745f7570 	ldrbvc	r7, [pc], #-1392	; fdc <SCB_AIRCR_PRIGROUP_MASK+0x8dc>
     fd8:	72656d69 	rsbvc	r6, r5, #6720	; 0x1a40
     fdc:	0700682e 	streq	r6, [r0, -lr, lsr #16]
     fe0:	00000000 	andeq	r0, r0, r0
     fe4:	12f40205 	rscsne	r0, r4, #1342177280	; 0x50000000
     fe8:	20030800 	andcs	r0, r3, r0, lsl #16
     fec:	30673e01 	rsbcc	r3, r7, r1, lsl #28
     ff0:	674e3e67 	strbvs	r3, [lr, -r7, ror #28]
     ff4:	674c793e 	smlaldxvs	r7, ip, lr, r9
     ff8:	40ba1003 	adcsmi	r1, sl, r3
     ffc:	6b3e5933 	blvs	f974d0 <FPU_ENABLE_CPACR_VALUE+0x974d0>
    1000:	6b3e594c 	blvs	f97538 <FPU_ENABLE_CPACR_VALUE+0x97538>
    1004:	0402004f 	streq	r0, [r2], #-79	; 0xffffffb1
    1008:	05026701 	streq	r6, [r2, #-1793]	; 0xfffff8ff
    100c:	a1010100 	mrsge	r0, (UNDEF: 17)
    1010:	02000000 	andeq	r0, r0, #0
    1014:	00008d00 	andeq	r8, r0, r0, lsl #26
    1018:	fb010200 	blx	41822 <SCB_VECTKEYSTAT_INV_MASK+0x31823>
    101c:	01000d0e 	tsteq	r0, lr, lsl #26
    1020:	00010101 	andeq	r0, r1, r1, lsl #2
    1024:	00010000 	andeq	r0, r1, r0
    1028:	72730100 	rsbsvc	r0, r3, #0, 2
    102c:	2e2e0063 	cdpcs	0, 2, cr0, cr14, cr3, {3}
    1030:	62696c2f 	rsbvs	r6, r9, #12032	; 0x2f00
    1034:	636e692f 	cmnvs	lr, #770048	; 0xbc000
    1038:	6564756c 	strbvs	r7, [r4, #-1388]!	; 0xfffffa94
    103c:	2e2e0073 	mcrcs	0, 1, r0, cr14, cr3, {3}
    1040:	002e2e2f 	eoreq	r2, lr, pc, lsr #28
    1044:	612f2e2e 			; <UNDEFINED> instruction: 0x612f2e2e
    1048:	2f686372 	svccs	0x00686372
    104c:	72616f62 	rsbvc	r6, r1, #392	; 0x188
    1050:	6e692f64 	cdpvs	15, 6, cr2, cr9, cr4, {3}
    1054:	64756c63 	ldrbtvs	r6, [r5], #-3171	; 0xfffff39d
    1058:	00007365 	andeq	r7, r0, r5, ror #6
    105c:	65746e69 	ldrbvs	r6, [r4, #-3689]!	; 0xfffff197
    1060:	70757272 	rsbsvc	r7, r5, r2, ror r2
    1064:	632e7374 			; <UNDEFINED> instruction: 0x632e7374
    1068:	00000100 	andeq	r0, r0, r0, lsl #2
    106c:	69647473 	stmdbvs	r4!, {r0, r1, r4, r5, r6, sl, ip, sp, lr}^
    1070:	682e746e 	stmdavs	lr!, {r1, r2, r3, r5, r6, sl, ip, sp, lr}
    1074:	00000200 	andeq	r0, r0, r0, lsl #4
    1078:	64647473 	strbtvs	r7, [r4], #-1139	; 0xfffffb8d
    107c:	682e6665 	stmdavs	lr!, {r0, r2, r5, r6, r9, sl, sp, lr}
    1080:	00000200 	andeq	r0, r0, r0, lsl #4
    1084:	666e6f63 	strbtvs	r6, [lr], -r3, ror #30
    1088:	682e6769 	stmdavs	lr!, {r0, r3, r5, r6, r8, r9, sl, sp, lr}
    108c:	00000300 	andeq	r0, r0, r0, lsl #6
    1090:	69726573 	ldmdbvs	r2!, {r0, r1, r4, r5, r6, r8, sl, sp, lr}^
    1094:	735f6c61 	cmpvc	pc, #24832	; 0x6100
    1098:	69747465 	ldmdbvs	r4!, {r0, r2, r5, r6, sl, ip, sp, lr}^
    109c:	2e73676e 	cdpcs	7, 7, cr6, cr3, cr14, {3}
    10a0:	00040068 	andeq	r0, r4, r8, rrx
    10a4:	05000000 	streq	r0, [r0, #-0]
    10a8:	0013d802 	andseq	sp, r3, r2, lsl #16
    10ac:	026a1508 	rsbeq	r1, sl, #8, 10	; 0x2000000
    10b0:	01010006 	tsteq	r1, r6
    10b4:	0000013d 	andeq	r0, r0, sp, lsr r1
    10b8:	00c10002 	sbceq	r0, r1, r2
    10bc:	01020000 	mrseq	r0, (UNDEF: 2)
    10c0:	000d0efb 	strdeq	r0, [sp], -fp
    10c4:	01010101 	tsteq	r1, r1, lsl #2
    10c8:	01000000 	mrseq	r0, (UNDEF: 0)
    10cc:	73010000 	movwvc	r0, #4096	; 0x1000
    10d0:	2e006372 	mcrcs	3, 0, r6, cr0, cr2, {3}
    10d4:	79742f2e 	ldmdbvc	r4!, {r1, r2, r3, r5, r8, r9, sl, fp, sp}^
    10d8:	2f736570 	svccs	0x00736570
    10dc:	6c636e69 	stclvs	14, cr6, [r3], #-420	; 0xfffffe5c
    10e0:	73656475 	cmnvc	r5, #1962934272	; 0x75000000
    10e4:	2f2e2e00 	svccs	0x002e2e00
    10e8:	2f62696c 	svccs	0x0062696c
    10ec:	6c636e69 	stclvs	14, cr6, [r3], #-420	; 0xfffffe5c
    10f0:	73656475 	cmnvc	r5, #1962934272	; 0x75000000
    10f4:	636e6900 	cmnvs	lr, #0, 18
    10f8:	6564756c 	strbvs	r7, [r4, #-1388]!	; 0xfffffa94
    10fc:	2e2e0073 	mcrcs	0, 1, r0, cr14, cr3, {3}
    1100:	002e2e2f 	eoreq	r2, lr, pc, lsr #28
    1104:	612f2e2e 			; <UNDEFINED> instruction: 0x612f2e2e
    1108:	2f686372 	svccs	0x00686372
    110c:	72616f62 	rsbvc	r6, r1, #392	; 0x188
    1110:	6e692f64 	cdpvs	15, 6, cr2, cr9, cr4, {3}
    1114:	64756c63 	ldrbtvs	r6, [r5], #-3171	; 0xfffff39d
    1118:	00007365 	andeq	r7, r0, r5, ror #6
    111c:	67676f6c 	strbvs	r6, [r7, -ip, ror #30]!
    1120:	632e7265 			; <UNDEFINED> instruction: 0x632e7265
    1124:	00000100 	andeq	r0, r0, r0, lsl #2
    1128:	6f727265 	svcvs	0x00727265
    112c:	79745f72 	ldmdbvc	r4!, {r1, r4, r5, r6, r8, r9, sl, fp, ip, lr}^
    1130:	2e736570 	mrccs	5, 3, r6, cr3, cr0, {3}
    1134:	00020068 	andeq	r0, r2, r8, rrx
    1138:	64747300 	ldrbtvs	r7, [r4], #-768	; 0xfffffd00
    113c:	2e746e69 	cdpcs	14, 7, cr6, cr4, cr9, {3}
    1140:	00030068 	andeq	r0, r3, r8, rrx
    1144:	64747300 	ldrbtvs	r7, [r4], #-768	; 0xfffffd00
    1148:	2e666564 	cdpcs	5, 6, cr6, cr6, cr4, {3}
    114c:	00030068 	andeq	r0, r3, r8, rrx
    1150:	676f6c00 	strbvs	r6, [pc, -r0, lsl #24]!
    1154:	2e726567 	cdpcs	5, 7, cr6, cr2, cr7, {3}
    1158:	00040068 	andeq	r0, r4, r8, rrx
    115c:	6e6f6300 	cdpvs	3, 6, cr6, cr15, cr0, {0}
    1160:	2e676966 	vnmulcs.f16	s13, s14, s13	; <UNPREDICTABLE>
    1164:	00050068 	andeq	r0, r5, r8, rrx
    1168:	72657300 	rsbvc	r7, r5, #0, 6
    116c:	5f6c6169 	svcpl	0x006c6169
    1170:	74746573 	ldrbtvc	r6, [r4], #-1395	; 0xfffffa8d
    1174:	73676e69 	cmnvc	r7, #1680	; 0x690
    1178:	0600682e 	streq	r6, [r0], -lr, lsr #16
    117c:	00000000 	andeq	r0, r0, r0
    1180:	13f00205 	mvnsne	r0, #1342177280	; 0x50000000
    1184:	26030800 	strcs	r0, [r3], -r0, lsl #16
    1188:	4b756701 	blmi	1d5ad94 <FPU_ENABLE_CPACR_VALUE+0xe5ad94>
    118c:	00306793 	mlaseq	r0, r3, r7, r6
    1190:	3e030402 	cdpcc	4, 0, cr0, cr3, cr2, {0}
    1194:	03040200 	movweq	r0, #16896	; 0x4200
    1198:	040200c6 	streq	r0, [r2], #-198	; 0xffffff3a
    119c:	063c0601 	ldrteq	r0, [ip], -r1, lsl #12
    11a0:	04020040 	streq	r0, [r2], #-64	; 0xffffffc0
    11a4:	02002202 	andeq	r2, r0, #536870912	; 0x20000000
    11a8:	00560204 	subseq	r0, r6, r4, lsl #4
    11ac:	06010402 	streq	r0, [r1], -r2, lsl #8
    11b0:	8640063c 			; <UNDEFINED> instruction: 0x8640063c
    11b4:	3a222f4b 	bcc	88cee8 <FPU_CPACR_CP10+0x58cee8>
    11b8:	796b216a 	stmdbvc	fp!, {r1, r3, r5, r6, r8, sp}^
    11bc:	005a3e91 			; <UNDEFINED> instruction: 0x005a3e91
    11c0:	3e030402 	cdpcc	4, 0, cr0, cr3, cr2, {0}
    11c4:	03040200 	movweq	r0, #16896	; 0x4200
    11c8:	0402009f 	streq	r0, [r2], #-159	; 0xffffff61
    11cc:	02007103 	andeq	r7, r0, #-1073741824	; 0xc0000000
    11d0:	3c060104 	stfccs	f0, [r6], {4}
    11d4:	75595006 	ldrbvc	r5, [r9, #-6]
    11d8:	4bc159c9 	blmi	ff057904 <FPU_MVFR1_ADDR+0x1f0489c0>
    11dc:	3e4c313e 	mcrcc	1, 2, r3, cr12, cr14, {1}
    11e0:	4d75b121 	ldfmip	f3, [r5, #-132]!	; 0xffffff7c
    11e4:	75a46859 	strvc	r6, [r4, #2137]!	; 0x859
    11e8:	a468594c 	strbtge	r5, [r8], #-2380	; 0xfffff6b4
    11ec:	68594c75 	ldmdavs	r9, {r0, r2, r4, r5, r6, sl, fp, lr}^
    11f0:	01000a02 	tsteq	r0, r2, lsl #20
    11f4:	Address 0x00000000000011f4 is out of bounds.


Disassembly of section .debug_str:

00000000 <.debug_str>:
       0:	49555f5f 	ldmdbmi	r5, {r0, r1, r2, r3, r4, r6, r8, r9, sl, fp, ip, lr}^
       4:	465f544e 	ldrbmi	r5, [pc], -lr, asr #8
       8:	38545341 	ldmdacc	r4, {r0, r6, r8, r9, ip, lr}^
       c:	58414d5f 	stmdapl	r1, {r0, r1, r2, r3, r4, r6, r8, sl, fp, lr}^
      10:	30205f5f 	eorcc	r5, r0, pc, asr pc
      14:	66666678 			; <UNDEFINED> instruction: 0x66666678
      18:	66666666 	strbtvs	r6, [r6], -r6, ror #12
      1c:	5f005566 	svcpl	0x00005566
      20:	5f51485f 	svcpl	0x0051485f
      24:	54494246 	strbpl	r4, [r9], #-582	; 0xfffffdba
      28:	31205f5f 			; <UNDEFINED> instruction: 0x31205f5f
      2c:	5f5f0035 	svcpl	0x005f0035
      30:	5f515455 	svcpl	0x00515455
      34:	54494246 	strbpl	r4, [r9], #-582	; 0xfffffdba
      38:	31205f5f 			; <UNDEFINED> instruction: 0x31205f5f
      3c:	5f003832 	svcpl	0x00003832
      40:	4154555f 	cmpmi	r4, pc, asr r5
      44:	4942465f 	stmdbmi	r2, {r0, r1, r2, r3, r4, r6, r9, sl, lr}^
      48:	205f5f54 	subscs	r5, pc, r4, asr pc	; <UNPREDICTABLE>
      4c:	5f003436 	svcpl	0x00003436
      50:	5148555f 	cmppl	r8, pc, asr r5
      54:	4942495f 	stmdbmi	r2, {r0, r1, r2, r3, r4, r6, r8, fp, lr}^
      58:	205f5f54 	subscs	r5, pc, r4, asr pc	; <UNPREDICTABLE>
      5c:	5f5f0030 	svcpl	0x005f0030
      60:	5f414855 	svcpl	0x00414855
      64:	54494249 	strbpl	r4, [r9], #-585	; 0xfffffdb7
      68:	38205f5f 	stmdacc	r0!, {r0, r1, r2, r3, r4, r6, r8, r9, sl, fp, ip, lr}
      6c:	535f5f00 	cmppl	pc, #0, 30
      70:	4f455a49 	svcmi	0x00455a49
      74:	49535f46 	ldmdbmi	r3, {r1, r2, r6, r8, r9, sl, fp, ip, lr}^
      78:	545f455a 	ldrbpl	r4, [pc], #-1370	; 80 <FPU_FPCCR_MONRDY-0x80>
      7c:	34205f5f 	strtcc	r5, [r0], #-3935	; 0xfffff0a1
      80:	495f5f00 	ldmdbmi	pc, {r8, r9, sl, fp, ip, lr}^	; <UNPREDICTABLE>
      84:	3436544e 	ldrtcc	r5, [r6], #-1102	; 0xfffffbb2
      88:	5059545f 	subspl	r5, r9, pc, asr r4
      8c:	205f5f45 	subscs	r5, pc, r5, asr #30
      90:	676e6f6c 	strbvs	r6, [lr, -ip, ror #30]!
      94:	6e6f6c20 	cdpvs	12, 6, cr6, cr15, cr0, {1}
      98:	6e692067 	cdpvs	0, 6, cr2, cr9, cr7, {3}
      9c:	5f5f0074 	svcpl	0x005f0074
      a0:	43414c55 	movtmi	r4, #7253	; 0x1c55
      a4:	5f4d5543 	svcpl	0x004d5543
      a8:	49535045 	ldmdbmi	r3, {r0, r2, r6, ip, lr}^
      ac:	5f4e4f4c 	svcpl	0x004e4f4c
      b0:	7830205f 	ldmdavc	r0!, {r0, r1, r2, r3, r4, r6, sp}
      b4:	332d5031 			; <UNDEFINED> instruction: 0x332d5031
      b8:	4b4c5532 	blmi	1315588 <FPU_ENABLE_CPACR_VALUE+0x415588>
      bc:	555f5f00 	ldrbpl	r5, [pc, #-3840]	; fffff1c4 <FPU_MVFR1_ADDR+0x1fff0280>
      c0:	43414c4c 	movtmi	r4, #7244	; 0x1c4c
      c4:	5f4d5543 	svcpl	0x004d5543
      c8:	54494246 	strbpl	r4, [r9], #-582	; 0xfffffdba
      cc:	33205f5f 			; <UNDEFINED> instruction: 0x33205f5f
      d0:	5f5f0032 	svcpl	0x005f0032
      d4:	36544e49 	ldrbcc	r4, [r4], -r9, asr #28
      d8:	28435f34 	stmdacs	r3, {r2, r4, r5, r8, r9, sl, fp, ip, lr}^
      dc:	63202963 			; <UNDEFINED> instruction: 0x63202963
      e0:	20232320 	eorcs	r2, r3, r0, lsr #6
      e4:	5f004c4c 	svcpl	0x00004c4c
      e8:	5a49535f 	bpl	1254e6c <FPU_ENABLE_CPACR_VALUE+0x354e6c>
      ec:	5f464f45 	svcpl	0x00464f45
      f0:	4e494f50 	mcrmi	15, 2, r4, cr9, cr0, {2}
      f4:	5f524554 	svcpl	0x00524554
      f8:	0034205f 	eorseq	r2, r4, pc, asr r0
      fc:	49555f5f 	ldmdbmi	r5, {r0, r1, r2, r3, r4, r6, r8, r9, sl, fp, ip, lr}^
     100:	4c5f544e 	cfldrdmi	mvd5, [pc], {78}	; 0x4e
     104:	54534145 	ldrbpl	r4, [r3], #-325	; 0xfffffebb
     108:	545f3233 	ldrbpl	r3, [pc], #-563	; 110 <FPU_FPCCR_MONRDY+0x10>
     10c:	5f455059 	svcpl	0x00455059
     110:	6f6c205f 	svcvs	0x006c205f
     114:	7520676e 	strvc	r6, [r0, #-1902]!	; 0xfffff892
     118:	6769736e 	strbvs	r7, [r9, -lr, ror #6]!
     11c:	2064656e 	rsbcs	r6, r4, lr, ror #10
     120:	00746e69 	rsbseq	r6, r4, r9, ror #28
     124:	54535f5f 	ldrbpl	r5, [r3], #-3935	; 0xfffff0a1
     128:	565f4344 	ldrbpl	r4, [pc], -r4, asr #6
     12c:	49535245 	ldmdbmi	r3, {r0, r2, r6, r9, ip, lr}^
     130:	5f5f4e4f 	svcpl	0x005f4e4f
     134:	31303220 	teqcc	r0, r0, lsr #4
     138:	4c323131 	ldfmis	f3, [r2], #-196	; 0xffffff3c
     13c:	535f5f00 	cmppl	pc, #0, 30
     140:	55434341 	strbpl	r4, [r3, #-833]	; 0xfffffcbf
     144:	42495f4d 	submi	r5, r9, #308	; 0x134
     148:	5f5f5449 	svcpl	0x005f5449
     14c:	5f003820 	svcpl	0x00003820
     150:	4653555f 			; <UNDEFINED> instruction: 0x4653555f
     154:	54434152 	strbpl	r4, [r3], #-338	; 0xfffffeae
     158:	5350455f 	cmppl	r0, #398458880	; 0x17c00000
     15c:	4e4f4c49 	cdpmi	12, 4, cr4, cr15, cr9, {2}
     160:	30205f5f 	eorcc	r5, r0, pc, asr pc
     164:	2d503178 	ldfcse	f3, [r0, #-480]	; 0xfffffe20
     168:	52485538 	subpl	r5, r8, #56, 10	; 0xe000000
     16c:	555f5f00 	ldrbpl	r5, [pc, #-3840]	; fffff274 <FPU_MVFR1_ADDR+0x1fff0330>
     170:	465f5148 	ldrbmi	r5, [pc], -r8, asr #2
     174:	5f544942 	svcpl	0x00544942
     178:	3631205f 			; <UNDEFINED> instruction: 0x3631205f
     17c:	445f5f00 	ldrbmi	r5, [pc], #-3840	; 184 <FPU_FPCCR_MONRDY+0x84>
     180:	4d5f4c42 	ldclmi	12, cr4, [pc, #-264]	; 80 <FPU_FPCCR_MONRDY-0x80>
     184:	5f5f5841 	svcpl	0x005f5841
     188:	64282820 	strtvs	r2, [r8], #-2080	; 0xfffff7e0
     18c:	6c62756f 	cfstr64vs	mvdx7, [r2], #-444	; 0xfffffe44
     190:	2e312965 	vsubcs.f16	s4, s2, s11	; <UNPREDICTABLE>
     194:	36373937 			; <UNDEFINED> instruction: 0x36373937
     198:	33313339 	teqcc	r1, #-469762048	; 0xe4000000
     19c:	32363834 	eorscc	r3, r6, #52, 16	; 0x340000
     1a0:	37353133 			; <UNDEFINED> instruction: 0x37353133
     1a4:	30332b65 	eorscc	r2, r3, r5, ror #22
     1a8:	00294c38 	eoreq	r4, r9, r8, lsr ip
     1ac:	45445f5f 	strbmi	r5, [r4, #-3935]	; 0xfffff0a1
     1b0:	5f343643 	svcpl	0x00343643
     1b4:	544e414d 	strbpl	r4, [lr], #-333	; 0xfffffeb3
     1b8:	4749445f 	smlsldmi	r4, r9, pc, r4	; <UNPREDICTABLE>
     1bc:	31205f5f 			; <UNDEFINED> instruction: 0x31205f5f
     1c0:	5f5f0036 	svcpl	0x005f0036
     1c4:	5f544c46 	svcpl	0x00544c46
     1c8:	49444152 	stmdbmi	r4, {r1, r4, r6, r8, lr}^
     1cc:	205f5f58 	subscs	r5, pc, r8, asr pc	; <UNPREDICTABLE>
     1d0:	5f5f0032 	svcpl	0x005f0032
     1d4:	544e4955 	strbpl	r4, [lr], #-2389	; 0xfffff6ab
     1d8:	5f58414d 	svcpl	0x0058414d
     1dc:	29632843 	stmdbcs	r3!, {r0, r1, r6, fp, sp}^
     1e0:	23206320 			; <UNDEFINED> instruction: 0x23206320
     1e4:	4c552023 	mrrcmi	0, 2, r2, r5, cr3
     1e8:	5f5f004c 	svcpl	0x005f004c
     1ec:	5f544e49 	svcpl	0x00544e49
     1f0:	54534146 	ldrbpl	r4, [r3], #-326	; 0xfffffeba
     1f4:	414d5f38 	cmpmi	sp, r8, lsr pc
     1f8:	205f5f58 	subscs	r5, pc, r8, asr pc	; <UNPREDICTABLE>
     1fc:	66377830 			; <UNDEFINED> instruction: 0x66377830
     200:	66666666 	strbtvs	r6, [r6], -r6, ror #12
     204:	5f006666 	svcpl	0x00006666
     208:	4345445f 	movtmi	r4, #21599	; 0x545f
     20c:	4d5f3233 	lfmmi	f3, 2, [pc, #-204]	; 148 <FPU_FPCCR_MONRDY+0x48>
     210:	5f5f4e49 	svcpl	0x005f4e49
     214:	2d453120 	stfcse	f3, [r5, #-128]	; 0xffffff80
     218:	46443539 			; <UNDEFINED> instruction: 0x46443539
     21c:	555f5f00 	ldrbpl	r5, [pc, #-3840]	; fffff324 <FPU_MVFR1_ADDR+0x1fff03e0>
     220:	36544e49 	ldrbcc	r4, [r4], -r9, asr #28
     224:	59545f34 	ldmdbpl	r4, {r2, r4, r5, r8, r9, sl, fp, ip, lr}^
     228:	5f5f4550 	svcpl	0x005f4550
     22c:	6e6f6c20 	cdpvs	12, 6, cr6, cr15, cr0, {1}
     230:	6f6c2067 	svcvs	0x006c2067
     234:	7520676e 	strvc	r6, [r0, #-1902]!	; 0xfffff892
     238:	6769736e 	strbvs	r7, [r9, -lr, ror #6]!
     23c:	2064656e 	rsbcs	r6, r4, lr, ror #10
     240:	00746e69 	rsbseq	r6, r4, r9, ror #28
     244:	4c555f5f 	mrrcmi	15, 5, r5, r5, cr15	; <UNPREDICTABLE>
     248:	4152464c 	cmpmi	r2, ip, asr #12
     24c:	4d5f5443 	cfldrdmi	mvd5, [pc, #-268]	; 148 <FPU_FPCCR_MONRDY+0x48>
     250:	5f5f4e49 	svcpl	0x005f4e49
     254:	302e3020 	eorcc	r3, lr, r0, lsr #32
     258:	524c4c55 	subpl	r4, ip, #21760	; 0x5500
     25c:	555f5f00 	ldrbpl	r5, [pc, #-3840]	; fffff364 <FPU_MVFR1_ADDR+0x1fff0420>
     260:	43414c4c 	movtmi	r4, #7244	; 0x1c4c
     264:	5f4d5543 	svcpl	0x004d5543
     268:	49535045 	ldmdbmi	r3, {r0, r2, r6, ip, lr}^
     26c:	5f4e4f4c 	svcpl	0x004e4f4c
     270:	7830205f 	ldmdavc	r0!, {r0, r1, r2, r3, r4, r6, sp}
     274:	332d5031 			; <UNDEFINED> instruction: 0x332d5031
     278:	4c4c5532 	cfstr64mi	mvdx5, [ip], {50}	; 0x32
     27c:	5f5f004b 	svcpl	0x005f004b
     280:	4d4f5441 	cfstrdmi	mvd5, [pc, #-260]	; 184 <FPU_FPCCR_MONRDY+0x84>
     284:	535f4349 	cmppl	pc, #603979777	; 0x24000001
     288:	435f5145 	cmpmi	pc, #1073741841	; 0x40000011
     28c:	35205453 	strcc	r5, [r0, #-1107]!	; 0xfffffbad
     290:	575f5f00 	ldrbpl	r5, [pc, -r0, lsl #30]
     294:	52414843 	subpl	r4, r1, #4390912	; 0x430000
     298:	58414d5f 	stmdapl	r1, {r0, r1, r2, r3, r4, r6, r8, sl, fp, lr}^
     29c:	30205f5f 	eorcc	r5, r0, pc, asr pc
     2a0:	66666678 			; <UNDEFINED> instruction: 0x66666678
     2a4:	66666666 	strbtvs	r6, [r6], -r6, ror #12
     2a8:	5f005566 	svcpl	0x00005566
     2ac:	5046565f 	subpl	r5, r6, pc, asr r6
     2b0:	5f50465f 	svcpl	0x0050465f
     2b4:	0031205f 	eorseq	r2, r1, pc, asr r0
     2b8:	49535f5f 	ldmdbmi	r3, {r0, r1, r2, r3, r4, r6, r8, r9, sl, fp, ip, lr}^
     2bc:	464f455a 			; <UNDEFINED> instruction: 0x464f455a
     2c0:	4e49575f 	mcrmi	7, 2, r5, cr9, cr15, {2}
     2c4:	5f545f54 	svcpl	0x00545f54
     2c8:	0034205f 	eorseq	r2, r4, pc, asr r0
     2cc:	41535f5f 	cmpmi	r3, pc, asr pc
     2d0:	4d554343 	ldclmi	3, cr4, [r5, #-268]	; 0xfffffef4
     2d4:	5350455f 	cmppl	r0, #398458880	; 0x17c00000
     2d8:	4e4f4c49 	cdpmi	12, 4, cr4, cr15, cr9, {2}
     2dc:	30205f5f 	eorcc	r5, r0, pc, asr pc
     2e0:	2d503178 	ldfcse	f3, [r0, #-480]	; 0xfffffe20
     2e4:	004b4837 	subeq	r4, fp, r7, lsr r8
     2e8:	48545f5f 	ldmdami	r4, {r0, r1, r2, r3, r4, r6, r8, r9, sl, fp, ip, lr}^
     2ec:	45424d55 	strbmi	r4, [r2, #-3413]	; 0xfffff2ab
     2f0:	205f5f4c 	subscs	r5, pc, ip, asr #30
     2f4:	5f5f0031 	svcpl	0x005f0031
     2f8:	5f544e49 	svcpl	0x00544e49
     2fc:	5341454c 	movtpl	r4, #5452	; 0x154c
     300:	5f343654 	svcpl	0x00343654
     304:	5f58414d 	svcpl	0x0058414d
     308:	7830205f 	ldmdavc	r0!, {r0, r1, r2, r3, r4, r6, sp}
     30c:	66666637 			; <UNDEFINED> instruction: 0x66666637
     310:	66666666 	strbtvs	r6, [r6], -r6, ror #12
     314:	66666666 	strbtvs	r6, [r6], -r6, ror #12
     318:	66666666 	strbtvs	r6, [r6], -r6, ror #12
     31c:	5f004c4c 	svcpl	0x00004c4c
     320:	4148435f 	cmpmi	r8, pc, asr r3
     324:	5f323352 	svcpl	0x00323352
     328:	45505954 	ldrbmi	r5, [r0, #-2388]	; 0xfffff6ac
     32c:	6c205f5f 	stcvs	15, cr5, [r0], #-380	; 0xfffffe84
     330:	20676e6f 	rsbcs	r6, r7, pc, ror #28
     334:	69736e75 	ldmdbvs	r3!, {r0, r2, r4, r5, r6, r9, sl, fp, sp, lr}^
     338:	64656e67 	strbtvs	r6, [r5], #-3687	; 0xfffff199
     33c:	746e6920 	strbtvc	r6, [lr], #-2336	; 0xfffff6e0
     340:	555f5f00 	ldrbpl	r5, [pc, #-3840]	; fffff448 <FPU_MVFR1_ADDR+0x1fff0504>
     344:	4343414c 	movtmi	r4, #12620	; 0x314c
     348:	465f4d55 			; <UNDEFINED> instruction: 0x465f4d55
     34c:	5f544942 	svcpl	0x00544942
     350:	3233205f 	eorscc	r2, r3, #95	; 0x5f
     354:	535f5f00 	cmppl	pc, #0, 30
     358:	43415246 	movtmi	r5, #4678	; 0x1246
     35c:	50455f54 	subpl	r5, r5, r4, asr pc
     360:	4f4c4953 	svcmi	0x004c4953
     364:	205f5f4e 	subscs	r5, pc, lr, asr #30
     368:	50317830 	eorspl	r7, r1, r0, lsr r8
     36c:	5248372d 	subpl	r3, r8, #11796480	; 0xb40000
     370:	445f5f00 	ldrbmi	r5, [pc], #-3840	; 378 <FPU_FPCCR_MONRDY+0x278>
     374:	485f4c42 	ldmdami	pc, {r1, r6, sl, fp, lr}^	; <UNPREDICTABLE>
     378:	495f5341 	ldmdbmi	pc, {r0, r6, r8, r9, ip, lr}^	; <UNPREDICTABLE>
     37c:	4e49464e 	cdpmi	6, 4, cr4, cr9, cr14, {2}
     380:	5f595449 	svcpl	0x00595449
     384:	0031205f 	eorseq	r2, r1, pc, asr r0
     388:	444c5f5f 	strbmi	r5, [ip], #-3935	; 0xfffff0a1
     38c:	4d5f4c42 	ldclmi	12, cr4, [pc, #-264]	; 28c <FPU_FPCCR_MONRDY+0x18c>
     390:	455f4e49 	ldrbmi	r4, [pc, #-3657]	; fffff54f <FPU_MVFR1_ADDR+0x1fff060b>
     394:	5f5f5058 	svcpl	0x005f5058
     398:	312d2820 			; <UNDEFINED> instruction: 0x312d2820
     39c:	29313230 	ldmdbcs	r1!, {r4, r5, r9, ip, sp}
     3a0:	555f5f00 	ldrbpl	r5, [pc, #-3840]	; fffff4a8 <FPU_MVFR1_ADDR+0x1fff0564>
     3a4:	495f4144 	ldmdbmi	pc, {r2, r6, r8, lr}^	; <UNPREDICTABLE>
     3a8:	5f544942 	svcpl	0x00544942
     3ac:	3233205f 	eorscc	r2, r3, #95	; 0x5f
     3b0:	4c5f5f00 	mrrcmi	15, 0, r5, pc, cr0	; <UNPREDICTABLE>
     3b4:	55434341 	strbpl	r4, [r3, #-833]	; 0xfffffcbf
     3b8:	42495f4d 	submi	r5, r9, #308	; 0x134
     3bc:	5f5f5449 	svcpl	0x005f5449
     3c0:	00323320 	eorseq	r3, r2, r0, lsr #6
     3c4:	44555f5f 	ldrbmi	r5, [r5], #-3935	; 0xfffff0a1
     3c8:	42465f41 	submi	r5, r6, #260	; 0x104
     3cc:	5f5f5449 	svcpl	0x005f5449
     3d0:	00323320 	eorseq	r3, r2, r0, lsr #6
     3d4:	52415f5f 	subpl	r5, r1, #380	; 0x17c
     3d8:	45465f4d 	strbmi	r5, [r6, #-3917]	; 0xfffff0b3
     3dc:	52555441 	subspl	r5, r5, #1090519040	; 0x41000000
     3e0:	52435f45 	subpl	r5, r3, #276	; 0x114
     3e4:	4f545059 	svcmi	0x00545059
     3e8:	445f5f00 	ldrbmi	r5, [pc], #-3840	; 3f0 <FPU_FPCCR_MONRDY+0x2f0>
     3ec:	4d494345 	stclmi	3, cr4, [r9, #-276]	; 0xfffffeec
     3f0:	445f4c41 	ldrbmi	r4, [pc], #-3137	; 3f8 <FPU_FPCCR_MONRDY+0x2f8>
     3f4:	5f5f4749 	svcpl	0x005f4749
     3f8:	00373120 	eorseq	r3, r7, r0, lsr #2
     3fc:	53555f5f 	cmppl	r5, #380	; 0x17c
     400:	43415246 	movtmi	r5, #4678	; 0x1246
     404:	42465f54 	submi	r5, r6, #84, 30	; 0x150
     408:	5f5f5449 	svcpl	0x005f5449
     40c:	5f003820 	svcpl	0x00003820
     410:	4153555f 	cmpmi	r3, pc, asr r5
     414:	4d554343 	ldclmi	3, cr4, [r5, #-268]	; 0xfffffef4
     418:	5350455f 	cmppl	r0, #398458880	; 0x17c00000
     41c:	4e4f4c49 	cdpmi	12, 4, cr4, cr15, cr9, {2}
     420:	30205f5f 	eorcc	r5, r0, pc, asr pc
     424:	2d503178 	ldfcse	f3, [r0, #-480]	; 0xfffffe20
     428:	4b485538 	blmi	1215910 <FPU_ENABLE_CPACR_VALUE+0x315910>
     42c:	4c5f5f00 	mrrcmi	15, 0, r5, pc, cr0	; <UNPREDICTABLE>
     430:	5f4c4244 	svcpl	0x004c4244
     434:	5f58414d 	svcpl	0x0058414d
     438:	2e31205f 	mrccs	0, 1, r2, cr1, cr15, {2}
     43c:	36373937 			; <UNDEFINED> instruction: 0x36373937
     440:	33313339 	teqcc	r1, #-469762048	; 0xe4000000
     444:	32363834 	eorscc	r3, r6, #52, 16	; 0x340000
     448:	37353133 			; <UNDEFINED> instruction: 0x37353133
     44c:	30332b65 	eorscc	r2, r3, r5, ror #22
     450:	5f004c38 	svcpl	0x00004c38
     454:	4e49575f 	mcrmi	7, 2, r5, cr9, cr15, {2}
     458:	414d5f54 	cmpmi	sp, r4, asr pc
     45c:	205f5f58 	subscs	r5, pc, r8, asr pc	; <UNPREDICTABLE>
     460:	66667830 			; <UNDEFINED> instruction: 0x66667830
     464:	66666666 	strbtvs	r6, [r6], -r6, ror #12
     468:	00556666 	subseq	r6, r5, r6, ror #12
     46c:	46535f5f 	usaxmi	r5, r3, pc	; <UNPREDICTABLE>
     470:	54434152 	strbpl	r4, [r3], #-338	; 0xfffffeae
     474:	4942495f 	stmdbmi	r2, {r0, r1, r2, r3, r4, r6, r8, fp, lr}^
     478:	205f5f54 	subscs	r5, pc, r4, asr pc	; <UNPREDICTABLE>
     47c:	5f5f0030 	svcpl	0x005f0030
     480:	455a4953 	ldrbmi	r4, [sl, #-2387]	; 0xfffff6ad
     484:	5059545f 	subspl	r5, r9, pc, asr r4
     488:	205f5f45 	subscs	r5, pc, r5, asr #30
     48c:	69736e75 	ldmdbvs	r3!, {r0, r2, r4, r5, r6, r9, sl, fp, sp, lr}^
     490:	64656e67 	strbtvs	r6, [r5], #-3687	; 0xfffff199
     494:	746e6920 	strbtvc	r6, [lr], #-2336	; 0xfffff6e0
     498:	445f5f00 	ldrbmi	r5, [pc], #-3840	; 4a0 <FPU_FPCCR_MONRDY+0x3a0>
     49c:	34364345 	ldrtcc	r4, [r6], #-837	; 0xfffffcbb
     4a0:	4255535f 	subsmi	r5, r5, #2080374785	; 0x7c000001
     4a4:	4d524f4e 	ldclmi	15, cr4, [r2, #-312]	; 0xfffffec8
     4a8:	4d5f4c41 	ldclmi	12, cr4, [pc, #-260]	; 3ac <FPU_FPCCR_MONRDY+0x2ac>
     4ac:	5f5f4e49 	svcpl	0x005f4e49
     4b0:	302e3020 	eorcc	r3, lr, r0, lsr #32
     4b4:	30303030 	eorscc	r3, r0, r0, lsr r0
     4b8:	30303030 	eorscc	r3, r0, r0, lsr r0
     4bc:	30303030 	eorscc	r3, r0, r0, lsr r0
     4c0:	2d453130 	stfcse	f3, [r5, #-192]	; 0xffffff40
     4c4:	44333833 	ldrtmi	r3, [r3], #-2099	; 0xfffff7cd
     4c8:	5f5f0044 	svcpl	0x005f0044
     4cc:	5f544c46 	svcpl	0x00544c46
     4d0:	5f4e494d 	svcpl	0x004e494d
     4d4:	2e31205f 	mrccs	0, 1, r2, cr1, cr15, {2}
     4d8:	34353731 	ldrtcc	r3, [r5], #-1841	; 0xfffff8cf
     4dc:	35333439 	ldrcc	r3, [r3, #-1081]!	; 0xfffffbc7
     4e0:	32323830 	eorscc	r3, r2, #48, 16	; 0x300000
     4e4:	35373832 	ldrcc	r3, [r7, #-2098]!	; 0xfffff7ce
     4e8:	38332d65 	ldmdacc	r3!, {r0, r2, r5, r6, r8, sl, fp, sp}
     4ec:	5f5f0046 	svcpl	0x005f0046
     4f0:	6d756874 	ldclvs	8, cr6, [r5, #-464]!	; 0xfffffe30
     4f4:	205f5f62 	subscs	r5, pc, r2, ror #30
     4f8:	5f5f0031 	svcpl	0x005f0031
     4fc:	5f4c4244 	svcpl	0x004c4244
     500:	544e414d 	strbpl	r4, [lr], #-333	; 0xfffffeb3
     504:	4749445f 	smlsldmi	r4, r9, pc, r4	; <UNPREDICTABLE>
     508:	35205f5f 	strcc	r5, [r0, #-3935]!	; 0xfffff0a1
     50c:	5f5f0033 	svcpl	0x005f0033
     510:	4152464c 	cmpmi	r2, ip, asr #12
     514:	495f5443 	ldmdbmi	pc, {r0, r1, r6, sl, ip, lr}^	; <UNPREDICTABLE>
     518:	5f544942 	svcpl	0x00544942
     51c:	0030205f 	eorseq	r2, r0, pc, asr r0
     520:	49555f5f 	ldmdbmi	r5, {r0, r1, r2, r3, r4, r6, r8, r9, sl, fp, ip, lr}^
     524:	4c5f544e 	cfldrdmi	mvd5, [pc], {78}	; 0x4e
     528:	54534145 	ldrbpl	r4, [r3], #-325	; 0xfffffebb
     52c:	545f3436 	ldrbpl	r3, [pc], #-1078	; 534 <FPU_FPCCR_MONRDY+0x434>
     530:	5f455059 	svcpl	0x00455059
     534:	6f6c205f 	svcvs	0x006c205f
     538:	6c20676e 	stcvs	7, cr6, [r0], #-440	; 0xfffffe48
     53c:	20676e6f 	rsbcs	r6, r7, pc, ror #28
     540:	69736e75 	ldmdbvs	r3!, {r0, r2, r4, r5, r6, r9, sl, fp, sp, lr}^
     544:	64656e67 	strbtvs	r6, [r5], #-3687	; 0xfffff199
     548:	746e6920 	strbtvc	r6, [lr], #-2336	; 0xfffff6e0
     54c:	555f5f00 	ldrbpl	r5, [pc, #-3840]	; fffff654 <FPU_MVFR1_ADDR+0x1fff0710>
     550:	4152464c 	cmpmi	r2, ip, asr #12
     554:	4d5f5443 	cfldrdmi	mvd5, [pc, #-268]	; 450 <FPU_FPCCR_MONRDY+0x350>
     558:	5f5f4e49 	svcpl	0x005f4e49
     55c:	302e3020 	eorcc	r3, lr, r0, lsr #32
     560:	00524c55 	subseq	r4, r2, r5, asr ip
     564:	4e495f5f 	mcrmi	15, 2, r5, cr9, cr15, {2}
     568:	52545054 	subspl	r5, r4, #84	; 0x54
     56c:	5059545f 	subspl	r5, r9, pc, asr r4
     570:	205f5f45 	subscs	r5, pc, r5, asr #30
     574:	00746e69 	rsbseq	r6, r4, r9, ror #28
     578:	444c5f5f 	strbmi	r5, [ip], #-3935	; 0xfffff0a1
     57c:	4d5f4c42 	ldclmi	12, cr4, [pc, #-264]	; 47c <FPU_FPCCR_MONRDY+0x37c>
     580:	5f5f4e49 	svcpl	0x005f4e49
     584:	322e3220 	eorcc	r3, lr, #32, 4
     588:	37303532 			; <UNDEFINED> instruction: 0x37303532
     58c:	38353833 	ldmdacc	r5!, {r0, r1, r4, r5, fp, ip, sp}
     590:	32373035 	eorscc	r3, r7, #53	; 0x35
     594:	65343130 	ldrvs	r3, [r4, #-304]!	; 0xfffffed0
     598:	3830332d 	ldmdacc	r0!, {r0, r2, r3, r5, r8, r9, ip, sp}
     59c:	5f5f004c 	svcpl	0x005f004c
     5a0:	464c4c55 			; <UNDEFINED> instruction: 0x464c4c55
     5a4:	54434152 	strbpl	r4, [r3], #-338	; 0xfffffeae
     5a8:	4942495f 	stmdbmi	r2, {r0, r1, r2, r3, r4, r6, r8, fp, lr}^
     5ac:	205f5f54 	subscs	r5, pc, r4, asr pc	; <UNPREDICTABLE>
     5b0:	5f5f0030 	svcpl	0x005f0030
     5b4:	544e4955 	strbpl	r4, [lr], #-2389	; 0xfffff6ab
     5b8:	59545f38 	ldmdbpl	r4, {r3, r4, r5, r8, r9, sl, fp, ip, lr}^
     5bc:	5f5f4550 	svcpl	0x005f4550
     5c0:	736e7520 	cmnvc	lr, #32, 10	; 0x8000000
     5c4:	656e6769 	strbvs	r6, [lr, #-1897]!	; 0xfffff897
     5c8:	68632064 	stmdavs	r3!, {r2, r5, r6, sp}^
     5cc:	5f007261 	svcpl	0x00007261
     5d0:	4345445f 	movtmi	r4, #21599	; 0x545f
     5d4:	4d5f3233 	lfmmi	f3, 2, [pc, #-204]	; 510 <FPU_FPCCR_MONRDY+0x410>
     5d8:	455f5841 	ldrbmi	r5, [pc, #-2113]	; fffffd9f <FPU_MVFR1_ADDR+0x1fff0e5b>
     5dc:	5f5f5058 	svcpl	0x005f5058
     5e0:	00373920 	eorseq	r3, r7, r0, lsr #18
     5e4:	444c5f5f 	strbmi	r5, [ip], #-3935	; 0xfffff0a1
     5e8:	4d5f4c42 	ldclmi	12, cr4, [pc, #-264]	; 4e8 <FPU_FPCCR_MONRDY+0x3e8>
     5ec:	455f5841 	ldrbmi	r5, [pc, #-2113]	; fffffdb3 <FPU_MVFR1_ADDR+0x1fff0e6f>
     5f0:	5f5f5058 	svcpl	0x005f5058
     5f4:	32303120 	eorscc	r3, r0, #32, 2
     5f8:	5f5f0034 	svcpl	0x005f0034
     5fc:	5f4d5241 	svcpl	0x004d5241
     600:	54414546 	strbpl	r4, [r1], #-1350	; 0xfffffaba
     604:	5f455255 	svcpl	0x00455255
     608:	205a4c43 	subscs	r4, sl, r3, asr #24
     60c:	5f5f0031 	svcpl	0x005f0031
     610:	5f474953 	svcpl	0x00474953
     614:	4d4f5441 	cfstrdmi	mvd5, [pc, #-260]	; 518 <FPU_FPCCR_MONRDY+0x418>
     618:	545f4349 	ldrbpl	r4, [pc], #-841	; 620 <FPU_FPCCR_MONRDY+0x520>
     61c:	5f455059 	svcpl	0x00455059
     620:	6e69205f 	mcrvs	0, 3, r2, cr9, cr15, {2}
     624:	5f5f0074 	svcpl	0x005f0074
     628:	495f4153 	ldmdbmi	pc, {r0, r1, r4, r6, r8, lr}^	; <UNPREDICTABLE>
     62c:	5f544942 	svcpl	0x00544942
     630:	3631205f 			; <UNDEFINED> instruction: 0x3631205f
     634:	535f5f00 	cmppl	pc, #0, 30
     638:	4f455a49 	svcmi	0x00455a49
     63c:	4f4c5f46 	svcmi	0x004c5f46
     640:	445f474e 	ldrbmi	r4, [pc], #-1870	; 648 <FPU_FPCCR_MONRDY+0x548>
     644:	4c42554f 	cfstr64mi	mvdx5, [r2], {79}	; 0x4f
     648:	205f5f45 	subscs	r5, pc, r5, asr #30
     64c:	5f5f0038 	svcpl	0x005f0038
     650:	43415246 	movtmi	r5, #4678	; 0x1246
     654:	42465f54 	submi	r5, r6, #84, 30	; 0x150
     658:	5f5f5449 	svcpl	0x005f5449
     65c:	00353120 	eorseq	r3, r5, r0, lsr #2
     660:	4c4c5f5f 	mcrrmi	15, 5, r5, ip, cr15
     664:	43415246 	movtmi	r5, #4678	; 0x1246
     668:	414d5f54 	cmpmi	sp, r4, asr pc
     66c:	205f5f58 	subscs	r5, pc, r8, asr pc	; <UNPREDICTABLE>
     670:	46375830 			; <UNDEFINED> instruction: 0x46375830
     674:	46464646 	strbmi	r4, [r6], -r6, asr #12
     678:	46464646 	strbmi	r4, [r6], -r6, asr #12
     67c:	46464646 	strbmi	r4, [r6], -r6, asr #12
     680:	2d504646 	ldclcs	6, cr4, [r0, #-280]	; 0xfffffee8
     684:	4c4c3336 	mcrrmi	3, 3, r3, ip, cr6
     688:	5f5f0052 	svcpl	0x005f0052
     68c:	455a4953 	ldrbmi	r4, [sl, #-2387]	; 0xfffff6ad
     690:	4c5f464f 	mrrcmi	6, 4, r4, pc, cr15	; <UNPREDICTABLE>
     694:	5f474e4f 	svcpl	0x00474e4f
     698:	0034205f 	eorseq	r2, r4, pc, asr r0
     69c:	4c555f5f 	mrrcmi	15, 5, r5, r5, cr15	; <UNPREDICTABLE>
     6a0:	55434341 	strbpl	r4, [r3, #-833]	; 0xfffffcbf
     6a4:	414d5f4d 	cmpmi	sp, sp, asr #30
     6a8:	205f5f58 	subscs	r5, pc, r8, asr pc	; <UNPREDICTABLE>
     6ac:	46465830 			; <UNDEFINED> instruction: 0x46465830
     6b0:	46464646 	strbmi	r4, [r6], -r6, asr #12
     6b4:	46464646 	strbmi	r4, [r6], -r6, asr #12
     6b8:	46464646 	strbmi	r4, [r6], -r6, asr #12
     6bc:	2d504646 	ldclcs	6, cr4, [r0, #-280]	; 0xfffffee8
     6c0:	4c553233 	lfmmi	f3, 2, [r5], {51}	; 0x33
     6c4:	5f5f004b 	svcpl	0x005f004b
     6c8:	5f434347 	svcpl	0x00434347
     6cc:	4d4f5441 	cfstrdmi	mvd5, [pc, #-260]	; 5d0 <FPU_FPCCR_MONRDY+0x4d0>
     6d0:	545f4349 	ldrbpl	r4, [pc], #-841	; 6d8 <FPU_FPCCR_MONRDY+0x5d8>
     6d4:	5f545345 	svcpl	0x00545345
     6d8:	5f444e41 	svcpl	0x00444e41
     6dc:	5f544553 	svcpl	0x00544553
     6e0:	45555254 	ldrbmi	r5, [r5, #-596]	; 0xfffffdac
     6e4:	204c4156 	subcs	r4, ip, r6, asr r1
     6e8:	5f5f0031 	svcpl	0x005f0031
     6ec:	495f4154 	ldmdbmi	pc, {r2, r4, r6, r8, lr}^	; <UNPREDICTABLE>
     6f0:	5f544942 	svcpl	0x00544942
     6f4:	3436205f 	ldrtcc	r2, [r6], #-95	; 0xffffffa1
     6f8:	4c5f5f00 	mrrcmi	15, 0, r5, pc, cr0	; <UNPREDICTABLE>
     6fc:	5f4c4244 	svcpl	0x004c4244
     700:	5f534148 	svcpl	0x00534148
     704:	49464e49 	stmdbmi	r6, {r0, r3, r6, r9, sl, fp, lr}^
     708:	5954494e 	ldmdbpl	r4, {r1, r2, r3, r6, r8, fp, lr}^
     70c:	31205f5f 			; <UNDEFINED> instruction: 0x31205f5f
     710:	465f5f00 	ldrbmi	r5, [pc], -r0, lsl #30
     714:	485f544c 	ldmdami	pc, {r2, r3, r6, sl, ip, lr}^	; <UNPREDICTABLE>
     718:	445f5341 	ldrbmi	r5, [pc], #-833	; 720 <SCB_AIRCR_PRIGROUP_MASK+0x20>
     71c:	524f4e45 	subpl	r4, pc, #1104	; 0x450
     720:	205f5f4d 	subscs	r5, pc, sp, asr #30
     724:	5f5f0031 	svcpl	0x005f0031
     728:	455a4953 	ldrbmi	r4, [sl, #-2387]	; 0xfffff6ad
     72c:	505f464f 	subspl	r4, pc, pc, asr #12
     730:	49445254 	stmdbmi	r4, {r2, r4, r6, r9, ip, lr}^
     734:	545f4646 	ldrbpl	r4, [pc], #-1606	; 73c <SCB_AIRCR_PRIGROUP_MASK+0x3c>
     738:	34205f5f 	strtcc	r5, [r0], #-3935	; 0xfffff0a1
     73c:	555f5f00 	ldrbpl	r5, [pc, #-3840]	; fffff844 <FPU_MVFR1_ADDR+0x1fff0900>
     740:	5f544e49 	svcpl	0x00544e49
     744:	54534146 	ldrbpl	r4, [r3], #-326	; 0xfffffeba
     748:	4d5f3631 	ldclmi	6, cr3, [pc, #-196]	; 68c <FPU_FPCCR_MONRDY+0x58c>
     74c:	5f5f5841 	svcpl	0x005f5841
     750:	66783020 	ldrbtvs	r3, [r8], -r0, lsr #32
     754:	66666666 	strbtvs	r6, [r6], -r6, ror #12
     758:	55666666 	strbpl	r6, [r6, #-1638]!	; 0xfffff99a
     75c:	495f5f00 	ldmdbmi	pc, {r8, r9, sl, fp, ip, lr}^	; <UNPREDICTABLE>
     760:	5450544e 	ldrbpl	r5, [r0], #-1102	; 0xfffffbb2
     764:	414d5f52 	cmpmi	sp, r2, asr pc
     768:	205f5f58 	subscs	r5, pc, r8, asr pc	; <UNPREDICTABLE>
     76c:	66377830 			; <UNDEFINED> instruction: 0x66377830
     770:	66666666 	strbtvs	r6, [r6], -r6, ror #12
     774:	5f006666 	svcpl	0x00006666
     778:	4e49555f 	mcrmi	5, 2, r5, cr9, cr15, {2}
     77c:	5f363154 	svcpl	0x00363154
     780:	5f58414d 	svcpl	0x0058414d
     784:	7830205f 	ldmdavc	r0!, {r0, r1, r2, r3, r4, r6, sp}
     788:	66666666 	strbtvs	r6, [r6], -r6, ror #12
     78c:	475f5f00 	ldrbmi	r5, [pc, -r0, lsl #30]
     790:	415f4343 	cmpmi	pc, r3, asr #6
     794:	494d4f54 	stmdbmi	sp, {r2, r4, r6, r8, r9, sl, fp, lr}^
     798:	43575f43 	cmpmi	r7, #268	; 0x10c
     79c:	5f524148 	svcpl	0x00524148
     7a0:	4f4c5f54 	svcmi	0x004c5f54
     7a4:	465f4b43 	ldrbmi	r4, [pc], -r3, asr #22
     7a8:	20454552 	subcs	r4, r5, r2, asr r5
     7ac:	5f5f0032 	svcpl	0x005f0032
     7b0:	38544e49 	ldmdacc	r4, {r0, r3, r6, r9, sl, fp, lr}^
     7b4:	5059545f 	subspl	r5, r9, pc, asr r4
     7b8:	205f5f45 	subscs	r5, pc, r5, asr #30
     7bc:	6e676973 			; <UNDEFINED> instruction: 0x6e676973
     7c0:	63206465 			; <UNDEFINED> instruction: 0x63206465
     7c4:	00726168 	rsbseq	r6, r2, r8, ror #2
     7c8:	59425f5f 	stmdbpl	r2, {r0, r1, r2, r3, r4, r6, r8, r9, sl, fp, ip, lr}^
     7cc:	4f5f4554 	svcmi	0x005f4554
     7d0:	52454452 	subpl	r4, r5, #1375731712	; 0x52000000
     7d4:	5f205f5f 	svcpl	0x00205f5f
     7d8:	44524f5f 	ldrbmi	r4, [r2], #-3935	; 0xfffff0a1
     7dc:	4c5f5245 	lfmmi	f5, 2, [pc], {69}	; 0x45
     7e0:	4c545449 	cfldrdmi	mvd5, [r4], {73}	; 0x49
     7e4:	4e455f45 	cdpmi	15, 4, cr5, cr5, cr5, {2}
     7e8:	4e414944 	vmlsmi.f16	s9, s2, s8	; <UNPREDICTABLE>
     7ec:	5f005f5f 	svcpl	0x00005f5f
     7f0:	52464c5f 	subpl	r4, r6, #24320	; 0x5f00
     7f4:	5f544341 	svcpl	0x00544341
     7f8:	5f58414d 	svcpl	0x0058414d
     7fc:	5830205f 	ldmdapl	r0!, {r0, r1, r2, r3, r4, r6, sp}
     800:	46464637 			; <UNDEFINED> instruction: 0x46464637
     804:	46464646 	strbmi	r4, [r6], -r6, asr #12
     808:	31332d50 	teqcc	r3, r0, asr sp
     80c:	5f00524c 	svcpl	0x0000524c
     810:	544e495f 	strbpl	r4, [lr], #-2399	; 0xfffff6a1
     814:	4d5f3436 	cfldrdmi	mvd3, [pc, #-216]	; 744 <SCB_AIRCR_PRIGROUP_MASK+0x44>
     818:	5f5f5841 	svcpl	0x005f5841
     81c:	37783020 	ldrbcc	r3, [r8, -r0, lsr #32]!
     820:	66666666 	strbtvs	r6, [r6], -r6, ror #12
     824:	66666666 	strbtvs	r6, [r6], -r6, ror #12
     828:	66666666 	strbtvs	r6, [r6], -r6, ror #12
     82c:	4c666666 	stclmi	6, cr6, [r6], #-408	; 0xfffffe68
     830:	5f5f004c 	svcpl	0x005f004c
     834:	47415250 	smlsldmi	r5, r1, r0, r2
     838:	525f414d 	subspl	r4, pc, #1073741843	; 0x40000013
     83c:	46454445 	strbmi	r4, [r5], -r5, asr #8
     840:	5f454e49 	svcpl	0x00454e49
     844:	4e545845 	cdpmi	8, 5, cr5, cr4, cr5, {2}
     848:	20454d41 	subcs	r4, r5, r1, asr #26
     84c:	5f5f0031 	svcpl	0x005f0031
     850:	414f4c46 	cmpmi	pc, r6, asr #24
     854:	4f575f54 	svcmi	0x00575f54
     858:	4f5f4452 	svcmi	0x005f4452
     85c:	52454452 	subpl	r4, r5, #1375731712	; 0x52000000
     860:	5f205f5f 	svcpl	0x00205f5f
     864:	44524f5f 	ldrbmi	r4, [r2], #-3935	; 0xfffff0a1
     868:	4c5f5245 	lfmmi	f5, 2, [pc], {69}	; 0x45
     86c:	4c545449 	cfldrdmi	mvd5, [r4], {73}	; 0x49
     870:	4e455f45 	cdpmi	15, 4, cr5, cr5, cr5, {2}
     874:	4e414944 	vmlsmi.f16	s9, s2, s8	; <UNPREDICTABLE>
     878:	5f005f5f 	svcpl	0x00005f5f
     87c:	4e49555f 	mcrmi	5, 2, r5, cr9, cr15, {2}
     880:	454c5f54 	strbmi	r5, [ip, #-3924]	; 0xfffff0ac
     884:	31545341 	cmpcc	r4, r1, asr #6
     888:	414d5f36 	cmpmi	sp, r6, lsr pc
     88c:	205f5f58 	subscs	r5, pc, r8, asr pc	; <UNPREDICTABLE>
     890:	66667830 			; <UNDEFINED> instruction: 0x66667830
     894:	5f006666 	svcpl	0x00006666
     898:	43414c5f 	movtmi	r4, #7263	; 0x1c5f
     89c:	5f4d5543 	svcpl	0x004d5543
     8a0:	49535045 	ldmdbmi	r3, {r0, r2, r6, ip, lr}^
     8a4:	5f4e4f4c 	svcpl	0x004e4f4c
     8a8:	7830205f 	ldmdavc	r0!, {r0, r1, r2, r3, r4, r6, sp}
     8ac:	332d5031 			; <UNDEFINED> instruction: 0x332d5031
     8b0:	004b4c31 	subeq	r4, fp, r1, lsr ip
     8b4:	4e495f5f 	mcrmi	15, 2, r5, cr9, cr15, {2}
     8b8:	5f323354 	svcpl	0x00323354
     8bc:	45505954 	ldrbmi	r5, [r0, #-2388]	; 0xfffff6ac
     8c0:	6c205f5f 	stcvs	15, cr5, [r0], #-380	; 0xfffffe84
     8c4:	20676e6f 	rsbcs	r6, r7, pc, ror #28
     8c8:	00746e69 	rsbseq	r6, r4, r9, ror #28
     8cc:	4e495f5f 	mcrmi	15, 2, r5, cr9, cr15, {2}
     8d0:	454c5f54 	strbmi	r5, [ip, #-3924]	; 0xfffff0ac
     8d4:	31545341 	cmpcc	r4, r1, asr #6
     8d8:	59545f36 	ldmdbpl	r4, {r1, r2, r4, r5, r8, r9, sl, fp, ip, lr}^
     8dc:	5f5f4550 	svcpl	0x005f4550
     8e0:	6f687320 	svcvs	0x00687320
     8e4:	69207472 	stmdbvs	r0!, {r1, r4, r5, r6, sl, ip, sp, lr}
     8e8:	5f00746e 	svcpl	0x0000746e
     8ec:	544e495f 	strbpl	r4, [lr], #-2399	; 0xfffff6a1
     8f0:	5341465f 	movtpl	r4, #5727	; 0x165f
     8f4:	5f363154 	svcpl	0x00363154
     8f8:	45505954 	ldrbmi	r5, [r0, #-2388]	; 0xfffff6ac
     8fc:	69205f5f 	stmdbvs	r0!, {r0, r1, r2, r3, r4, r6, r8, r9, sl, fp, ip, lr}
     900:	5f00746e 	svcpl	0x0000746e
     904:	4d52415f 	ldfmie	f4, [r2, #-380]	; 0xfffffe84
     908:	4145465f 	cmpmi	r5, pc, asr r6
     90c:	45525554 	ldrbmi	r5, [r2, #-1364]	; 0xfffffaac
     910:	5441535f 	strbpl	r5, [r1], #-863	; 0xfffffca1
     914:	5f003120 	svcpl	0x00003120
     918:	4343415f 	movtmi	r4, #12639	; 0x315f
     91c:	495f4d55 	ldmdbmi	pc, {r0, r2, r4, r6, r8, sl, fp, lr}^	; <UNPREDICTABLE>
     920:	5f544942 	svcpl	0x00544942
     924:	3631205f 			; <UNDEFINED> instruction: 0x3631205f
     928:	685f5f00 	ldmdavs	pc, {r8, r9, sl, fp, ip, lr}^	; <UNPREDICTABLE>
     92c:	695f7361 	ldmdbvs	pc, {r0, r5, r6, r8, r9, ip, sp, lr}^	; <UNPREDICTABLE>
     930:	756c636e 	strbvc	r6, [ip, #-878]!	; 0xfffffc92
     934:	6e5f6564 	cdpvs	5, 5, cr6, cr15, cr4, {3}
     938:	28747865 	ldmdacs	r4!, {r0, r2, r5, r6, fp, ip, sp, lr}^
     93c:	29525453 	ldmdbcs	r2, {r0, r1, r4, r6, sl, ip, lr}^
     940:	685f5f20 	ldmdavs	pc, {r5, r8, r9, sl, fp, ip, lr}^	; <UNPREDICTABLE>
     944:	695f7361 	ldmdbvs	pc, {r0, r5, r6, r8, r9, ip, sp, lr}^	; <UNPREDICTABLE>
     948:	756c636e 	strbvc	r6, [ip, #-878]!	; 0xfffffc92
     94c:	6e5f6564 	cdpvs	5, 5, cr6, cr15, cr4, {3}
     950:	5f747865 	svcpl	0x00747865
     954:	5453285f 	ldrbpl	r2, [r3], #-2143	; 0xfffff7a1
     958:	5f002952 	svcpl	0x00002952
     95c:	544e495f 	strbpl	r4, [lr], #-2399	; 0xfffff6a1
     960:	5f58414d 	svcpl	0x0058414d
     964:	5f58414d 	svcpl	0x0058414d
     968:	7830205f 	ldmdavc	r0!, {r0, r1, r2, r3, r4, r6, sp}
     96c:	66666637 			; <UNDEFINED> instruction: 0x66666637
     970:	66666666 	strbtvs	r6, [r6], -r6, ror #12
     974:	66666666 	strbtvs	r6, [r6], -r6, ror #12
     978:	66666666 	strbtvs	r6, [r6], -r6, ror #12
     97c:	5f004c4c 	svcpl	0x00004c4c
     980:	5154555f 	cmppl	r4, pc, asr r5
     984:	4942495f 	stmdbmi	r2, {r0, r1, r2, r3, r4, r6, r8, fp, lr}^
     988:	205f5f54 	subscs	r5, pc, r4, asr pc	; <UNPREDICTABLE>
     98c:	5f5f0030 	svcpl	0x005f0030
     990:	43434155 	movtmi	r4, #12629	; 0x3155
     994:	4d5f4d55 	ldclmi	13, cr4, [pc, #-340]	; 848 <SCB_AIRCR_PRIGROUP_MASK+0x148>
     998:	5f5f5841 	svcpl	0x005f5841
     99c:	46583020 	ldrbmi	r3, [r8], -r0, lsr #32
     9a0:	46464646 	strbmi	r4, [r6], -r6, asr #12
     9a4:	50464646 	subpl	r4, r6, r6, asr #12
     9a8:	5536312d 	ldrpl	r3, [r6, #-301]!	; 0xfffffed3
     9ac:	5f5f004b 	svcpl	0x005f004b
     9b0:	31544e49 	cmpcc	r4, r9, asr #28
     9b4:	59545f36 	ldmdbpl	r4, {r1, r2, r4, r5, r8, r9, sl, fp, ip, lr}^
     9b8:	5f5f4550 	svcpl	0x005f4550
     9bc:	6f687320 	svcvs	0x00687320
     9c0:	69207472 	stmdbvs	r0!, {r1, r4, r5, r6, sl, ip, sp, lr}
     9c4:	5f00746e 	svcpl	0x0000746e
     9c8:	42444c5f 	submi	r4, r4, #24320	; 0x5f00
     9cc:	41485f4c 	cmpmi	r8, ip, asr #30
     9d0:	55515f53 	ldrbpl	r5, [r1, #-3923]	; 0xfffff0ad
     9d4:	5f544549 	svcpl	0x00544549
     9d8:	5f4e414e 	svcpl	0x004e414e
     9dc:	0031205f 	eorseq	r2, r1, pc, asr r0
     9e0:	52415f5f 	subpl	r5, r1, #380	; 0x17c
     9e4:	45465f4d 	strbmi	r5, [r6, #-3917]	; 0xfffff0b3
     9e8:	52555441 	subspl	r5, r5, #1090519040	; 0x41000000
     9ec:	444c5f45 	strbmi	r5, [ip], #-3909	; 0xfffff0bb
     9f0:	20584552 	subscs	r4, r8, r2, asr r5
     9f4:	5f5f0037 	svcpl	0x005f0037
     9f8:	455a4953 	ldrbmi	r4, [sl, #-2387]	; 0xfffff6ad
     9fc:	445f464f 	ldrbmi	r4, [pc], #-1615	; a04 <SCB_AIRCR_PRIGROUP_MASK+0x304>
     a00:	4c42554f 	cfstr64mi	mvdx5, [r2], {79}	; 0x4f
     a04:	205f5f45 	subscs	r5, pc, r5, asr #30
     a08:	5f5f0038 	svcpl	0x005f0038
     a0c:	43415355 	movtmi	r5, #4949	; 0x1355
     a10:	5f4d5543 	svcpl	0x004d5543
     a14:	5f58414d 	svcpl	0x0058414d
     a18:	5830205f 	ldmdapl	r0!, {r0, r1, r2, r3, r4, r6, sp}
     a1c:	46464646 	strbmi	r4, [r6], -r6, asr #12
     a20:	55382d50 	ldrpl	r2, [r8, #-3408]!	; 0xfffff2b0
     a24:	5f004b48 	svcpl	0x00004b48
     a28:	464c455f 			; <UNDEFINED> instruction: 0x464c455f
     a2c:	31205f5f 			; <UNDEFINED> instruction: 0x31205f5f
     a30:	555f5f00 	ldrbpl	r5, [pc, #-3840]	; fffffb38 <FPU_MVFR1_ADDR+0x1fff0bf4>
     a34:	38544e49 	ldmdacc	r4, {r0, r3, r6, r9, sl, fp, lr}^
     a38:	58414d5f 	stmdapl	r1, {r0, r1, r2, r3, r4, r6, r8, sl, fp, lr}^
     a3c:	30205f5f 	eorcc	r5, r0, pc, asr pc
     a40:	00666678 	rsbeq	r6, r6, r8, ror r6
     a44:	51545f5f 	cmppl	r4, pc, asr pc
     a48:	4942495f 	stmdbmi	r2, {r0, r1, r2, r3, r4, r6, r8, fp, lr}^
     a4c:	205f5f54 	subscs	r5, pc, r4, asr pc	; <UNPREDICTABLE>
     a50:	5f5f0030 	svcpl	0x005f0030
     a54:	455a4953 	ldrbmi	r4, [sl, #-2387]	; 0xfffff6ad
     a58:	58414d5f 	stmdapl	r1, {r0, r1, r2, r3, r4, r6, r8, sl, fp, lr}^
     a5c:	30205f5f 	eorcc	r5, r0, pc, asr pc
     a60:	66666678 			; <UNDEFINED> instruction: 0x66666678
     a64:	66666666 	strbtvs	r6, [r6], -r6, ror #12
     a68:	5f005566 	svcpl	0x00005566
     a6c:	5f51515f 	svcpl	0x0051515f
     a70:	54494246 	strbpl	r4, [r9], #-582	; 0xfffffdba
     a74:	37205f5f 			; <UNDEFINED> instruction: 0x37205f5f
     a78:	475f5f00 	ldrbmi	r5, [pc, -r0, lsl #30]
     a7c:	485f4343 	ldmdami	pc, {r0, r1, r6, r8, r9, lr}^	; <UNPREDICTABLE>
     a80:	5f455641 	svcpl	0x00455641
     a84:	52415744 	subpl	r5, r1, #68, 14	; 0x1100000
     a88:	435f3246 	cmpmi	pc, #1610612740	; 0x60000004
     a8c:	415f4946 	cmpmi	pc, r6, asr #18
     a90:	31204d53 			; <UNDEFINED> instruction: 0x31204d53
     a94:	535f5f00 	cmppl	pc, #0, 30
     a98:	43415246 	movtmi	r5, #4678	; 0x1246
     a9c:	414d5f54 	cmpmi	sp, r4, asr pc
     aa0:	205f5f58 	subscs	r5, pc, r8, asr pc	; <UNPREDICTABLE>
     aa4:	46375830 			; <UNDEFINED> instruction: 0x46375830
     aa8:	48372d50 	ldmdami	r7!, {r4, r6, r8, sl, fp, sp}
     aac:	5f5f0052 	svcpl	0x005f0052
     ab0:	33544e49 	cmpcc	r4, #1168	; 0x490
     ab4:	28435f32 	stmdacs	r3, {r1, r4, r5, r8, r9, sl, fp, ip, lr}^
     ab8:	63202963 			; <UNDEFINED> instruction: 0x63202963
     abc:	20232320 	eorcs	r2, r3, r0, lsr #6
     ac0:	5f5f004c 	svcpl	0x005f004c
     ac4:	5f4d5241 	svcpl	0x004d5241
     ac8:	48435241 	stmdami	r3, {r0, r6, r9, ip, lr}^
     acc:	4f52505f 	svcmi	0x0052505f
     ad0:	454c4946 	strbmi	r4, [ip, #-2374]	; 0xfffff6ba
     ad4:	00373720 	eorseq	r3, r7, r0, lsr #14
     ad8:	43475f5f 	movtmi	r5, #32607	; 0x7f5f
     adc:	54415f43 	strbpl	r5, [r1], #-3907	; 0xfffff0bd
     ae0:	43494d4f 	movtmi	r4, #40271	; 0x9d4f
     ae4:	4148435f 	cmpmi	r8, pc, asr r3
     ae8:	5f323352 	svcpl	0x00323352
     aec:	4f4c5f54 	svcmi	0x004c5f54
     af0:	465f4b43 	ldrbmi	r4, [pc], -r3, asr #22
     af4:	20454552 	subcs	r4, r5, r2, asr r5
     af8:	5f5f0032 	svcpl	0x005f0032
     afc:	465f5154 			; <UNDEFINED> instruction: 0x465f5154
     b00:	5f544942 	svcpl	0x00544942
     b04:	3231205f 	eorscc	r2, r1, #95	; 0x5f
     b08:	5f5f0037 	svcpl	0x005f0037
     b0c:	53455355 	movtpl	r5, #21333	; 0x5355
     b10:	494e495f 	stmdbmi	lr, {r0, r1, r2, r3, r4, r6, r8, fp, lr}^
     b14:	4e494654 	mcrmi	6, 2, r4, cr9, cr4, {2}
     b18:	205f5f49 	subscs	r5, pc, r9, asr #30
     b1c:	5f5f0031 	svcpl	0x005f0031
     b20:	544e4955 	strbpl	r4, [lr], #-2389	; 0xfffff6ab
     b24:	5f58414d 	svcpl	0x0058414d
     b28:	45505954 	ldrbmi	r5, [r0, #-2388]	; 0xfffff6ac
     b2c:	6c205f5f 	stcvs	15, cr5, [r0], #-380	; 0xfffffe84
     b30:	20676e6f 	rsbcs	r6, r7, pc, ror #28
     b34:	676e6f6c 	strbvs	r6, [lr, -ip, ror #30]!
     b38:	736e7520 	cmnvc	lr, #32, 10	; 0x8000000
     b3c:	656e6769 	strbvs	r6, [lr, #-1897]!	; 0xfffff897
     b40:	6e692064 	cdpvs	0, 6, cr2, cr9, cr4, {3}
     b44:	5f5f0074 	svcpl	0x005f0074
     b48:	49474552 	stmdbmi	r7, {r1, r4, r6, r8, sl, lr}^
     b4c:	52455453 	subpl	r5, r5, #1392508928	; 0x53000000
     b50:	4552505f 	ldrbmi	r5, [r2, #-95]	; 0xffffffa1
     b54:	5f584946 	svcpl	0x00584946
     b58:	5f00205f 	svcpl	0x0000205f
     b5c:	4e49555f 	mcrmi	5, 2, r5, cr9, cr15, {2}
     b60:	41465f54 	cmpmi	r6, r4, asr pc
     b64:	34365453 	ldrtcc	r5, [r6], #-1107	; 0xfffffbad
     b68:	58414d5f 	stmdapl	r1, {r0, r1, r2, r3, r4, r6, r8, sl, fp, lr}^
     b6c:	30205f5f 	eorcc	r5, r0, pc, asr pc
     b70:	66666678 			; <UNDEFINED> instruction: 0x66666678
     b74:	66666666 	strbtvs	r6, [r6], -r6, ror #12
     b78:	66666666 	strbtvs	r6, [r6], -r6, ror #12
     b7c:	66666666 	strbtvs	r6, [r6], -r6, ror #12
     b80:	4c4c5566 	cfstr64mi	mvdx5, [ip], {102}	; 0x66
     b84:	4c5f5f00 	mrrcmi	15, 0, r5, pc, cr0	; <UNPREDICTABLE>
     b88:	4152464c 	cmpmi	r2, ip, asr #12
     b8c:	455f5443 	ldrbmi	r5, [pc, #-1091]	; 751 <SCB_AIRCR_PRIGROUP_MASK+0x51>
     b90:	4c495350 	mcrrmi	3, 5, r5, r9, cr0
     b94:	5f5f4e4f 	svcpl	0x005f4e4f
     b98:	31783020 	cmncc	r8, r0, lsr #32
     b9c:	33362d50 	teqcc	r6, #80, 26	; 0x1400
     ba0:	00524c4c 	subseq	r4, r2, ip, asr #24
     ba4:	49535f5f 	ldmdbmi	r3, {r0, r1, r2, r3, r4, r6, r8, r9, sl, fp, ip, lr}^
     ba8:	464f455a 			; <UNDEFINED> instruction: 0x464f455a
     bac:	4e4f4c5f 	mcrmi	12, 2, r4, cr15, cr15, {2}
     bb0:	4f4c5f47 	svcmi	0x004c5f47
     bb4:	5f5f474e 	svcpl	0x005f474e
     bb8:	5f003820 	svcpl	0x00003820
     bbc:	544c465f 	strbpl	r4, [ip], #-1631	; 0xfffff9a1
     bc0:	4749445f 	smlsldmi	r4, r9, pc, r4	; <UNPREDICTABLE>
     bc4:	36205f5f 	qsaxcc	r5, r0, pc	; <UNPREDICTABLE>
     bc8:	555f5f00 	ldrbpl	r5, [pc, #-3840]	; fffffcd0 <FPU_MVFR1_ADDR+0x1fff0d8c>
     bcc:	4152464c 	cmpmi	r2, ip, asr #12
     bd0:	455f5443 	ldrbmi	r5, [pc, #-1091]	; 795 <SCB_AIRCR_PRIGROUP_MASK+0x95>
     bd4:	4c495350 	mcrrmi	3, 5, r5, r9, cr0
     bd8:	5f5f4e4f 	svcpl	0x005f4e4f
     bdc:	31783020 	cmncc	r8, r0, lsr #32
     be0:	32332d50 	eorscc	r2, r3, #80, 26	; 0x1400
     be4:	00524c55 	subseq	r4, r2, r5, asr ip
     be8:	49535f5f 	ldmdbmi	r3, {r0, r1, r2, r3, r4, r6, r8, r9, sl, fp, ip, lr}^
     bec:	464f455a 			; <UNDEFINED> instruction: 0x464f455a
     bf0:	4843575f 	stmdami	r3, {r0, r1, r2, r3, r4, r6, r8, r9, sl, ip, lr}^
     bf4:	545f5241 	ldrbpl	r5, [pc], #-577	; bfc <SCB_AIRCR_PRIGROUP_MASK+0x4fc>
     bf8:	34205f5f 	strtcc	r5, [r0], #-3935	; 0xfffff0a1
     bfc:	415f5f00 	cmpmi	pc, r0, lsl #30
     c00:	494d4f54 	stmdbmi	sp, {r2, r4, r6, r8, r9, sl, fp, lr}^
     c04:	45525f43 	ldrbmi	r5, [r2, #-3907]	; 0xfffff0bd
     c08:	5341454c 	movtpl	r4, #5452	; 0x154c
     c0c:	00332045 	eorseq	r2, r3, r5, asr #32
     c10:	4c465f5f 	mcrrmi	15, 5, r5, r6, cr15
     c14:	414d5f54 	cmpmi	sp, r4, asr pc
     c18:	30315f58 	eorscc	r5, r1, r8, asr pc
     c1c:	5058455f 	subspl	r4, r8, pc, asr r5
     c20:	33205f5f 			; <UNDEFINED> instruction: 0x33205f5f
     c24:	5f5f0038 	svcpl	0x005f0038
     c28:	5f544e49 	svcpl	0x00544e49
     c2c:	54534146 	ldrbpl	r4, [r3], #-326	; 0xfffffeba
     c30:	4d5f3233 	lfmmi	f3, 2, [pc, #-204]	; b6c <SCB_AIRCR_PRIGROUP_MASK+0x46c>
     c34:	5f5f5841 	svcpl	0x005f5841
     c38:	37783020 	ldrbcc	r3, [r8, -r0, lsr #32]!
     c3c:	66666666 	strbtvs	r6, [r6], -r6, ror #12
     c40:	00666666 	rsbeq	r6, r6, r6, ror #12
     c44:	49575f5f 	ldmdbmi	r7, {r0, r1, r2, r3, r4, r6, r8, r9, sl, fp, ip, lr}^
     c48:	4d5f544e 	cfldrdmi	mvd5, [pc, #-312]	; b18 <SCB_AIRCR_PRIGROUP_MASK+0x418>
     c4c:	5f5f4e49 	svcpl	0x005f4e49
     c50:	00553020 	subseq	r3, r5, r0, lsr #32
     c54:	4c4c5f5f 	mcrrmi	15, 5, r5, ip, cr15
     c58:	43415246 	movtmi	r5, #4678	; 0x1246
     c5c:	42465f54 	submi	r5, r6, #84, 30	; 0x150
     c60:	5f5f5449 	svcpl	0x005f5449
     c64:	00333620 	eorseq	r3, r3, r0, lsr #12
     c68:	4c4c5f5f 	mcrrmi	15, 5, r5, ip, cr15
     c6c:	55434341 	strbpl	r4, [r3, #-833]	; 0xfffffcbf
     c70:	494d5f4d 	stmdbmi	sp, {r0, r2, r3, r6, r8, r9, sl, fp, ip, lr}^
     c74:	205f5f4e 	subscs	r5, pc, lr, asr #30
     c78:	58302d28 	ldmdapl	r0!, {r3, r5, r8, sl, fp, sp}
     c7c:	31335031 	teqcc	r3, r1, lsr r0
     c80:	2d4b4c4c 	stclcs	12, cr4, [fp, #-304]	; 0xfffffed0
     c84:	50315830 	eorspl	r5, r1, r0, lsr r8
     c88:	4c4c3133 	stfmie	f3, [ip], {51}	; 0x33
     c8c:	5f00294b 	svcpl	0x0000294b
     c90:	4d52415f 	ldfmie	f4, [r2, #-380]	; 0xfffffe84
     c94:	4145465f 	cmpmi	r5, pc, asr r6
     c98:	45525554 	ldrbmi	r5, [r2, #-1364]	; 0xfffffaac
     c9c:	4942515f 	stmdbmi	r2, {r0, r1, r2, r3, r4, r6, r8, ip, lr}^
     ca0:	00312054 	eorseq	r2, r1, r4, asr r0
     ca4:	4e495f5f 	mcrmi	15, 2, r5, cr9, cr15, {2}
     ca8:	435f3854 	cmpmi	pc, #84, 16	; 0x540000
     cac:	20296328 	eorcs	r6, r9, r8, lsr #6
     cb0:	5f5f0063 	svcpl	0x005f0063
     cb4:	544e4955 	strbpl	r4, [lr], #-2389	; 0xfffff6ab
     cb8:	4d5f3436 	cfldrdmi	mvd3, [pc, #-216]	; be8 <SCB_AIRCR_PRIGROUP_MASK+0x4e8>
     cbc:	5f5f5841 	svcpl	0x005f5841
     cc0:	66783020 	ldrbtvs	r3, [r8], -r0, lsr #32
     cc4:	66666666 	strbtvs	r6, [r6], -r6, ror #12
     cc8:	66666666 	strbtvs	r6, [r6], -r6, ror #12
     ccc:	66666666 	strbtvs	r6, [r6], -r6, ror #12
     cd0:	55666666 	strbpl	r6, [r6, #-1638]!	; 0xfffff99a
     cd4:	5f004c4c 	svcpl	0x00004c4c
     cd8:	554e475f 	strbpl	r4, [lr, #-1887]	; 0xfffff8a1
     cdc:	494d5f43 	stmdbmi	sp, {r0, r1, r6, r8, r9, sl, fp, ip, lr}^
     ce0:	5f524f4e 	svcpl	0x00524f4e
     ce4:	0033205f 	eorseq	r2, r3, pc, asr r0
     ce8:	4c555f5f 	mrrcmi	15, 5, r5, r5, cr15	; <UNPREDICTABLE>
     cec:	43415246 	movtmi	r5, #4678	; 0x1246
     cf0:	42495f54 	submi	r5, r9, #84, 30	; 0x150
     cf4:	5f5f5449 	svcpl	0x005f5449
     cf8:	5f003020 	svcpl	0x00003020
     cfc:	4345445f 	movtmi	r4, #21599	; 0x545f
     d00:	4156455f 	cmpmi	r6, pc, asr r5
     d04:	454d5f4c 	strbmi	r5, [sp, #-3916]	; 0xfffff0b4
     d08:	444f4854 	strbmi	r4, [pc], #-2132	; d10 <SCB_AIRCR_PRIGROUP_MASK+0x610>
     d0c:	32205f5f 	eorcc	r5, r0, #380	; 0x17c
     d10:	445f5f00 	ldrbmi	r5, [pc], #-3840	; d18 <SCB_AIRCR_PRIGROUP_MASK+0x618>
     d14:	32334345 	eorscc	r4, r3, #335544321	; 0x14000001
     d18:	58414d5f 	stmdapl	r1, {r0, r1, r2, r3, r4, r6, r8, sl, fp, lr}^
     d1c:	39205f5f 	stmdbcc	r0!, {r0, r1, r2, r3, r4, r6, r8, r9, sl, fp, ip, lr}
     d20:	3939392e 	ldmdbcc	r9!, {r1, r2, r3, r5, r8, fp, ip, sp}
     d24:	45393939 	ldrmi	r3, [r9, #-2361]!	; 0xfffff6c7
     d28:	46443639 			; <UNDEFINED> instruction: 0x46443639
     d2c:	4c5f5f00 	mrrcmi	15, 0, r5, pc, cr0	; <UNPREDICTABLE>
     d30:	5f474e4f 	svcpl	0x00474e4f
     d34:	474e4f4c 	strbmi	r4, [lr, -ip, asr #30]
     d38:	58414d5f 	stmdapl	r1, {r0, r1, r2, r3, r4, r6, r8, sl, fp, lr}^
     d3c:	30205f5f 	eorcc	r5, r0, pc, asr pc
     d40:	66663778 			; <UNDEFINED> instruction: 0x66663778
     d44:	66666666 	strbtvs	r6, [r6], -r6, ror #12
     d48:	66666666 	strbtvs	r6, [r6], -r6, ror #12
     d4c:	66666666 	strbtvs	r6, [r6], -r6, ror #12
     d50:	004c4c66 	subeq	r4, ip, r6, ror #24
     d54:	43475f5f 	movtmi	r5, #32607	; 0x7f5f
     d58:	54415f43 	strbpl	r5, [r1], #-3907	; 0xfffff0bd
     d5c:	43494d4f 	movtmi	r4, #40271	; 0x9d4f
     d60:	4f4f425f 	svcmi	0x004f425f
     d64:	4f4c5f4c 	svcmi	0x004c5f4c
     d68:	465f4b43 	ldrbmi	r4, [pc], -r3, asr #22
     d6c:	20454552 	subcs	r4, r5, r2, asr r5
     d70:	5f5f0032 	svcpl	0x005f0032
     d74:	5f544c46 	svcpl	0x00544c46
     d78:	5f534148 	svcpl	0x00534148
     d7c:	45495551 	strbmi	r5, [r9, #-1361]	; 0xfffffaaf
     d80:	414e5f54 	cmpmi	lr, r4, asr pc
     d84:	205f5f4e 	subscs	r5, pc, lr, asr #30
     d88:	5f5f0031 	svcpl	0x005f0031
     d8c:	5f585847 	svcpl	0x00585847
     d90:	45505954 	ldrbmi	r5, [r0, #-2388]	; 0xfffff6ac
     d94:	4f464e49 	svcmi	0x00464e49
     d98:	5551455f 	ldrbpl	r4, [r1, #-1375]	; 0xfffffaa1
     d9c:	54494c41 	strbpl	r4, [r9], #-3137	; 0xfffff3bf
     da0:	4e495f59 	mcrmi	15, 2, r5, cr9, cr9, {2}
     da4:	454e494c 	strbmi	r4, [lr, #-2380]	; 0xfffff6b4
     da8:	5f003020 	svcpl	0x00003020
     dac:	4341555f 	movtmi	r5, #5471	; 0x155f
     db0:	5f4d5543 	svcpl	0x004d5543
     db4:	54494249 	strbpl	r4, [r9], #-585	; 0xfffffdb7
     db8:	31205f5f 			; <UNDEFINED> instruction: 0x31205f5f
     dbc:	5f5f0036 	svcpl	0x005f0036
     dc0:	5f4d5241 	svcpl	0x004d5241
     dc4:	4e4f454e 	cdpmi	5, 4, cr4, cr15, cr14, {2}
     dc8:	5f005f5f 	svcpl	0x00005f5f
     dcc:	5f50465f 	svcpl	0x0050465f
     dd0:	54534146 	ldrbpl	r4, [r3], #-326	; 0xfffffeba
     dd4:	414d465f 	cmpmi	sp, pc, asr r6
     dd8:	00312046 	eorseq	r2, r1, r6, asr #32
     ddc:	54535f5f 	ldrbpl	r5, [r3], #-3935	; 0xfffff0a1
     de0:	485f4344 	ldmdami	pc, {r2, r6, r8, r9, lr}^	; <UNPREDICTABLE>
     de4:	4554534f 	ldrbmi	r5, [r4, #-847]	; 0xfffffcb1
     de8:	205f5f44 	subscs	r5, pc, r4, asr #30
     dec:	5f5f0030 	svcpl	0x005f0030
     df0:	5f544c46 	svcpl	0x00544c46
     df4:	5f4e494d 	svcpl	0x004e494d
     df8:	5f505845 	svcpl	0x00505845
     dfc:	2d28205f 	stccs	0, cr2, [r8, #-380]!	; 0xfffffe84
     e00:	29353231 	ldmdbcs	r5!, {r0, r4, r5, r9, ip, sp}
     e04:	415f5f00 	cmpmi	pc, r0, lsl #30
     e08:	415f4d52 	cmpmi	pc, r2, asr sp	; <UNPREDICTABLE>
     e0c:	5f484352 	svcpl	0x00484352
     e10:	5f545845 	svcpl	0x00545845
     e14:	56494449 	strbpl	r4, [r9], -r9, asr #8
     e18:	31205f5f 			; <UNDEFINED> instruction: 0x31205f5f
     e1c:	415f5f00 	cmpmi	pc, r0, lsl #30
     e20:	4e5f4d52 	mrcmi	13, 2, r4, cr15, cr2, {2}
     e24:	5f4e4f45 	svcpl	0x004e4f45
     e28:	5f005046 	svcpl	0x00005046
     e2c:	5246555f 	subpl	r5, r6, #398458880	; 0x17c00000
     e30:	5f544341 	svcpl	0x00544341
     e34:	5f58414d 	svcpl	0x0058414d
     e38:	5830205f 	ldmdapl	r0!, {r0, r1, r2, r3, r4, r6, sp}
     e3c:	46464646 	strbmi	r4, [r6], -r6, asr #12
     e40:	36312d50 			; <UNDEFINED> instruction: 0x36312d50
     e44:	5f005255 	svcpl	0x00005255
     e48:	4653555f 			; <UNDEFINED> instruction: 0x4653555f
     e4c:	54434152 	strbpl	r4, [r3], #-338	; 0xfffffeae
     e50:	58414d5f 	stmdapl	r1, {r0, r1, r2, r3, r4, r6, r8, sl, fp, lr}^
     e54:	30205f5f 	eorcc	r5, r0, pc, asr pc
     e58:	50464658 	subpl	r4, r6, r8, asr r6
     e5c:	4855382d 	ldmdami	r5, {r0, r2, r3, r5, fp, ip, sp}^
     e60:	5f5f0052 	svcpl	0x005f0052
     e64:	4544524f 	strbmi	r5, [r4, #-591]	; 0xfffffdb1
     e68:	49425f52 	stmdbmi	r2, {r1, r4, r6, r8, r9, sl, fp, ip, lr}^
     e6c:	4e455f47 	cdpmi	15, 4, cr5, cr5, cr7, {2}
     e70:	4e414944 	vmlsmi.f16	s9, s2, s8	; <UNPREDICTABLE>
     e74:	34205f5f 	strtcc	r5, [r0], #-3935	; 0xfffff0a1
     e78:	00313233 	eorseq	r3, r1, r3, lsr r2
     e7c:	48435f5f 	stmdami	r3, {r0, r1, r2, r3, r4, r6, r8, r9, sl, fp, ip, lr}^
     e80:	36315241 	ldrtcc	r5, [r1], -r1, asr #4
     e84:	5059545f 	subspl	r5, r9, pc, asr r4
     e88:	205f5f45 	subscs	r5, pc, r5, asr #30
     e8c:	726f6873 	rsbvc	r6, pc, #7536640	; 0x730000
     e90:	6e752074 	mrcvs	0, 3, r2, cr5, cr4, {3}
     e94:	6e676973 			; <UNDEFINED> instruction: 0x6e676973
     e98:	69206465 	stmdbvs	r0!, {r0, r2, r5, r6, sl, sp, lr}
     e9c:	5f00746e 	svcpl	0x0000746e
     ea0:	4653555f 			; <UNDEFINED> instruction: 0x4653555f
     ea4:	54434152 	strbpl	r4, [r3], #-338	; 0xfffffeae
     ea8:	4e494d5f 	mcrmi	13, 2, r4, cr9, cr15, {2}
     eac:	30205f5f 	eorcc	r5, r0, pc, asr pc
     eb0:	4855302e 	ldmdami	r5, {r1, r2, r3, r5, ip, sp}^
     eb4:	5f5f0052 	svcpl	0x005f0052
     eb8:	5f515355 	svcpl	0x00515355
     ebc:	54494246 	strbpl	r4, [r9], #-582	; 0xfffffdba
     ec0:	33205f5f 			; <UNDEFINED> instruction: 0x33205f5f
     ec4:	5f5f0032 	svcpl	0x005f0032
     ec8:	4d544e49 	ldclmi	14, cr4, [r4, #-292]	; 0xfffffedc
     ecc:	545f5841 	ldrbpl	r5, [pc], #-2113	; ed4 <SCB_AIRCR_PRIGROUP_MASK+0x7d4>
     ed0:	5f455059 	svcpl	0x00455059
     ed4:	6f6c205f 	svcvs	0x006c205f
     ed8:	6c20676e 	stcvs	7, cr6, [r0], #-440	; 0xfffffe48
     edc:	20676e6f 	rsbcs	r6, r7, pc, ror #28
     ee0:	00746e69 	rsbseq	r6, r4, r9, ror #28
     ee4:	49535f5f 	ldmdbmi	r3, {r0, r1, r2, r3, r4, r6, r8, r9, sl, fp, ip, lr}^
     ee8:	464f455a 			; <UNDEFINED> instruction: 0x464f455a
     eec:	4f48535f 	svcmi	0x0048535f
     ef0:	5f5f5452 	svcpl	0x005f5452
     ef4:	5f003220 	svcpl	0x00003220
     ef8:	4343475f 	movtmi	r4, #14175	; 0x375f
     efc:	4f54415f 	svcmi	0x0054415f
     f00:	5f43494d 	svcpl	0x0043494d
     f04:	5f544e49 	svcpl	0x00544e49
     f08:	4b434f4c 	blmi	10d4c40 <FPU_ENABLE_CPACR_VALUE+0x1d4c40>
     f0c:	4552465f 	ldrbmi	r4, [r2, #-1631]	; 0xfffff9a1
     f10:	00322045 	eorseq	r2, r2, r5, asr #32
     f14:	51535f5f 	cmppl	r3, pc, asr pc
     f18:	4942465f 	stmdbmi	r2, {r0, r1, r2, r3, r4, r6, r9, sl, lr}^
     f1c:	205f5f54 	subscs	r5, pc, r4, asr pc	; <UNPREDICTABLE>
     f20:	5f003133 	svcpl	0x00003133
     f24:	5f41445f 	svcpl	0x0041445f
     f28:	54494246 	strbpl	r4, [r9], #-582	; 0xfffffdba
     f2c:	33205f5f 			; <UNDEFINED> instruction: 0x33205f5f
     f30:	5f5f0031 	svcpl	0x005f0031
     f34:	53435041 	movtpl	r5, #12353	; 0x3041
     f38:	5f32335f 	svcpl	0x0032335f
     f3c:	0031205f 	eorseq	r2, r1, pc, asr r0
     f40:	4e495f5f 	mcrmi	15, 2, r5, cr9, cr15, {2}
     f44:	5f363154 	svcpl	0x00363154
     f48:	29632843 	stmdbcs	r3!, {r0, r1, r6, fp, sp}^
     f4c:	5f006320 	svcpl	0x00006320
     f50:	4d52415f 	ldfmie	f4, [r2, #-380]	; 0xfffffe84
     f54:	5a49535f 	bpl	1255cd8 <FPU_ENABLE_CPACR_VALUE+0x355cd8>
     f58:	5f464f45 	svcpl	0x00464f45
     f5c:	494e494d 	stmdbmi	lr, {r0, r2, r3, r6, r8, fp, lr}^
     f60:	5f4c414d 	svcpl	0x004c414d
     f64:	4d554e45 	ldclmi	14, cr4, [r5, #-276]	; 0xfffffeec
     f68:	5f003120 	svcpl	0x00003120
     f6c:	43414c5f 	movtmi	r4, #7263	; 0x1c5f
     f70:	5f4d5543 	svcpl	0x004d5543
     f74:	5f4e494d 	svcpl	0x004e494d
     f78:	2d28205f 	stccs	0, cr2, [r8, #-380]!	; 0xfffffe84
     f7c:	50315830 	eorspl	r5, r1, r0, lsr r8
     f80:	4b4c3133 	blmi	130d454 <FPU_ENABLE_CPACR_VALUE+0x40d454>
     f84:	3158302d 	cmpcc	r8, sp, lsr #32
     f88:	4c313350 	ldcmi	3, cr3, [r1], #-320	; 0xfffffec0
     f8c:	5f00294b 	svcpl	0x0000294b
     f90:	4343415f 	movtmi	r4, #12639	; 0x315f
     f94:	455f4d55 	ldrbmi	r4, [pc, #-3413]	; 247 <FPU_FPCCR_MONRDY+0x147>
     f98:	4c495350 	mcrrmi	3, 5, r5, r9, cr0
     f9c:	5f5f4e4f 	svcpl	0x005f4e4f
     fa0:	31783020 	cmncc	r8, r0, lsr #32
     fa4:	35312d50 	ldrcc	r2, [r1, #-3408]!	; 0xfffff2b0
     fa8:	5f5f004b 	svcpl	0x005f004b
     fac:	5f544c46 	svcpl	0x00544c46
     fb0:	5f58414d 	svcpl	0x0058414d
     fb4:	5f505845 	svcpl	0x00505845
     fb8:	3231205f 	eorscc	r2, r1, #95	; 0x5f
     fbc:	5f5f0038 	svcpl	0x005f0038
     fc0:	43414c4c 	movtmi	r4, #7244	; 0x1c4c
     fc4:	5f4d5543 	svcpl	0x004d5543
     fc8:	5f58414d 	svcpl	0x0058414d
     fcc:	5830205f 	ldmdapl	r0!, {r0, r1, r2, r3, r4, r6, sp}
     fd0:	46464637 			; <UNDEFINED> instruction: 0x46464637
     fd4:	46464646 	strbmi	r4, [r6], -r6, asr #12
     fd8:	46464646 	strbmi	r4, [r6], -r6, asr #12
     fdc:	46464646 	strbmi	r4, [r6], -r6, asr #12
     fe0:	31332d50 	teqcc	r3, r0, asr sp
     fe4:	004b4c4c 	subeq	r4, fp, ip, asr #24
     fe8:	53555f5f 	cmppl	r5, #380	; 0x17c
     fec:	42495f41 	submi	r5, r9, #260	; 0x104
     ff0:	5f5f5449 	svcpl	0x005f5449
     ff4:	00363120 	eorseq	r3, r6, r0, lsr #2
     ff8:	42445f5f 	submi	r5, r4, #380	; 0x17c
     ffc:	41485f4c 	cmpmi	r8, ip, asr #30
    1000:	45445f53 	strbmi	r5, [r4, #-3923]	; 0xfffff0ad
    1004:	4d524f4e 	ldclmi	15, cr4, [r2, #-312]	; 0xfffffec8
    1008:	31205f5f 			; <UNDEFINED> instruction: 0x31205f5f
    100c:	555f5f00 	ldrbpl	r5, [pc, #-3840]	; 114 <FPU_FPCCR_MONRDY+0x14>
    1010:	43415246 	movtmi	r5, #4678	; 0x1246
    1014:	42465f54 	submi	r5, r6, #84, 30	; 0x150
    1018:	5f5f5449 	svcpl	0x005f5449
    101c:	00363120 	eorseq	r3, r6, r0, lsr #2
    1020:	4e495f5f 	mcrmi	15, 2, r5, cr9, cr15, {2}
    1024:	41465f54 	cmpmi	r6, r4, asr pc
    1028:	36315453 			; <UNDEFINED> instruction: 0x36315453
    102c:	58414d5f 	stmdapl	r1, {r0, r1, r2, r3, r4, r6, r8, sl, fp, lr}^
    1030:	30205f5f 	eorcc	r5, r0, pc, asr pc
    1034:	66663778 			; <UNDEFINED> instruction: 0x66663778
    1038:	66666666 	strbtvs	r6, [r6], -r6, ror #12
    103c:	5f5f0066 	svcpl	0x005f0066
    1040:	5f544e49 	svcpl	0x00544e49
    1044:	5f58414d 	svcpl	0x0058414d
    1048:	7830205f 	ldmdavc	r0!, {r0, r1, r2, r3, r4, r6, sp}
    104c:	66666637 			; <UNDEFINED> instruction: 0x66666637
    1050:	66666666 	strbtvs	r6, [r6], -r6, ror #12
    1054:	535f5f00 	cmppl	pc, #0, 30
    1058:	42495f51 	submi	r5, r9, #324	; 0x144
    105c:	5f5f5449 	svcpl	0x005f5449
    1060:	5f003020 	svcpl	0x00003020
    1064:	4343475f 	movtmi	r4, #14175	; 0x375f
    1068:	4f54415f 	svcmi	0x0054415f
    106c:	5f43494d 	svcpl	0x0043494d
    1070:	4e4f4c4c 	cdpmi	12, 4, cr4, cr15, cr12, {2}
    1074:	4f4c5f47 	svcmi	0x004c5f47
    1078:	465f4b43 	ldrbmi	r4, [pc], -r3, asr #22
    107c:	20454552 	subcs	r4, r5, r2, asr r5
    1080:	5f5f0031 	svcpl	0x005f0031
    1084:	495f5151 	ldmdbmi	pc, {r0, r4, r6, r8, ip, lr}^	; <UNPREDICTABLE>
    1088:	5f544942 	svcpl	0x00544942
    108c:	0030205f 	eorseq	r2, r0, pc, asr r0
    1090:	43535f5f 	cmpmi	r3, #380	; 0x17c
    1094:	5f524148 	svcpl	0x00524148
    1098:	5f58414d 	svcpl	0x0058414d
    109c:	7830205f 	ldmdavc	r0!, {r0, r1, r2, r3, r4, r6, sp}
    10a0:	5f006637 	svcpl	0x00006637
    10a4:	464c555f 			; <UNDEFINED> instruction: 0x464c555f
    10a8:	54434152 	strbpl	r4, [r3], #-338	; 0xfffffeae
    10ac:	4942465f 	stmdbmi	r2, {r0, r1, r2, r3, r4, r6, r9, sl, lr}^
    10b0:	205f5f54 	subscs	r5, pc, r4, asr pc	; <UNPREDICTABLE>
    10b4:	5f003233 	svcpl	0x00003233
    10b8:	4345445f 	movtmi	r4, #21599	; 0x545f
    10bc:	5f383231 	svcpl	0x00383231
    10c0:	5f4e494d 	svcpl	0x004e494d
    10c4:	5f505845 	svcpl	0x00505845
    10c8:	2d28205f 	stccs	0, cr2, [r8, #-380]!	; 0xfffffe84
    10cc:	32343136 	eorscc	r3, r4, #-2147483635	; 0x8000000d
    10d0:	5f5f0029 	svcpl	0x005f0029
    10d4:	43554e47 	cmpmi	r5, #1136	; 0x470
    10d8:	5441505f 	strbpl	r5, [r1], #-95	; 0xffffffa1
    10dc:	454c4843 	strbmi	r4, [ip, #-2115]	; 0xfffff7bd
    10e0:	5f4c4556 	svcpl	0x004c4556
    10e4:	0031205f 	eorseq	r2, r1, pc, asr r0
    10e8:	4c555f5f 	mrrcmi	15, 5, r5, r5, cr15	; <UNPREDICTABLE>
    10ec:	4343414c 	movtmi	r4, #12620	; 0x314c
    10f0:	495f4d55 	ldmdbmi	pc, {r0, r2, r4, r6, r8, sl, fp, lr}^	; <UNPREDICTABLE>
    10f4:	5f544942 	svcpl	0x00544942
    10f8:	3233205f 	eorscc	r2, r3, #95	; 0x5f
    10fc:	535f5f00 	cmppl	pc, #0, 30
    1100:	43415246 	movtmi	r5, #4678	; 0x1246
    1104:	42465f54 	submi	r5, r6, #84, 30	; 0x150
    1108:	5f5f5449 	svcpl	0x005f5449
    110c:	5f003720 	svcpl	0x00003720
    1110:	4c42445f 	cfstrdmi	mvd4, [r2], {95}	; 0x5f
    1114:	4345445f 	movtmi	r4, #21599	; 0x545f
    1118:	4c414d49 	mcrrmi	13, 4, r4, r1, cr9
    111c:	4749445f 	smlsldmi	r4, r9, pc, r4	; <UNPREDICTABLE>
    1120:	31205f5f 			; <UNDEFINED> instruction: 0x31205f5f
    1124:	5f5f0037 	svcpl	0x005f0037
    1128:	5f4c4244 	svcpl	0x004c4244
    112c:	5f474944 	svcpl	0x00474944
    1130:	3531205f 	ldrcc	r2, [r1, #-95]!	; 0xffffffa1
    1134:	435f5f00 	cmpmi	pc, #0, 30
    1138:	5f524148 	svcpl	0x00524148
    113c:	49534e55 	ldmdbmi	r3, {r0, r2, r4, r6, r9, sl, fp, lr}^
    1140:	44454e47 	strbmi	r4, [r5], #-3655	; 0xfffff1b9
    1144:	31205f5f 			; <UNDEFINED> instruction: 0x31205f5f
    1148:	465f5f00 	ldrbmi	r5, [pc], -r0, lsl #30
    114c:	445f544c 	ldrbmi	r5, [pc], #-1100	; 1154 <SCB_AIRCR_PRIGROUP_MASK+0xa54>
    1150:	4d494345 	stclmi	3, cr4, [r9, #-276]	; 0xfffffeec
    1154:	445f4c41 	ldrbmi	r4, [pc], #-3137	; 115c <SCB_AIRCR_PRIGROUP_MASK+0xa5c>
    1158:	5f5f4749 	svcpl	0x005f4749
    115c:	5f003920 	svcpl	0x00003920
    1160:	544e495f 	strbpl	r4, [lr], #-2399	; 0xfffff6a1
    1164:	5341465f 	movtpl	r4, #5727	; 0x165f
    1168:	5f343654 	svcpl	0x00343654
    116c:	45505954 	ldrbmi	r5, [r0, #-2388]	; 0xfffff6ac
    1170:	6c205f5f 	stcvs	15, cr5, [r0], #-380	; 0xfffffe84
    1174:	20676e6f 	rsbcs	r6, r7, pc, ror #28
    1178:	676e6f6c 	strbvs	r6, [lr, -ip, ror #30]!
    117c:	746e6920 	strbtvc	r6, [lr], #-2336	; 0xfffff6e0
    1180:	4c5f5f00 	mrrcmi	15, 0, r5, pc, cr0	; <UNPREDICTABLE>
    1184:	5f4c4244 	svcpl	0x004c4244
    1188:	5f4e494d 	svcpl	0x004e494d
    118c:	455f3031 	ldrbmi	r3, [pc, #-49]	; 1163 <SCB_AIRCR_PRIGROUP_MASK+0xa63>
    1190:	5f5f5058 	svcpl	0x005f5058
    1194:	332d2820 			; <UNDEFINED> instruction: 0x332d2820
    1198:	00293730 	eoreq	r3, r9, r0, lsr r7
    119c:	52415f5f 	subpl	r5, r1, #380	; 0x17c
    11a0:	32335f4d 	eorscc	r5, r3, #308	; 0x134
    11a4:	5f544942 	svcpl	0x00544942
    11a8:	54415453 	strbpl	r5, [r1], #-1107	; 0xfffffbad
    11ac:	00312045 	eorseq	r2, r1, r5, asr #32
    11b0:	49535f5f 	ldmdbmi	r3, {r0, r1, r2, r3, r4, r6, r8, r9, sl, fp, ip, lr}^
    11b4:	464f455a 			; <UNDEFINED> instruction: 0x464f455a
    11b8:	544e495f 	strbpl	r4, [lr], #-2399	; 0xfffff6a1
    11bc:	34205f5f 	strtcc	r5, [r0], #-3935	; 0xfffff0a1
    11c0:	555f5f00 	ldrbpl	r5, [pc, #-3840]	; 2c8 <FPU_FPCCR_MONRDY+0x1c8>
    11c4:	5f544e49 	svcpl	0x00544e49
    11c8:	5341454c 	movtpl	r4, #5452	; 0x154c
    11cc:	4d5f3854 	ldclmi	8, cr3, [pc, #-336]	; 1084 <SCB_AIRCR_PRIGROUP_MASK+0x984>
    11d0:	5f5f5841 	svcpl	0x005f5841
    11d4:	66783020 	ldrbtvs	r3, [r8], -r0, lsr #32
    11d8:	5f5f0066 	svcpl	0x005f0066
    11dc:	49525453 	ldmdbmi	r2, {r0, r1, r4, r6, sl, ip, lr}^
    11e0:	415f5443 	cmpmi	pc, r3, asr #8
    11e4:	5f49534e 	svcpl	0x0049534e
    11e8:	0031205f 	eorseq	r2, r1, pc, asr r0
    11ec:	45445f5f 	strbmi	r5, [r4, #-3935]	; 0xfffff0a1
    11f0:	38323143 	ldmdacc	r2!, {r0, r1, r6, r8, ip, sp}
    11f4:	58414d5f 	stmdapl	r1, {r0, r1, r2, r3, r4, r6, r8, sl, fp, lr}^
    11f8:	5058455f 	subspl	r4, r8, pc, asr r5
    11fc:	36205f5f 	qsaxcc	r5, r0, pc	; <UNPREDICTABLE>
    1200:	00353431 	eorseq	r3, r5, r1, lsr r4
    1204:	4e495f5f 	mcrmi	15, 2, r5, cr9, cr15, {2}
    1208:	5f363154 	svcpl	0x00363154
    120c:	5f58414d 	svcpl	0x0058414d
    1210:	7830205f 	ldmdavc	r0!, {r0, r1, r2, r3, r4, r6, sp}
    1214:	66666637 			; <UNDEFINED> instruction: 0x66666637
    1218:	475f5f00 	ldrbmi	r5, [pc, -r0, lsl #30]
    121c:	485f4343 	ldmdami	pc, {r0, r1, r6, r8, r9, lr}^	; <UNPREDICTABLE>
    1220:	5f455641 	svcpl	0x00455641
    1224:	434e5953 	movtmi	r5, #59731	; 0xe953
    1228:	4d4f435f 	stclmi	3, cr4, [pc, #-380]	; 10b4 <SCB_AIRCR_PRIGROUP_MASK+0x9b4>
    122c:	45524150 	ldrbmi	r4, [r2, #-336]	; 0xfffffeb0
    1230:	444e415f 	strbmi	r4, [lr], #-351	; 0xfffffea1
    1234:	4157535f 	cmpmi	r7, pc, asr r3
    1238:	20345f50 	eorscs	r5, r4, r0, asr pc
    123c:	5f5f0031 	svcpl	0x005f0031
    1240:	4152464c 	cmpmi	r2, ip, asr #12
    1244:	455f5443 	ldrbmi	r5, [pc, #-1091]	; e09 <SCB_AIRCR_PRIGROUP_MASK+0x709>
    1248:	4c495350 	mcrrmi	3, 5, r5, r9, cr0
    124c:	5f5f4e4f 	svcpl	0x005f4e4f
    1250:	31783020 	cmncc	r8, r0, lsr #32
    1254:	31332d50 	teqcc	r3, r0, asr sp
    1258:	5f00524c 	svcpl	0x0000524c
    125c:	42444c5f 	submi	r4, r4, #24320	; 0x5f00
    1260:	45445f4c 	strbmi	r5, [r4, #-3916]	; 0xfffff0b4
    1264:	4d524f4e 	ldclmi	15, cr4, [r2, #-312]	; 0xfffffec8
    1268:	4e494d5f 	mcrmi	13, 2, r4, cr9, cr15, {2}
    126c:	34205f5f 	strtcc	r5, [r0], #-3935	; 0xfffff0a1
    1270:	3034392e 	eorscc	r3, r4, lr, lsr #18
    1274:	34363536 	ldrtcc	r3, [r6], #-1334	; 0xfffffaca
    1278:	31343835 	teqcc	r4, r5, lsr r8
    127c:	35363432 	ldrcc	r3, [r6, #-1074]!	; 0xfffffbce
    1280:	332d6534 			; <UNDEFINED> instruction: 0x332d6534
    1284:	004c3432 	subeq	r3, ip, r2, lsr r4
    1288:	45445f5f 	strbmi	r5, [r4, #-3935]	; 0xfffff0a1
    128c:	5f343643 	svcpl	0x00343643
    1290:	5f58414d 	svcpl	0x0058414d
    1294:	5f505845 	svcpl	0x00505845
    1298:	3833205f 	ldmdacc	r3!, {r0, r1, r2, r3, r4, r6, sp}
    129c:	5f5f0035 	svcpl	0x005f0035
    12a0:	5f4c4244 	svcpl	0x004c4244
    12a4:	4f4e4544 	svcmi	0x004e4544
    12a8:	4d5f4d52 	ldclmi	13, cr4, [pc, #-328]	; 1168 <SCB_AIRCR_PRIGROUP_MASK+0xa68>
    12ac:	5f5f4e49 	svcpl	0x005f4e49
    12b0:	64282820 	strtvs	r2, [r8], #-2080	; 0xfffff7e0
    12b4:	6c62756f 	cfstr64vs	mvdx7, [r2], #-444	; 0xfffffe44
    12b8:	2e342965 	vsubcs.f16	s4, s8, s11	; <UNPREDICTABLE>
    12bc:	36303439 			; <UNDEFINED> instruction: 0x36303439
    12c0:	35343635 	ldrcc	r3, [r4, #-1589]!	; 0xfffff9cb
    12c4:	32313438 	eorscc	r3, r1, #56, 8	; 0x38000000
    12c8:	34353634 	ldrtcc	r3, [r5], #-1588	; 0xfffff9cc
    12cc:	32332d65 	eorscc	r2, r3, #6464	; 0x1940
    12d0:	00294c34 	eoreq	r4, r9, r4, lsr ip
    12d4:	52415f5f 	subpl	r5, r1, #380	; 0x17c
    12d8:	45465f4d 	strbmi	r5, [r6, #-3917]	; 0xfffff0b3
    12dc:	52555441 	subspl	r5, r5, #1090519040	; 0x41000000
    12e0:	4f435f45 	svcmi	0x00435f45
    12e4:	434f5250 	movtmi	r5, #62032	; 0xf250
    12e8:	00353120 	eorseq	r3, r5, r0, lsr #2
    12ec:	4c465f5f 	mcrrmi	15, 5, r5, r6, cr15
    12f0:	414d5f54 	cmpmi	sp, r4, asr pc
    12f4:	445f544e 	ldrbmi	r5, [pc], #-1102	; 12fc <SCB_AIRCR_PRIGROUP_MASK+0xbfc>
    12f8:	5f5f4749 	svcpl	0x005f4749
    12fc:	00343220 	eorseq	r3, r4, r0, lsr #4
    1300:	49425f5f 	stmdbmi	r2, {r0, r1, r2, r3, r4, r6, r8, r9, sl, fp, ip, lr}^
    1304:	53454747 	movtpl	r4, #22343	; 0x5747
    1308:	4c415f54 	mcrrmi	15, 5, r5, r1, cr4
    130c:	4d4e4749 	stclmi	7, cr4, [lr, #-292]	; 0xfffffedc
    1310:	5f544e45 	svcpl	0x00544e45
    1314:	0038205f 	eorseq	r2, r8, pc, asr r0
    1318:	4e475f5f 	mcrmi	15, 2, r5, cr7, cr15, {2}
    131c:	5f5f4355 	svcpl	0x005f4355
    1320:	5f003620 	svcpl	0x00003620
    1324:	544e495f 	strbpl	r4, [lr], #-2399	; 0xfffff6a1
    1328:	5341465f 	movtpl	r4, #5727	; 0x165f
    132c:	545f3854 	ldrbpl	r3, [pc], #-2132	; 1334 <SCB_AIRCR_PRIGROUP_MASK+0xc34>
    1330:	5f455059 	svcpl	0x00455059
    1334:	6e69205f 	mcrvs	0, 3, r2, cr9, cr15, {2}
    1338:	5f5f0074 	svcpl	0x005f0074
    133c:	5f4d5241 	svcpl	0x004d5241
    1340:	48435241 	stmdami	r3, {r0, r6, r9, ip, lr}^
    1344:	5f003720 	svcpl	0x00003720
    1348:	4e49555f 	mcrmi	5, 2, r5, cr9, cr15, {2}
    134c:	5f323354 	svcpl	0x00323354
    1350:	5f58414d 	svcpl	0x0058414d
    1354:	7830205f 	ldmdavc	r0!, {r0, r1, r2, r3, r4, r6, sp}
    1358:	66666666 	strbtvs	r6, [r6], -r6, ror #12
    135c:	66666666 	strbtvs	r6, [r6], -r6, ror #12
    1360:	5f004c55 	svcpl	0x00004c55
    1364:	5151555f 	cmppl	r1, pc, asr r5
    1368:	4942465f 	stmdbmi	r2, {r0, r1, r2, r3, r4, r6, r9, sl, lr}^
    136c:	205f5f54 	subscs	r5, pc, r4, asr pc	; <UNPREDICTABLE>
    1370:	5f5f0038 	svcpl	0x005f0038
    1374:	5f434347 	svcpl	0x00434347
    1378:	4d4f5441 	cfstrdmi	mvd5, [pc, #-260]	; 127c <SCB_AIRCR_PRIGROUP_MASK+0xb7c>
    137c:	4c5f4349 	mrrcmi	3, 4, r4, pc, cr9	; <UNPREDICTABLE>
    1380:	5f474e4f 	svcpl	0x00474e4f
    1384:	4b434f4c 	blmi	10d50bc <FPU_ENABLE_CPACR_VALUE+0x1d50bc>
    1388:	4552465f 	ldrbmi	r4, [r2, #-1631]	; 0xfffff9a1
    138c:	00322045 	eorseq	r2, r2, r5, asr #32
    1390:	4e495f5f 	mcrmi	15, 2, r5, cr9, cr15, {2}
    1394:	41465f54 	cmpmi	r6, r4, asr pc
    1398:	34365453 	ldrtcc	r5, [r6], #-1107	; 0xfffffbad
    139c:	58414d5f 	stmdapl	r1, {r0, r1, r2, r3, r4, r6, r8, sl, fp, lr}^
    13a0:	30205f5f 	eorcc	r5, r0, pc, asr pc
    13a4:	66663778 			; <UNDEFINED> instruction: 0x66663778
    13a8:	66666666 	strbtvs	r6, [r6], -r6, ror #12
    13ac:	66666666 	strbtvs	r6, [r6], -r6, ror #12
    13b0:	66666666 	strbtvs	r6, [r6], -r6, ror #12
    13b4:	004c4c66 	subeq	r4, ip, r6, ror #24
    13b8:	45445f5f 	strbmi	r5, [r4, #-3935]	; 0xfffff0a1
    13bc:	38323143 	ldmdacc	r2!, {r0, r1, r6, r8, ip, sp}
    13c0:	58414d5f 	stmdapl	r1, {r0, r1, r2, r3, r4, r6, r8, sl, fp, lr}^
    13c4:	39205f5f 	stmdbcc	r0!, {r0, r1, r2, r3, r4, r6, r8, r9, sl, fp, ip, lr}
    13c8:	3939392e 	ldmdbcc	r9!, {r1, r2, r3, r5, r8, fp, ip, sp}
    13cc:	39393939 	ldmdbcc	r9!, {r0, r3, r4, r5, r8, fp, ip, sp}
    13d0:	39393939 	ldmdbcc	r9!, {r0, r3, r4, r5, r8, fp, ip, sp}
    13d4:	39393939 	ldmdbcc	r9!, {r0, r3, r4, r5, r8, fp, ip, sp}
    13d8:	39393939 	ldmdbcc	r9!, {r0, r3, r4, r5, r8, fp, ip, sp}
    13dc:	39393939 	ldmdbcc	r9!, {r0, r3, r4, r5, r8, fp, ip, sp}
    13e0:	39393939 	ldmdbcc	r9!, {r0, r3, r4, r5, r8, fp, ip, sp}
    13e4:	39393939 	ldmdbcc	r9!, {r0, r3, r4, r5, r8, fp, ip, sp}
    13e8:	36453939 			; <UNDEFINED> instruction: 0x36453939
    13ec:	44343431 	ldrtmi	r3, [r4], #-1073	; 0xfffffbcf
    13f0:	5f5f004c 	svcpl	0x005f004c
    13f4:	5f4d5241 	svcpl	0x004d5241
    13f8:	48435241 	stmdami	r3, {r0, r6, r9, ip, lr}^
    13fc:	4153495f 	cmpmi	r3, pc, asr r9
    1400:	5548545f 	strbpl	r5, [r8, #-1119]	; 0xfffffba1
    1404:	3220424d 	eorcc	r4, r0, #-805306364	; 0xd0000004
    1408:	555f5f00 	ldrbpl	r5, [pc, #-3840]	; 510 <FPU_FPCCR_MONRDY+0x410>
    140c:	5f544e49 	svcpl	0x00544e49
    1410:	5341454c 	movtpl	r4, #5452	; 0x154c
    1414:	5f363154 	svcpl	0x00363154
    1418:	45505954 	ldrbmi	r5, [r0, #-2388]	; 0xfffff6ac
    141c:	73205f5f 			; <UNDEFINED> instruction: 0x73205f5f
    1420:	74726f68 	ldrbtvc	r6, [r2], #-3944	; 0xfffff098
    1424:	736e7520 	cmnvc	lr, #32, 10	; 0x8000000
    1428:	656e6769 	strbvs	r6, [lr, #-1897]!	; 0xfffff897
    142c:	6e692064 	cdpvs	0, 6, cr2, cr9, cr4, {3}
    1430:	5f5f0074 	svcpl	0x005f0074
    1434:	5f4c4244 	svcpl	0x004c4244
    1438:	5f58414d 	svcpl	0x0058414d
    143c:	5f505845 	svcpl	0x00505845
    1440:	3031205f 	eorscc	r2, r1, pc, asr r0
    1444:	5f003432 	svcpl	0x00003432
    1448:	4454535f 	ldrbmi	r5, [r4], #-863	; 0xfffffca1
    144c:	205f5f43 	subscs	r5, pc, r3, asr #30
    1450:	5f5f0031 	svcpl	0x005f0031
    1454:	544e4955 	strbpl	r4, [lr], #-2389	; 0xfffff6ab
    1458:	5f525450 	svcpl	0x00525450
    145c:	5f58414d 	svcpl	0x0058414d
    1460:	7830205f 	ldmdavc	r0!, {r0, r1, r2, r3, r4, r6, sp}
    1464:	66666666 	strbtvs	r6, [r6], -r6, ror #12
    1468:	66666666 	strbtvs	r6, [r6], -r6, ror #12
    146c:	5f5f0055 	svcpl	0x005f0055
    1470:	5f434347 	svcpl	0x00434347
    1474:	5f434549 	svcpl	0x00434549
    1478:	5f393535 	svcpl	0x00393535
    147c:	504d4f43 	subpl	r4, sp, r3, asr #30
    1480:	2058454c 	subscs	r4, r8, ip, asr #10
    1484:	5f5f0030 	svcpl	0x005f0030
    1488:	5f415455 	svcpl	0x00415455
    148c:	54494249 	strbpl	r4, [r9], #-585	; 0xfffffdb7
    1490:	36205f5f 	qsaxcc	r5, r0, pc	; <UNPREDICTABLE>
    1494:	5f5f0034 	svcpl	0x005f0034
    1498:	4d4f5441 	cfstrdmi	mvd5, [pc, #-260]	; 139c <SCB_AIRCR_PRIGROUP_MASK+0xc9c>
    149c:	415f4349 	cmpmi	pc, r9, asr #6
    14a0:	49555143 	ldmdbmi	r5, {r0, r1, r6, r8, ip, lr}^
    14a4:	32204552 	eorcc	r4, r0, #343932928	; 0x14800000
    14a8:	445f5f00 	ldrbmi	r5, [pc], #-3840	; 14b0 <SCB_AIRCR_PRIGROUP_MASK+0xdb0>
    14ac:	34364345 	ldrtcc	r4, [r6], #-837	; 0xfffffcbb
    14b0:	5350455f 	cmppl	r0, #398458880	; 0x17c00000
    14b4:	4e4f4c49 	cdpmi	12, 4, cr4, cr15, cr9, {2}
    14b8:	31205f5f 			; <UNDEFINED> instruction: 0x31205f5f
    14bc:	35312d45 	ldrcc	r2, [r1, #-3397]!	; 0xfffff2bb
    14c0:	5f004444 	svcpl	0x00004444
    14c4:	4e49555f 	mcrmi	5, 2, r5, cr9, cr15, {2}
    14c8:	58414d54 	stmdapl	r1, {r2, r4, r6, r8, sl, fp, lr}^
    14cc:	58414d5f 	stmdapl	r1, {r0, r1, r2, r3, r4, r6, r8, sl, fp, lr}^
    14d0:	30205f5f 	eorcc	r5, r0, pc, asr pc
    14d4:	66666678 			; <UNDEFINED> instruction: 0x66666678
    14d8:	66666666 	strbtvs	r6, [r6], -r6, ror #12
    14dc:	66666666 	strbtvs	r6, [r6], -r6, ror #12
    14e0:	66666666 	strbtvs	r6, [r6], -r6, ror #12
    14e4:	4c4c5566 	cfstr64mi	mvdx5, [ip], {102}	; 0x66
    14e8:	475f5f00 	ldrbmi	r5, [pc, -r0, lsl #30]
    14ec:	415f4343 	cmpmi	pc, r3, asr #6
    14f0:	494d4f54 	stmdbmi	sp, {r2, r4, r6, r8, r9, sl, fp, lr}^
    14f4:	48435f43 	stmdami	r3, {r0, r1, r6, r8, r9, sl, fp, ip, lr}^
    14f8:	4c5f5241 	lfmmi	f5, 2, [pc], {65}	; 0x41
    14fc:	5f4b434f 	svcpl	0x004b434f
    1500:	45455246 	strbmi	r5, [r5, #-582]	; 0xfffffdba
    1504:	5f003220 	svcpl	0x00003220
    1508:	4345445f 	movtmi	r4, #21599	; 0x545f
    150c:	5f383231 	svcpl	0x00383231
    1510:	49535045 	ldmdbmi	r3, {r0, r2, r6, ip, lr}^
    1514:	5f4e4f4c 	svcpl	0x004e4f4c
    1518:	4531205f 	ldrmi	r2, [r1, #-95]!	; 0xffffffa1
    151c:	4433332d 	ldrtmi	r3, [r3], #-813	; 0xfffffcd3
    1520:	5f5f004c 	svcpl	0x005f004c
    1524:	5f514455 	svcpl	0x00514455
    1528:	54494249 	strbpl	r4, [r9], #-585	; 0xfffffdb7
    152c:	30205f5f 	eorcc	r5, r0, pc, asr pc
    1530:	445f5f00 	ldrbmi	r5, [pc], #-3840	; 1538 <SCB_AIRCR_PRIGROUP_MASK+0xe38>
    1534:	32334345 	eorscc	r4, r3, #335544321	; 0x14000001
    1538:	4e494d5f 	mcrmi	13, 2, r4, cr9, cr15, {2}
    153c:	5058455f 	subspl	r4, r8, pc, asr r5
    1540:	28205f5f 	stmdacs	r0!, {r0, r1, r2, r3, r4, r6, r8, r9, sl, fp, ip, lr}
    1544:	2934392d 	ldmdbcs	r4!, {r0, r2, r3, r5, r8, fp, ip, sp}
    1548:	555f5f00 	ldrbpl	r5, [pc, #-3840]	; 650 <FPU_FPCCR_MONRDY+0x550>
    154c:	5f544e49 	svcpl	0x00544e49
    1550:	54534146 	ldrbpl	r4, [r3], #-326	; 0xfffffeba
    1554:	545f3233 	ldrbpl	r3, [pc], #-563	; 155c <SCB_AIRCR_PRIGROUP_MASK+0xe5c>
    1558:	5f455059 	svcpl	0x00455059
    155c:	6e75205f 	mrcvs	0, 3, r2, cr5, cr15, {2}
    1560:	6e676973 			; <UNDEFINED> instruction: 0x6e676973
    1564:	69206465 	stmdbvs	r0!, {r0, r2, r5, r6, sl, sp, lr}
    1568:	5f00746e 	svcpl	0x0000746e
    156c:	42444c5f 	submi	r4, r4, #24320	; 0x5f00
    1570:	49445f4c 	stmdbmi	r4, {r2, r3, r6, r8, r9, sl, fp, ip, lr}^
    1574:	205f5f47 	subscs	r5, pc, r7, asr #30
    1578:	75003531 	strvc	r3, [r0, #-1329]	; 0xfffffacf
    157c:	5f726573 	svcpl	0x00726573
    1580:	6e69616d 	powvsez	f6, f1, #5.0
    1584:	4c5f5f00 	mrrcmi	15, 0, r5, pc, cr0	; <UNPREDICTABLE>
    1588:	5f4c4244 	svcpl	0x004c4244
    158c:	49535045 	ldmdbmi	r3, {r0, r2, r6, ip, lr}^
    1590:	5f4e4f4c 	svcpl	0x004e4f4c
    1594:	2e32205f 	mrccs	0, 1, r2, cr2, cr15, {2}
    1598:	34303232 	ldrtcc	r3, [r0], #-562	; 0xfffffdce
    159c:	34303634 	ldrtcc	r3, [r0], #-1588	; 0xfffff9cc
    15a0:	30353239 	eorscc	r3, r5, r9, lsr r2
    15a4:	31333133 	teqcc	r3, r3, lsr r1
    15a8:	36312d65 	ldrtcc	r2, [r1], -r5, ror #26
    15ac:	4e47004c 	cdpmi	0, 4, cr0, cr7, cr12, {2}
    15b0:	31432055 	qdaddcc	r2, r5, r3
    15b4:	2e362031 	mrccs	0, 1, r2, cr6, cr1, {1}
    15b8:	20312e33 	eorscs	r2, r1, r3, lsr lr
    15bc:	37313032 			; <UNDEFINED> instruction: 0x37313032
    15c0:	30323630 	eorscc	r3, r2, r0, lsr r6
    15c4:	636d2d20 	cmnvs	sp, #32, 26	; 0x800
    15c8:	633d7570 	teqvs	sp, #112, 10	; 0x1c000000
    15cc:	6574726f 	ldrbvs	r7, [r4, #-623]!	; 0xfffffd91
    15d0:	346d2d78 	strbtcc	r2, [sp], #-3448	; 0xfffff288
    15d4:	666d2d20 	strbtvs	r2, [sp], -r0, lsr #26
    15d8:	663d7570 			; <UNDEFINED> instruction: 0x663d7570
    15dc:	2d347670 	ldccs	6, cr7, [r4, #-448]!	; 0xfffffe40
    15e0:	642d7073 	strtvs	r7, [sp], #-115	; 0xffffff8d
    15e4:	2d203631 	stccs	6, cr3, [r0, #-196]!	; 0xffffff3c
    15e8:	6f6c666d 	svcvs	0x006c666d
    15ec:	612d7461 			; <UNDEFINED> instruction: 0x612d7461
    15f0:	683d6962 	ldmdavs	sp!, {r1, r5, r6, r8, fp, sp, lr}
    15f4:	20647261 	rsbcs	r7, r4, r1, ror #4
    15f8:	68746d2d 	ldmdavs	r4!, {r0, r2, r3, r5, r8, sl, fp, sp, lr}^
    15fc:	20626d75 	rsbcs	r6, r2, r5, ror sp
    1600:	2033672d 	eorscs	r6, r3, sp, lsr #14
    1604:	20304f2d 	eorscs	r4, r0, sp, lsr #30
    1608:	6474732d 	ldrbtvs	r7, [r4], #-813	; 0xfffffcd3
    160c:	3131633d 	teqcc	r1, sp, lsr r3
    1610:	6e662d20 	cdpvs	13, 6, cr2, cr6, cr0, {1}
    1614:	75622d6f 	strbvc	r2, [r2, #-3439]!	; 0xfffff291
    1618:	69746c69 	ldmdbvs	r4!, {r0, r3, r5, r6, sl, fp, sp, lr}^
    161c:	662d206e 	strtvs	r2, [sp], -lr, rrx
    1620:	732d6f6e 			; <UNDEFINED> instruction: 0x732d6f6e
    1624:	6b636174 	blvs	18d9bfc <FPU_ENABLE_CPACR_VALUE+0x9d9bfc>
    1628:	6f72702d 	svcvs	0x0072702d
    162c:	74636574 	strbtvc	r6, [r3], #-1396	; 0xfffffa8c
    1630:	2d20726f 	sfmcs	f7, 4, [r0, #-444]!	; 0xfffffe44
    1634:	2d6f6e66 	stclcs	14, cr6, [pc, #-408]!	; 14a4 <SCB_AIRCR_PRIGROUP_MASK+0xda4>
    1638:	20656970 	rsbcs	r6, r5, r0, ror r9
    163c:	7266662d 	rsbvc	r6, r6, #47185920	; 0x2d00000
    1640:	74736565 	ldrbtvc	r6, [r3], #-1381	; 0xfffffa9b
    1644:	69646e61 	stmdbvs	r4!, {r0, r5, r6, r9, sl, fp, sp, lr}^
    1648:	5f00676e 	svcpl	0x0000676e
    164c:	5153555f 	cmppl	r3, pc, asr r5
    1650:	4942495f 	stmdbmi	r2, {r0, r1, r2, r3, r4, r6, r8, fp, lr}^
    1654:	205f5f54 	subscs	r5, pc, r4, asr pc	; <UNPREDICTABLE>
    1658:	5f5f0030 	svcpl	0x005f0030
    165c:	5f515155 	svcpl	0x00515155
    1660:	54494249 	strbpl	r4, [r9], #-585	; 0xfffffdb7
    1664:	30205f5f 	eorcc	r5, r0, pc, asr pc
    1668:	63727300 	cmnvs	r2, #0, 6
    166c:	69616d2f 	stmdbvs	r1!, {r0, r1, r2, r3, r5, r8, sl, fp, sp, lr}^
    1670:	00632e6e 	rsbeq	r2, r3, lr, ror #28
    1674:	41485f5f 	cmpmi	r8, pc, asr pc
    1678:	4942495f 	stmdbmi	r2, {r0, r1, r2, r3, r4, r6, r8, fp, lr}^
    167c:	205f5f54 	subscs	r5, pc, r4, asr pc	; <UNPREDICTABLE>
    1680:	5f5f0038 	svcpl	0x005f0038
    1684:	544e4955 	strbpl	r4, [lr], #-2389	; 0xfffff6ab
    1688:	545f3233 	ldrbpl	r3, [pc], #-563	; 1690 <SCB_AIRCR_PRIGROUP_MASK+0xf90>
    168c:	5f455059 	svcpl	0x00455059
    1690:	6f6c205f 	svcvs	0x006c205f
    1694:	7520676e 	strvc	r6, [r0, #-1902]!	; 0xfffff892
    1698:	6769736e 	strbvs	r7, [r9, -lr, ror #6]!
    169c:	2064656e 	rsbcs	r6, r4, lr, ror #10
    16a0:	00746e69 	rsbseq	r6, r4, r9, ror #28
    16a4:	42445f5f 	submi	r5, r4, #380	; 0x17c
    16a8:	494d5f4c 	stmdbmi	sp, {r2, r3, r6, r8, r9, sl, fp, ip, lr}^
    16ac:	205f5f4e 	subscs	r5, pc, lr, asr #30
    16b0:	6f642828 	svcvs	0x00642828
    16b4:	656c6275 	strbvs	r6, [ip, #-629]!	; 0xfffffd8b
    16b8:	322e3229 	eorcc	r3, lr, #-1879048190	; 0x90000002
    16bc:	37303532 			; <UNDEFINED> instruction: 0x37303532
    16c0:	38353833 	ldmdacc	r5!, {r0, r1, r4, r5, fp, ip, sp}
    16c4:	32373035 	eorscc	r3, r7, #53	; 0x35
    16c8:	65343130 	ldrvs	r3, [r4, #-304]!	; 0xfffffed0
    16cc:	3830332d 	ldmdacc	r0!, {r0, r2, r3, r5, r8, r9, ip, sp}
    16d0:	5f00294c 	svcpl	0x0000294c
    16d4:	5246555f 	subpl	r5, r6, #398458880	; 0x17c00000
    16d8:	5f544341 	svcpl	0x00544341
    16dc:	5f4e494d 	svcpl	0x004e494d
    16e0:	2e30205f 	mrccs	0, 1, r2, cr0, cr15, {2}
    16e4:	00525530 	subseq	r5, r2, r0, lsr r5
    16e8:	42445f5f 	submi	r5, r4, #380	; 0x17c
    16ec:	494d5f4c 	stmdbmi	sp, {r2, r3, r6, r8, r9, sl, fp, ip, lr}^
    16f0:	58455f4e 	stmdapl	r5, {r1, r2, r3, r6, r8, r9, sl, fp, ip, lr}^
    16f4:	205f5f50 	subscs	r5, pc, r0, asr pc	; <UNPREDICTABLE>
    16f8:	30312d28 	eorscc	r2, r1, r8, lsr #26
    16fc:	00293132 	eoreq	r3, r9, r2, lsr r1
    1700:	4e495f5f 	mcrmi	15, 2, r5, cr9, cr15, {2}
    1704:	454c5f54 	strbmi	r5, [ip, #-3924]	; 0xfffff0ac
    1708:	31545341 	cmpcc	r4, r1, asr #6
    170c:	414d5f36 	cmpmi	sp, r6, lsr pc
    1710:	205f5f58 	subscs	r5, pc, r8, asr pc	; <UNPREDICTABLE>
    1714:	66377830 			; <UNDEFINED> instruction: 0x66377830
    1718:	5f006666 	svcpl	0x00006666
    171c:	4345445f 	movtmi	r4, #21599	; 0x545f
    1720:	5f383231 	svcpl	0x00383231
    1724:	544e414d 	strbpl	r4, [lr], #-333	; 0xfffffeb3
    1728:	4749445f 	smlsldmi	r4, r9, pc, r4	; <UNPREDICTABLE>
    172c:	33205f5f 			; <UNDEFINED> instruction: 0x33205f5f
    1730:	5f5f0034 	svcpl	0x005f0034
    1734:	464c4c55 			; <UNDEFINED> instruction: 0x464c4c55
    1738:	54434152 	strbpl	r4, [r3], #-338	; 0xfffffeae
    173c:	58414d5f 	stmdapl	r1, {r0, r1, r2, r3, r4, r6, r8, sl, fp, lr}^
    1740:	30205f5f 	eorcc	r5, r0, pc, asr pc
    1744:	46464658 			; <UNDEFINED> instruction: 0x46464658
    1748:	46464646 	strbmi	r4, [r6], -r6, asr #12
    174c:	46464646 	strbmi	r4, [r6], -r6, asr #12
    1750:	46464646 	strbmi	r4, [r6], -r6, asr #12
    1754:	362d5046 	strtcc	r5, [sp], -r6, asr #32
    1758:	4c4c5534 	cfstr64mi	mvdx5, [ip], {52}	; 0x34
    175c:	5f5f0052 	svcpl	0x005f0052
    1760:	36434544 	strbcc	r4, [r3], -r4, asr #10
    1764:	494d5f34 	stmdbmi	sp, {r2, r4, r5, r8, r9, sl, fp, ip, lr}^
    1768:	58455f4e 	stmdapl	r5, {r1, r2, r3, r6, r8, r9, sl, fp, ip, lr}^
    176c:	205f5f50 	subscs	r5, pc, r0, asr pc	; <UNPREDICTABLE>
    1770:	38332d28 	ldmdacc	r3!, {r3, r5, r8, sl, fp, sp}
    1774:	5f002932 	svcpl	0x00002932
    1778:	4e49555f 	mcrmi	5, 2, r5, cr9, cr15, {2}
    177c:	454c5f54 	strbmi	r5, [ip, #-3924]	; 0xfffff0ac
    1780:	36545341 	ldrbcc	r5, [r4], -r1, asr #6
    1784:	414d5f34 	cmpmi	sp, r4, lsr pc
    1788:	205f5f58 	subscs	r5, pc, r8, asr pc	; <UNPREDICTABLE>
    178c:	66667830 			; <UNDEFINED> instruction: 0x66667830
    1790:	66666666 	strbtvs	r6, [r6], -r6, ror #12
    1794:	66666666 	strbtvs	r6, [r6], -r6, ror #12
    1798:	66666666 	strbtvs	r6, [r6], -r6, ror #12
    179c:	4c556666 	mrrcmi	6, 6, r6, r5, cr6
    17a0:	5f5f004c 	svcpl	0x005f004c
    17a4:	5f544c46 	svcpl	0x00544c46
    17a8:	5f58414d 	svcpl	0x0058414d
    17ac:	2e33205f 	mrccs	0, 1, r2, cr3, cr15, {2}
    17b0:	38323034 	ldmdacc	r2!, {r2, r4, r5, ip, sp}
    17b4:	36343332 			; <UNDEFINED> instruction: 0x36343332
    17b8:	35383336 	ldrcc	r3, [r8, #-822]!	; 0xfffffcca
    17bc:	36383832 			; <UNDEFINED> instruction: 0x36383832
    17c0:	38332b65 	ldmdacc	r3!, {r0, r2, r5, r6, r8, r9, fp, sp}
    17c4:	5f5f0046 	svcpl	0x005f0046
    17c8:	43434155 	movtmi	r4, #12629	; 0x3155
    17cc:	465f4d55 			; <UNDEFINED> instruction: 0x465f4d55
    17d0:	5f544942 	svcpl	0x00544942
    17d4:	3631205f 			; <UNDEFINED> instruction: 0x3631205f
    17d8:	555f5f00 	ldrbpl	r5, [pc, #-3840]	; 8e0 <SCB_AIRCR_PRIGROUP_MASK+0x1e0>
    17dc:	55434341 	strbpl	r4, [r3, #-833]	; 0xfffffcbf
    17e0:	50455f4d 	subpl	r5, r5, sp, asr #30
    17e4:	4f4c4953 	svcmi	0x004c4953
    17e8:	205f5f4e 	subscs	r5, pc, lr, asr #30
    17ec:	50317830 	eorspl	r7, r1, r0, lsr r8
    17f0:	5536312d 	ldrpl	r3, [r6, #-301]!	; 0xfffffed3
    17f4:	5f5f004b 	svcpl	0x005f004b
    17f8:	41524653 	cmpmi	r2, r3, asr r6
    17fc:	4d5f5443 	cfldrdmi	mvd5, [pc, #-268]	; 16f8 <SCB_AIRCR_PRIGROUP_MASK+0xff8>
    1800:	5f5f4e49 	svcpl	0x005f4e49
    1804:	302d2820 	eorcc	r2, sp, r0, lsr #16
    1808:	5248352e 	subpl	r3, r8, #192937984	; 0xb800000
    180c:	352e302d 	strcc	r3, [lr, #-45]!	; 0xffffffd3
    1810:	00295248 	eoreq	r5, r9, r8, asr #4
    1814:	52415f5f 	subpl	r5, r1, #380	; 0x17c
    1818:	45465f4d 	strbmi	r5, [r6, #-3917]	; 0xfffff0b3
    181c:	52555441 	subspl	r5, r5, #1090519040	; 0x41000000
    1820:	44495f45 	strbmi	r5, [r9], #-3909	; 0xfffff0bb
    1824:	31205649 			; <UNDEFINED> instruction: 0x31205649
    1828:	415f5f00 	cmpmi	pc, r0, lsl #30
    182c:	415f4d52 	cmpmi	pc, r2, asr sp	; <UNPREDICTABLE>
    1830:	535f4d53 	cmppl	pc, #5312	; 0x14c0
    1834:	41544e59 	cmpmi	r4, r9, asr lr
    1838:	4e555f58 	mrcmi	15, 2, r5, cr5, cr8, {2}
    183c:	45494649 	strbmi	r4, [r9, #-1609]	; 0xfffff9b7
    1840:	205f5f44 	subscs	r5, pc, r4, asr #30
    1844:	5f5f0031 	svcpl	0x005f0031
    1848:	6d756874 	ldclvs	8, cr6, [r5, #-464]!	; 0xfffffe30
    184c:	5f5f3262 	svcpl	0x005f3262
    1850:	5f003120 	svcpl	0x00003120
    1854:	5f51445f 	svcpl	0x0051445f
    1858:	54494249 	strbpl	r4, [r9], #-585	; 0xfffffdb7
    185c:	30205f5f 	eorcc	r5, r0, pc, asr pc
    1860:	495f5f00 	ldmdbmi	pc, {r8, r9, sl, fp, ip, lr}^	; <UNPREDICTABLE>
    1864:	414d544e 	cmpmi	sp, lr, asr #8
    1868:	28435f58 	stmdacs	r3, {r3, r4, r6, r8, r9, sl, fp, ip, lr}^
    186c:	63202963 			; <UNDEFINED> instruction: 0x63202963
    1870:	20232320 	eorcs	r2, r3, r0, lsr #6
    1874:	5f004c4c 	svcpl	0x00004c4c
    1878:	4343475f 	movtmi	r4, #14175	; 0x375f
    187c:	4f54415f 	svcmi	0x0054415f
    1880:	5f43494d 	svcpl	0x0043494d
    1884:	524f4853 	subpl	r4, pc, #5439488	; 0x530000
    1888:	4f4c5f54 	svcmi	0x004c5f54
    188c:	465f4b43 	ldrbmi	r4, [pc], -r3, asr #22
    1890:	20454552 	subcs	r4, r5, r2, asr r5
    1894:	5f5f0032 	svcpl	0x005f0032
    1898:	44525450 	ldrbmi	r5, [r2], #-1104	; 0xfffffbb0
    189c:	5f464649 	svcpl	0x00464649
    18a0:	5f58414d 	svcpl	0x0058414d
    18a4:	7830205f 	ldmdavc	r0!, {r0, r1, r2, r3, r4, r6, sp}
    18a8:	66666637 			; <UNDEFINED> instruction: 0x66666637
    18ac:	66666666 	strbtvs	r6, [r6], -r6, ror #12
    18b0:	615f5f00 	cmpvs	pc, r0, lsl #30
    18b4:	5f5f6d72 	svcpl	0x005f6d72
    18b8:	5f003120 	svcpl	0x00003120
    18bc:	544c465f 	strbpl	r4, [ip], #-1631	; 0xfffff9a1
    18c0:	4156455f 	cmpmi	r6, pc, asr r5
    18c4:	454d5f4c 	strbmi	r5, [sp, #-3916]	; 0xfffff0b4
    18c8:	444f4854 	strbmi	r4, [pc], #-2132	; 18d0 <SCB_AIRCR_PRIGROUP_MASK+0x11d0>
    18cc:	30205f5f 	eorcc	r5, r0, pc, asr pc
    18d0:	495f5f00 	ldmdbmi	pc, {r8, r9, sl, fp, ip, lr}^	; <UNPREDICTABLE>
    18d4:	4c5f544e 	cfldrdmi	mvd5, [pc], {78}	; 0x4e
    18d8:	54534145 	ldrbpl	r4, [r3], #-325	; 0xfffffebb
    18dc:	59545f38 	ldmdbpl	r4, {r3, r4, r5, r8, r9, sl, fp, ip, lr}^
    18e0:	5f5f4550 	svcpl	0x005f4550
    18e4:	67697320 	strbvs	r7, [r9, -r0, lsr #6]!
    18e8:	2064656e 	rsbcs	r6, r4, lr, ror #10
    18ec:	72616863 	rsbvc	r6, r1, #6488064	; 0x630000
    18f0:	555f5f00 	ldrbpl	r5, [pc, #-3840]	; 9f8 <SCB_AIRCR_PRIGROUP_MASK+0x2f8>
    18f4:	31544e49 	cmpcc	r4, r9, asr #28
    18f8:	28435f36 	stmdacs	r3, {r1, r2, r4, r5, r8, r9, sl, fp, ip, lr}^
    18fc:	63202963 			; <UNDEFINED> instruction: 0x63202963
    1900:	535f5f00 	cmppl	pc, #0, 30
    1904:	5f545248 	svcpl	0x00545248
    1908:	5f58414d 	svcpl	0x0058414d
    190c:	7830205f 	ldmdavc	r0!, {r0, r1, r2, r3, r4, r6, sp}
    1910:	66666637 			; <UNDEFINED> instruction: 0x66666637
    1914:	535f5f00 	cmppl	pc, #0, 30
    1918:	4f455a49 	svcmi	0x00455a49
    191c:	4c465f46 	mcrrmi	15, 4, r5, r6, cr6
    1920:	5f54414f 	svcpl	0x0054414f
    1924:	0034205f 	eorseq	r2, r4, pc, asr r0
    1928:	48545f5f 	ldmdami	r4, {r0, r1, r2, r3, r4, r6, r8, r9, sl, fp, ip, lr}^
    192c:	5f424d55 	svcpl	0x00424d55
    1930:	45544e49 	ldrbmi	r4, [r4, #-3657]	; 0xfffff1b7
    1934:	524f5752 	subpl	r5, pc, #21495808	; 0x1480000
    1938:	205f5f4b 	subscs	r5, pc, fp, asr #30
    193c:	5f5f0031 	svcpl	0x005f0031
    1940:	5f4c4244 	svcpl	0x004c4244
    1944:	5f58414d 	svcpl	0x0058414d
    1948:	455f3031 	ldrbmi	r3, [pc, #-49]	; 191f <SCB_AIRCR_PRIGROUP_MASK+0x121f>
    194c:	5f5f5058 	svcpl	0x005f5058
    1950:	38303320 	ldmdacc	r0!, {r5, r8, r9, ip, sp}
    1954:	465f5f00 	ldrbmi	r5, [pc], -r0, lsl #30
    1958:	445f544c 	ldrbmi	r5, [pc], #-1100	; 1960 <SCB_AIRCR_PRIGROUP_MASK+0x1260>
    195c:	524f4e45 	subpl	r4, pc, #1104	; 0x450
    1960:	494d5f4d 	stmdbmi	sp, {r0, r2, r3, r6, r8, r9, sl, fp, ip, lr}^
    1964:	205f5f4e 	subscs	r5, pc, lr, asr #30
    1968:	30342e31 	eorscc	r2, r4, r1, lsr lr
    196c:	38393231 	ldmdacc	r9!, {r0, r4, r5, r9, ip, sp}
    1970:	33343634 	teqcc	r4, #52, 12	; 0x3400000
    1974:	31383432 	teqcc	r8, r2, lsr r4
    1978:	2d653137 	stfcse	f3, [r5, #-220]!	; 0xffffff24
    197c:	00463534 	subeq	r3, r6, r4, lsr r5
    1980:	4c465f5f 	mcrrmi	15, 5, r5, r6, cr15
    1984:	50455f54 	subpl	r5, r5, r4, asr pc
    1988:	4f4c4953 	svcmi	0x004c4953
    198c:	205f5f4e 	subscs	r5, pc, lr, asr #30
    1990:	39312e31 	ldmdbcc	r1!, {r0, r4, r5, r9, sl, fp, sp}
    1994:	32393032 	eorscc	r3, r9, #50	; 0x32
    1998:	35353938 	ldrcc	r3, [r5, #-2360]!	; 0xfffff6c8
    199c:	31383730 	teqcc	r8, r0, lsr r7
    19a0:	2d653532 	cfstr64cs	mvdx3, [r5, #-200]!	; 0xffffff38
    19a4:	5f004637 	svcpl	0x00004637
    19a8:	44524f5f 	ldrbmi	r4, [r2], #-3935	; 0xfffff0a1
    19ac:	505f5245 	subspl	r5, pc, r5, asr #4
    19b0:	455f5044 	ldrbmi	r5, [pc, #-68]	; 1974 <SCB_AIRCR_PRIGROUP_MASK+0x1274>
    19b4:	4149444e 	cmpmi	r9, lr, asr #8
    19b8:	205f5f4e 	subscs	r5, pc, lr, asr #30
    19bc:	32313433 	eorscc	r3, r1, #855638016	; 0x33000000
    19c0:	475f5f00 	ldrbmi	r5, [pc, -r0, lsl #30]
    19c4:	415f4343 	cmpmi	pc, r3, asr #6
    19c8:	494d4f54 	stmdbmi	sp, {r2, r4, r6, r8, r9, sl, fp, lr}^
    19cc:	4f505f43 	svcmi	0x00505f43
    19d0:	45544e49 	ldrbmi	r4, [r4, #-3657]	; 0xfffff1b7
    19d4:	4f4c5f52 	svcmi	0x004c5f52
    19d8:	465f4b43 	ldrbmi	r4, [pc], -r3, asr #22
    19dc:	20454552 	subcs	r4, r5, r2, asr r5
    19e0:	5f5f0032 	svcpl	0x005f0032
    19e4:	43415355 	movtmi	r5, #4949	; 0x1355
    19e8:	5f4d5543 	svcpl	0x004d5543
    19ec:	54494249 	strbpl	r4, [r9], #-585	; 0xfffffdb7
    19f0:	38205f5f 	stmdacc	r0!, {r0, r1, r2, r3, r4, r6, r8, r9, sl, fp, ip, lr}
    19f4:	4f5f5f00 	svcmi	0x005f5f00
    19f8:	52454452 	subpl	r4, r5, #1375731712	; 0x52000000
    19fc:	54494c5f 	strbpl	r4, [r9], #-3167	; 0xfffff3a1
    1a00:	5f454c54 	svcpl	0x00454c54
    1a04:	49444e45 	stmdbmi	r4, {r0, r2, r6, r9, sl, fp, lr}^
    1a08:	5f5f4e41 	svcpl	0x005f4e41
    1a0c:	33323120 	teqcc	r2, #32, 2
    1a10:	5f5f0034 	svcpl	0x005f0034
    1a14:	544e4957 	strbpl	r4, [lr], #-2391	; 0xfffff6a9
    1a18:	5059545f 	subspl	r5, r9, pc, asr r4
    1a1c:	205f5f45 	subscs	r5, pc, r5, asr #30
    1a20:	69736e75 	ldmdbvs	r3!, {r0, r2, r4, r5, r6, r9, sl, fp, sp, lr}^
    1a24:	64656e67 	strbtvs	r6, [r5], #-3687	; 0xfffff199
    1a28:	746e6920 	strbtvc	r6, [lr], #-2336	; 0xfffff6e0
    1a2c:	495f5f00 	ldmdbmi	pc, {r8, r9, sl, fp, ip, lr}^	; <UNPREDICTABLE>
    1a30:	4c5f544e 	cfldrdmi	mvd5, [pc], {78}	; 0x4e
    1a34:	54534145 	ldrbpl	r4, [r3], #-325	; 0xfffffebb
    1a38:	545f3436 	ldrbpl	r3, [pc], #-1078	; 1a40 <SCB_AIRCR_PRIGROUP_MASK+0x1340>
    1a3c:	5f455059 	svcpl	0x00455059
    1a40:	6f6c205f 	svcvs	0x006c205f
    1a44:	6c20676e 	stcvs	7, cr6, [r0], #-440	; 0xfffffe48
    1a48:	20676e6f 	rsbcs	r6, r7, pc, ror #28
    1a4c:	00746e69 	rsbseq	r6, r4, r9, ror #28
    1a50:	54415f5f 	strbpl	r5, [r1], #-3935	; 0xfffff0a1
    1a54:	43494d4f 	movtmi	r4, #40271	; 0x9d4f
    1a58:	4c45525f 	sfmmi	f5, 2, [r5], {95}	; 0x5f
    1a5c:	44455841 	strbmi	r5, [r5], #-2113	; 0xfffff7bf
    1a60:	5f003020 	svcpl	0x00003020
    1a64:	5f41445f 	svcpl	0x0041445f
    1a68:	54494249 	strbpl	r4, [r9], #-585	; 0xfffffdb7
    1a6c:	33205f5f 			; <UNDEFINED> instruction: 0x33205f5f
    1a70:	5f5f0032 	svcpl	0x005f0032
    1a74:	4343414c 	movtmi	r4, #12620	; 0x314c
    1a78:	4d5f4d55 	ldclmi	13, cr4, [pc, #-340]	; 192c <SCB_AIRCR_PRIGROUP_MASK+0x122c>
    1a7c:	5f5f5841 	svcpl	0x005f5841
    1a80:	37583020 	ldrbcc	r3, [r8, -r0, lsr #32]
    1a84:	46464646 	strbmi	r4, [r6], -r6, asr #12
    1a88:	46464646 	strbmi	r4, [r6], -r6, asr #12
    1a8c:	46464646 	strbmi	r4, [r6], -r6, asr #12
    1a90:	50464646 	subpl	r4, r6, r6, asr #12
    1a94:	4c31332d 	ldcmi	3, cr3, [r1], #-180	; 0xffffff4c
    1a98:	5f5f004b 	svcpl	0x005f004b
    1a9c:	414c4c55 	cmpmi	ip, r5, asr ip
    1aa0:	4d554343 	ldclmi	3, cr4, [r5, #-268]	; 0xfffffef4
    1aa4:	4e494d5f 	mcrmi	13, 2, r4, cr9, cr15, {2}
    1aa8:	30205f5f 	eorcc	r5, r0, pc, asr pc
    1aac:	4c55302e 	mrrcmi	0, 2, r3, r5, cr14
    1ab0:	5f004b4c 	svcpl	0x00004b4c
    1ab4:	544e495f 	strbpl	r4, [lr], #-2399	; 0xfffff6a1
    1ab8:	41454c5f 	cmpmi	r5, pc, asr ip
    1abc:	32335453 	eorscc	r5, r3, #1392508928	; 0x53000000
    1ac0:	58414d5f 	stmdapl	r1, {r0, r1, r2, r3, r4, r6, r8, sl, fp, lr}^
    1ac4:	30205f5f 	eorcc	r5, r0, pc, asr pc
    1ac8:	66663778 			; <UNDEFINED> instruction: 0x66663778
    1acc:	66666666 	strbtvs	r6, [r6], -r6, ror #12
    1ad0:	5f004c66 	svcpl	0x00004c66
    1ad4:	4345445f 	movtmi	r4, #21599	; 0x545f
    1ad8:	4d5f3233 	lfmmi	f3, 2, [pc, #-204]	; 1a14 <SCB_AIRCR_PRIGROUP_MASK+0x1314>
    1adc:	5f544e41 	svcpl	0x00544e41
    1ae0:	5f474944 	svcpl	0x00474944
    1ae4:	0037205f 	eorseq	r2, r7, pc, asr r0
    1ae8:	43475f5f 	movtmi	r5, #32607	; 0x7f5f
    1aec:	45495f43 	strbmi	r5, [r9, #-3907]	; 0xfffff0bd
    1af0:	35355f43 	ldrcc	r5, [r5, #-3907]!	; 0xfffff0bd
    1af4:	00302039 	eorseq	r2, r0, r9, lsr r0
    1af8:	43415f5f 	movtmi	r5, #8031	; 0x1f5f
    1afc:	5f4d5543 	svcpl	0x004d5543
    1b00:	5f58414d 	svcpl	0x0058414d
    1b04:	5830205f 	ldmdapl	r0!, {r0, r1, r2, r3, r4, r6, sp}
    1b08:	46464637 			; <UNDEFINED> instruction: 0x46464637
    1b0c:	46464646 	strbmi	r4, [r6], -r6, asr #12
    1b10:	35312d50 	ldrcc	r2, [r1, #-3408]!	; 0xfffff2b0
    1b14:	5f5f004b 	svcpl	0x005f004b
    1b18:	5f544e49 	svcpl	0x00544e49
    1b1c:	5341454c 	movtpl	r4, #5452	; 0x154c
    1b20:	5f323354 	svcpl	0x00323354
    1b24:	45505954 	ldrbmi	r5, [r0, #-2388]	; 0xfffff6ac
    1b28:	6c205f5f 	stcvs	15, cr5, [r0], #-380	; 0xfffffe84
    1b2c:	20676e6f 	rsbcs	r6, r7, pc, ror #28
    1b30:	00746e69 	rsbseq	r6, r4, r9, ror #28
    1b34:	41535f5f 	cmpmi	r3, pc, asr pc
    1b38:	4d554343 	ldclmi	3, cr4, [r5, #-268]	; 0xfffffef4
    1b3c:	58414d5f 	stmdapl	r1, {r0, r1, r2, r3, r4, r6, r8, sl, fp, lr}^
    1b40:	30205f5f 	eorcc	r5, r0, pc, asr pc
    1b44:	46463758 			; <UNDEFINED> instruction: 0x46463758
    1b48:	372d5046 	strcc	r5, [sp, -r6, asr #32]!
    1b4c:	5f004b48 	svcpl	0x00004b48
    1b50:	4343415f 	movtmi	r4, #12639	; 0x315f
    1b54:	465f4d55 			; <UNDEFINED> instruction: 0x465f4d55
    1b58:	5f544942 	svcpl	0x00544942
    1b5c:	3531205f 	ldrcc	r2, [r1, #-95]!	; 0xffffffa1
    1b60:	555f5f00 	ldrbpl	r5, [pc, #-3840]	; c68 <SCB_AIRCR_PRIGROUP_MASK+0x568>
    1b64:	41524653 	cmpmi	r2, r3, asr r6
    1b68:	495f5443 	ldmdbmi	pc, {r0, r1, r6, sl, ip, lr}^	; <UNPREDICTABLE>
    1b6c:	5f544942 	svcpl	0x00544942
    1b70:	0030205f 	eorseq	r2, r0, pc, asr r0
    1b74:	41535f5f 	cmpmi	r3, pc, asr pc
    1b78:	4942465f 	stmdbmi	r2, {r0, r1, r2, r3, r4, r6, r9, sl, lr}^
    1b7c:	205f5f54 	subscs	r5, pc, r4, asr pc	; <UNPREDICTABLE>
    1b80:	5f003531 	svcpl	0x00003531
    1b84:	414c555f 	cmpmi	ip, pc, asr r5
    1b88:	4d554343 	ldclmi	3, cr4, [r5, #-268]	; 0xfffffef4
    1b8c:	4942495f 	stmdbmi	r2, {r0, r1, r2, r3, r4, r6, r8, fp, lr}^
    1b90:	205f5f54 	subscs	r5, pc, r4, asr pc	; <UNPREDICTABLE>
    1b94:	5f003233 	svcpl	0x00003233
    1b98:	5f51445f 	svcpl	0x0051445f
    1b9c:	54494246 	strbpl	r4, [r9], #-582	; 0xfffffdba
    1ba0:	36205f5f 	qsaxcc	r5, r0, pc	; <UNPREDICTABLE>
    1ba4:	5f5f0033 	svcpl	0x005f0033
    1ba8:	454d5241 	strbmi	r5, [sp, #-577]	; 0xfffffdbf
    1bac:	205f5f4c 	subscs	r5, pc, ip, asr #30
    1bb0:	5f5f0031 	svcpl	0x005f0031
    1bb4:	5f474953 	svcpl	0x00474953
    1bb8:	4d4f5441 	cfstrdmi	mvd5, [pc, #-260]	; 1abc <SCB_AIRCR_PRIGROUP_MASK+0x13bc>
    1bbc:	4d5f4349 	ldclmi	3, cr4, [pc, #-292]	; 1aa0 <SCB_AIRCR_PRIGROUP_MASK+0x13a0>
    1bc0:	5f5f5841 	svcpl	0x005f5841
    1bc4:	37783020 	ldrbcc	r3, [r8, -r0, lsr #32]!
    1bc8:	66666666 	strbtvs	r6, [r6], -r6, ror #12
    1bcc:	00666666 	rsbeq	r6, r6, r6, ror #12
    1bd0:	44555f5f 	ldrbmi	r5, [r5], #-3935	; 0xfffff0a1
    1bd4:	42465f51 	submi	r5, r6, #324	; 0x144
    1bd8:	5f5f5449 	svcpl	0x005f5449
    1bdc:	00343620 	eorseq	r3, r4, r0, lsr #12
    1be0:	51485f5f 	cmppl	r8, pc, asr pc
    1be4:	4942495f 	stmdbmi	r2, {r0, r1, r2, r3, r4, r6, r8, fp, lr}^
    1be8:	205f5f54 	subscs	r5, pc, r4, asr pc	; <UNPREDICTABLE>
    1bec:	5f5f0030 	svcpl	0x005f0030
    1bf0:	43415246 	movtmi	r5, #4678	; 0x1246
    1bf4:	50455f54 	subpl	r5, r5, r4, asr pc
    1bf8:	4f4c4953 	svcmi	0x004c4953
    1bfc:	205f5f4e 	subscs	r5, pc, lr, asr #30
    1c00:	50317830 	eorspl	r7, r1, r0, lsr r8
    1c04:	5235312d 	eorspl	r3, r5, #1073741835	; 0x4000000b
    1c08:	485f5f00 	ldmdami	pc, {r8, r9, sl, fp, ip, lr}^	; <UNPREDICTABLE>
    1c0c:	42465f41 	submi	r5, r6, #260	; 0x104
    1c10:	5f5f5449 	svcpl	0x005f5449
    1c14:	5f003720 	svcpl	0x00003720
    1c18:	42444c5f 	submi	r4, r4, #24320	; 0x5f00
    1c1c:	414d5f4c 	cmpmi	sp, ip, asr #30
    1c20:	445f544e 	ldrbmi	r5, [pc], #-1102	; 1c28 <SCB_AIRCR_PRIGROUP_MASK+0x1528>
    1c24:	5f5f4749 	svcpl	0x005f4749
    1c28:	00333520 	eorseq	r3, r3, r0, lsr #10
    1c2c:	46555f5f 	usaxmi	r5, r5, pc	; <UNPREDICTABLE>
    1c30:	54434152 	strbpl	r4, [r3], #-338	; 0xfffffeae
    1c34:	5350455f 	cmppl	r0, #398458880	; 0x17c00000
    1c38:	4e4f4c49 	cdpmi	12, 4, cr4, cr15, cr9, {2}
    1c3c:	30205f5f 	eorcc	r5, r0, pc, asr pc
    1c40:	2d503178 	ldfcse	f3, [r0, #-480]	; 0xfffffe20
    1c44:	52553631 	subspl	r3, r5, #51380224	; 0x3100000
    1c48:	555f5f00 	ldrbpl	r5, [pc, #-3840]	; d50 <SCB_AIRCR_PRIGROUP_MASK+0x650>
    1c4c:	50544e49 	subspl	r4, r4, r9, asr #28
    1c50:	545f5254 	ldrbpl	r5, [pc], #-596	; 1c58 <SCB_AIRCR_PRIGROUP_MASK+0x1558>
    1c54:	5f455059 	svcpl	0x00455059
    1c58:	6e75205f 	mrcvs	0, 3, r2, cr5, cr15, {2}
    1c5c:	6e676973 			; <UNDEFINED> instruction: 0x6e676973
    1c60:	69206465 	stmdbvs	r0!, {r0, r2, r5, r6, sl, sp, lr}
    1c64:	5f00746e 	svcpl	0x0000746e
    1c68:	4d52415f 	ldfmie	f4, [r2, #-380]	; 0xfffffe84
    1c6c:	4241455f 	submi	r4, r1, #398458880	; 0x17c00000
    1c70:	205f5f49 	subscs	r5, pc, r9, asr #30
    1c74:	5f5f0031 	svcpl	0x005f0031
    1c78:	544e4955 	strbpl	r4, [lr], #-2389	; 0xfffff6ab
    1c7c:	435f3436 	cmpmi	pc, #905969664	; 0x36000000
    1c80:	20296328 	eorcs	r6, r9, r8, lsr #6
    1c84:	23232063 			; <UNDEFINED> instruction: 0x23232063
    1c88:	4c4c5520 	cfstr64mi	mvdx5, [ip], {32}
    1c8c:	6e6d2f00 	cdpvs	15, 6, cr2, cr13, cr0, {0}
    1c90:	2f632f74 	svccs	0x00632f74
    1c94:	72657355 	rsbvc	r7, r5, #1409286145	; 0x54000001
    1c98:	6c412f73 	mcrrvs	15, 7, r2, r1, cr3
    1c9c:	2f797865 	svccs	0x00797865
    1ca0:	75636f44 	strbvc	r6, [r3, #-3908]!	; 0xfffff0bc
    1ca4:	746e656d 	strbtvc	r6, [lr], #-1389	; 0xfffffa93
    1ca8:	554c2f73 	strbpl	r2, [ip, #-3955]	; 0xfffff08d
    1cac:	4b2f6b54 	blmi	bdca04 <FPU_CPACR_CP10+0x8dca04>
    1cb0:	656e7265 	strbvs	r7, [lr, #-613]!	; 0xfffffd9b
    1cb4:	6f532f6c 	svcvs	0x00532f6c
    1cb8:	65637275 	strbvs	r7, [r3, #-629]!	; 0xfffffd8b
    1cbc:	73752f73 	cmnvc	r5, #460	; 0x1cc
    1cc0:	5f007265 	svcpl	0x00007265
    1cc4:	4341535f 	movtmi	r5, #4959	; 0x135f
    1cc8:	5f4d5543 	svcpl	0x004d5543
    1ccc:	5f4e494d 	svcpl	0x004e494d
    1cd0:	2d28205f 	stccs	0, cr2, [r8, #-380]!	; 0xfffffe84
    1cd4:	50315830 	eorspl	r5, r1, r0, lsr r8
    1cd8:	2d4b4837 	stclcs	8, cr4, [fp, #-220]	; 0xffffff24
    1cdc:	50315830 	eorspl	r5, r1, r0, lsr r8
    1ce0:	294b4837 	stmdbcs	fp, {r0, r1, r2, r4, r5, fp, lr}^
    1ce4:	465f5f00 	ldrbmi	r5, [pc], -r0, lsl #30
    1ce8:	485f544c 	ldmdami	pc, {r2, r3, r6, sl, ip, lr}^	; <UNPREDICTABLE>
    1cec:	495f5341 	ldmdbmi	pc, {r0, r6, r8, r9, ip, lr}^	; <UNPREDICTABLE>
    1cf0:	4e49464e 	cdpmi	6, 4, cr4, cr9, cr14, {2}
    1cf4:	5f595449 	svcpl	0x00595449
    1cf8:	0031205f 	eorseq	r2, r1, pc, asr r0
    1cfc:	43575f5f 	cmpmi	r7, #380	; 0x17c
    1d00:	5f524148 	svcpl	0x00524148
    1d04:	5f4e494d 	svcpl	0x004e494d
    1d08:	5530205f 	ldrpl	r2, [r0, #-95]!	; 0xffffffa1
    1d0c:	555f5f00 	ldrbpl	r5, [pc, #-3840]	; e14 <SCB_AIRCR_PRIGROUP_MASK+0x714>
    1d10:	43434153 	movtmi	r4, #12627	; 0x3153
    1d14:	465f4d55 			; <UNDEFINED> instruction: 0x465f4d55
    1d18:	5f544942 	svcpl	0x00544942
    1d1c:	0038205f 	eorseq	r2, r8, pc, asr r0
    1d20:	444c5f5f 	strbmi	r5, [ip], #-3935	; 0xfffff0a1
    1d24:	4d5f4c42 	ldclmi	12, cr4, [pc, #-264]	; 1c24 <SCB_AIRCR_PRIGROUP_MASK+0x1524>
    1d28:	315f5841 	cmpcc	pc, r1, asr #16
    1d2c:	58455f30 	stmdapl	r5, {r4, r5, r8, r9, sl, fp, ip, lr}^
    1d30:	205f5f50 	subscs	r5, pc, r0, asr pc	; <UNPREDICTABLE>
    1d34:	00383033 	eorseq	r3, r8, r3, lsr r0
    1d38:	52415f5f 	subpl	r5, r1, #380	; 0x17c
    1d3c:	45465f4d 	strbmi	r5, [r6, #-3917]	; 0xfffff0b3
    1d40:	52555441 	subspl	r5, r5, #1090519040	; 0x41000000
    1d44:	49535f45 	ldmdbmi	r3, {r0, r2, r6, r8, r9, sl, fp, ip, lr}^
    1d48:	3233444d 	eorscc	r4, r3, #1291845632	; 0x4d000000
    1d4c:	5f003120 	svcpl	0x00003120
    1d50:	5f4f4e5f 	svcpl	0x004f4e5f
    1d54:	494c4e49 	stmdbmi	ip, {r0, r3, r6, r9, sl, fp, lr}^
    1d58:	5f5f454e 	svcpl	0x005f454e
    1d5c:	5f003120 	svcpl	0x00003120
    1d60:	4d52415f 	ldfmie	f4, [r2, #-380]	; 0xfffffe84
    1d64:	5343505f 	movtpl	r5, #12383	; 0x305f
    1d68:	5046565f 	subpl	r5, r6, pc, asr r6
    1d6c:	5f003120 	svcpl	0x00003120
    1d70:	4c4c555f 	cfstr64mi	mvdx5, [ip], {95}	; 0x5f
    1d74:	43415246 	movtmi	r5, #4678	; 0x1246
    1d78:	50455f54 	subpl	r5, r5, r4, asr pc
    1d7c:	4f4c4953 	svcmi	0x004c4953
    1d80:	205f5f4e 	subscs	r5, pc, lr, asr #30
    1d84:	50317830 	eorspl	r7, r1, r0, lsr r8
    1d88:	5534362d 	ldrpl	r3, [r4, #-1581]!	; 0xfffff9d3
    1d8c:	00524c4c 	subseq	r4, r2, ip, asr #24
    1d90:	45445f5f 	strbmi	r5, [r4, #-3935]	; 0xfffff0a1
    1d94:	5f343643 	svcpl	0x00343643
    1d98:	5f58414d 	svcpl	0x0058414d
    1d9c:	2e39205f 	mrccs	0, 1, r2, cr9, cr15, {2}
    1da0:	39393939 	ldmdbcc	r9!, {r0, r3, r4, r5, r8, fp, ip, sp}
    1da4:	39393939 	ldmdbcc	r9!, {r0, r3, r4, r5, r8, fp, ip, sp}
    1da8:	39393939 	ldmdbcc	r9!, {r0, r3, r4, r5, r8, fp, ip, sp}
    1dac:	45393939 	ldrmi	r3, [r9, #-2361]!	; 0xfffff6c7
    1db0:	44343833 	ldrtmi	r3, [r4], #-2099	; 0xfffff7cd
    1db4:	5f5f0044 	svcpl	0x005f0044
    1db8:	544e4955 	strbpl	r4, [lr], #-2389	; 0xfffff6ab
    1dbc:	5341465f 	movtpl	r4, #5727	; 0x165f
    1dc0:	5f323354 	svcpl	0x00323354
    1dc4:	5f58414d 	svcpl	0x0058414d
    1dc8:	7830205f 	ldmdavc	r0!, {r0, r1, r2, r3, r4, r6, sp}
    1dcc:	66666666 	strbtvs	r6, [r6], -r6, ror #12
    1dd0:	66666666 	strbtvs	r6, [r6], -r6, ror #12
    1dd4:	5f5f0055 	svcpl	0x005f0055
    1dd8:	4152464c 	cmpmi	r2, ip, asr #12
    1ddc:	4d5f5443 	cfldrdmi	mvd5, [pc, #-268]	; 1cd8 <SCB_AIRCR_PRIGROUP_MASK+0x15d8>
    1de0:	5f5f4e49 	svcpl	0x005f4e49
    1de4:	302d2820 	eorcc	r2, sp, r0, lsr #16
    1de8:	524c352e 	subpl	r3, ip, #192937984	; 0xb800000
    1dec:	352e302d 	strcc	r3, [lr, #-45]!	; 0xffffffd3
    1df0:	0029524c 	eoreq	r5, r9, ip, asr #4
    1df4:	54535f5f 	ldrbpl	r5, [r3], #-3935	; 0xfffff0a1
    1df8:	555f4344 	ldrbpl	r4, [pc, #-836]	; 1abc <SCB_AIRCR_PRIGROUP_MASK+0x13bc>
    1dfc:	315f4654 	cmpcc	pc, r4, asr r6	; <UNPREDICTABLE>
    1e00:	205f5f36 	subscs	r5, pc, r6, lsr pc	; <UNPREDICTABLE>
    1e04:	5f5f0031 	svcpl	0x005f0031
    1e08:	544e4955 	strbpl	r4, [lr], #-2389	; 0xfffff6ab
    1e0c:	5341465f 	movtpl	r4, #5727	; 0x165f
    1e10:	545f3854 	ldrbpl	r3, [pc], #-2132	; 1e18 <SCB_AIRCR_PRIGROUP_MASK+0x1718>
    1e14:	5f455059 	svcpl	0x00455059
    1e18:	6e75205f 	mrcvs	0, 3, r2, cr5, cr15, {2}
    1e1c:	6e676973 			; <UNDEFINED> instruction: 0x6e676973
    1e20:	69206465 	stmdbvs	r0!, {r0, r2, r5, r6, sl, sp, lr}
    1e24:	5f00746e 	svcpl	0x0000746e
    1e28:	5254505f 	subspl	r5, r4, #95	; 0x5f
    1e2c:	46464944 	strbmi	r4, [r6], -r4, asr #18
    1e30:	5059545f 	subspl	r5, r9, pc, asr r4
    1e34:	205f5f45 	subscs	r5, pc, r5, asr #30
    1e38:	00746e69 	rsbseq	r6, r4, r9, ror #28
    1e3c:	444c5f5f 	strbmi	r5, [ip], #-3935	; 0xfffff0a1
    1e40:	485f4c42 	ldmdami	pc, {r1, r6, sl, fp, lr}^	; <UNPREDICTABLE>
    1e44:	445f5341 	ldrbmi	r5, [pc], #-833	; 1e4c <SCB_AIRCR_PRIGROUP_MASK+0x174c>
    1e48:	524f4e45 	subpl	r4, pc, #1104	; 0x450
    1e4c:	205f5f4d 	subscs	r5, pc, sp, asr #30
    1e50:	5f5f0031 	svcpl	0x005f0031
    1e54:	544e4955 	strbpl	r4, [lr], #-2389	; 0xfffff6ab
    1e58:	41454c5f 	cmpmi	r5, pc, asr ip
    1e5c:	32335453 	eorscc	r5, r3, #1392508928	; 0x53000000
    1e60:	58414d5f 	stmdapl	r1, {r0, r1, r2, r3, r4, r6, r8, sl, fp, lr}^
    1e64:	30205f5f 	eorcc	r5, r0, pc, asr pc
    1e68:	66666678 			; <UNDEFINED> instruction: 0x66666678
    1e6c:	66666666 	strbtvs	r6, [r6], -r6, ror #12
    1e70:	004c5566 	subeq	r5, ip, r6, ror #10
    1e74:	43575f5f 	cmpmi	r7, #380	; 0x17c
    1e78:	5f524148 	svcpl	0x00524148
    1e7c:	45505954 	ldrbmi	r5, [r0, #-2388]	; 0xfffff6ac
    1e80:	75205f5f 	strvc	r5, [r0, #-3935]!	; 0xfffff0a1
    1e84:	6769736e 	strbvs	r7, [r9, -lr, ror #6]!
    1e88:	2064656e 	rsbcs	r6, r4, lr, ror #10
    1e8c:	00746e69 	rsbseq	r6, r4, r9, ror #28
    1e90:	43475f5f 	movtmi	r5, #32607	; 0x7f5f
    1e94:	54415f43 	strbpl	r5, [r1], #-3907	; 0xfffff0bd
    1e98:	43494d4f 	movtmi	r4, #40271	; 0x9d4f
    1e9c:	4148435f 	cmpmi	r8, pc, asr r3
    1ea0:	5f363152 	svcpl	0x00363152
    1ea4:	4f4c5f54 	svcmi	0x004c5f54
    1ea8:	465f4b43 	ldrbmi	r4, [pc], -r3, asr #22
    1eac:	20454552 	subcs	r4, r5, r2, asr r5
    1eb0:	5f5f0032 	svcpl	0x005f0032
    1eb4:	5f4c4244 	svcpl	0x004c4244
    1eb8:	49535045 	ldmdbmi	r3, {r0, r2, r6, ip, lr}^
    1ebc:	5f4e4f4c 	svcpl	0x004e4f4c
    1ec0:	2828205f 	stmdacs	r8!, {r0, r1, r2, r3, r4, r6, sp}
    1ec4:	62756f64 	rsbsvs	r6, r5, #100, 30	; 0x190
    1ec8:	3229656c 	eorcc	r6, r9, #108, 10	; 0x1b000000
    1ecc:	3032322e 	eorscc	r3, r2, lr, lsr #4
    1ed0:	30363434 	eorscc	r3, r6, r4, lsr r4
    1ed4:	35323934 	ldrcc	r3, [r2, #-2356]!	; 0xfffff6cc
    1ed8:	33313330 	teqcc	r1, #48, 6	; 0xc0000000
    1edc:	312d6531 			; <UNDEFINED> instruction: 0x312d6531
    1ee0:	00294c36 	eoreq	r4, r9, r6, lsr ip
    1ee4:	49555f5f 	ldmdbmi	r5, {r0, r1, r2, r3, r4, r6, r8, r9, sl, fp, ip, lr}^
    1ee8:	3233544e 	eorscc	r5, r3, #1308622848	; 0x4e000000
    1eec:	6328435f 			; <UNDEFINED> instruction: 0x6328435f
    1ef0:	20632029 	rsbcs	r2, r3, r9, lsr #32
    1ef4:	55202323 	strpl	r2, [r0, #-803]!	; 0xfffffcdd
    1ef8:	5f5f004c 	svcpl	0x005f004c
    1efc:	5f414855 	svcpl	0x00414855
    1f00:	54494246 	strbpl	r4, [r9], #-582	; 0xfffffdba
    1f04:	38205f5f 	stmdacc	r0!, {r0, r1, r2, r3, r4, r6, r8, r9, sl, fp, ip, lr}
    1f08:	415f5f00 	cmpmi	pc, r0, lsl #30
    1f0c:	494d4f54 	stmdbmi	sp, {r2, r4, r6, r8, r9, sl, fp, lr}^
    1f10:	4f435f43 	svcmi	0x00435f43
    1f14:	4d55534e 	ldclmi	3, cr5, [r5, #-312]	; 0xfffffec8
    1f18:	00312045 	eorseq	r2, r1, r5, asr #32
    1f1c:	52415f5f 	subpl	r5, r1, #380	; 0x17c
    1f20:	50465f4d 	subpl	r5, r6, sp, asr #30
    1f24:	5f003420 	svcpl	0x00003420
    1f28:	4345445f 	movtmi	r4, #21599	; 0x545f
    1f2c:	5f383231 	svcpl	0x00383231
    1f30:	4e425553 	mcrmi	5, 2, r5, cr2, cr3, {2}
    1f34:	414d524f 	cmpmi	sp, pc, asr #4
    1f38:	494d5f4c 	stmdbmi	sp, {r2, r3, r6, r8, r9, sl, fp, ip, lr}^
    1f3c:	205f5f4e 	subscs	r5, pc, lr, asr #30
    1f40:	30302e30 	eorscc	r2, r0, r0, lsr lr
    1f44:	30303030 	eorscc	r3, r0, r0, lsr r0
    1f48:	30303030 	eorscc	r3, r0, r0, lsr r0
    1f4c:	30303030 	eorscc	r3, r0, r0, lsr r0
    1f50:	30303030 	eorscc	r3, r0, r0, lsr r0
    1f54:	30303030 	eorscc	r3, r0, r0, lsr r0
    1f58:	30303030 	eorscc	r3, r0, r0, lsr r0
    1f5c:	30303030 	eorscc	r3, r0, r0, lsr r0
    1f60:	45313030 	ldrmi	r3, [r1, #-48]!	; 0xffffffd0
    1f64:	3431362d 	ldrtcc	r3, [r1], #-1581	; 0xfffff9d3
    1f68:	004c4433 	subeq	r4, ip, r3, lsr r4
    1f6c:	54535f5f 	ldrbpl	r5, [r3], #-3935	; 0xfffff0a1
    1f70:	555f4344 	ldrbpl	r4, [pc, #-836]	; 1c34 <SCB_AIRCR_PRIGROUP_MASK+0x1534>
    1f74:	335f4654 	cmpcc	pc, #84, 12	; 0x5400000
    1f78:	205f5f32 	subscs	r5, pc, r2, lsr pc	; <UNPREDICTABLE>
    1f7c:	5f5f0031 	svcpl	0x005f0031
    1f80:	544e4955 	strbpl	r4, [lr], #-2389	; 0xfffff6ab
    1f84:	545f3631 	ldrbpl	r3, [pc], #-1585	; 1f8c <SCB_AIRCR_PRIGROUP_MASK+0x188c>
    1f88:	5f455059 	svcpl	0x00455059
    1f8c:	6873205f 	ldmdavs	r3!, {r0, r1, r2, r3, r4, r6, sp}^
    1f90:	2074726f 	rsbscs	r7, r4, pc, ror #4
    1f94:	69736e75 	ldmdbvs	r3!, {r0, r2, r4, r5, r6, r9, sl, fp, sp, lr}^
    1f98:	64656e67 	strbtvs	r6, [r5], #-3687	; 0xfffff199
    1f9c:	746e6920 	strbtvc	r6, [lr], #-2336	; 0xfffff6e0
    1fa0:	555f5f00 	ldrbpl	r5, [pc, #-3840]	; 10a8 <SCB_AIRCR_PRIGROUP_MASK+0x9a8>
    1fa4:	43415246 	movtmi	r5, #4678	; 0x1246
    1fa8:	42495f54 	submi	r5, r9, #84, 30	; 0x150
    1fac:	5f5f5449 	svcpl	0x005f5449
    1fb0:	5f003020 	svcpl	0x00003020
    1fb4:	4341535f 	movtmi	r5, #4959	; 0x135f
    1fb8:	5f4d5543 	svcpl	0x004d5543
    1fbc:	54494246 	strbpl	r4, [r9], #-582	; 0xfffffdba
    1fc0:	37205f5f 			; <UNDEFINED> instruction: 0x37205f5f
    1fc4:	415f5f00 	cmpmi	pc, r0, lsl #30
    1fc8:	465f4d52 			; <UNDEFINED> instruction: 0x465f4d52
    1fcc:	55544145 	ldrbpl	r4, [r4, #-325]	; 0xfffffebb
    1fd0:	445f4552 	ldrbmi	r4, [pc], #-1362	; 1fd8 <SCB_AIRCR_PRIGROUP_MASK+0x18d8>
    1fd4:	31205053 	qsubcc	r5, r3, r0
    1fd8:	445f5f00 	ldrbmi	r5, [pc], #-3840	; 1fe0 <SCB_AIRCR_PRIGROUP_MASK+0x18e0>
    1fdc:	32334345 	eorscc	r4, r3, #335544321	; 0x14000001
    1fe0:	4255535f 	subsmi	r5, r5, #2080374785	; 0x7c000001
    1fe4:	4d524f4e 	ldclmi	15, cr4, [r2, #-312]	; 0xfffffec8
    1fe8:	4d5f4c41 	ldclmi	12, cr4, [pc, #-260]	; 1eec <SCB_AIRCR_PRIGROUP_MASK+0x17ec>
    1fec:	5f5f4e49 	svcpl	0x005f4e49
    1ff0:	302e3020 	eorcc	r3, lr, r0, lsr #32
    1ff4:	30303030 	eorscc	r3, r0, r0, lsr r0
    1ff8:	392d4531 	pushcc	{r0, r4, r5, r8, sl, lr}
    1ffc:	00464435 	subeq	r4, r6, r5, lsr r4
    2000:	58475f5f 	stmdapl	r7, {r0, r1, r2, r3, r4, r6, r8, r9, sl, fp, ip, lr}^
    2004:	42415f58 	submi	r5, r1, #88, 30	; 0x160
    2008:	45565f49 	ldrbmi	r5, [r6, #-3913]	; 0xfffff0b7
    200c:	4f495352 	svcmi	0x00495352
    2010:	3031204e 	eorscc	r2, r1, lr, asr #32
    2014:	5f003031 	svcpl	0x00003031
    2018:	4343475f 	movtmi	r4, #14175	; 0x375f
    201c:	5641485f 			; <UNDEFINED> instruction: 0x5641485f
    2020:	59535f45 	ldmdbpl	r3, {r0, r2, r6, r8, r9, sl, fp, ip, lr}^
    2024:	435f434e 	cmpmi	pc, #939524097	; 0x38000001
    2028:	41504d4f 	cmpmi	r0, pc, asr #26
    202c:	415f4552 	cmpmi	pc, r2, asr r5	; <UNPREDICTABLE>
    2030:	535f444e 	cmppl	pc, #1308622848	; 0x4e000000
    2034:	5f504157 	svcpl	0x00504157
    2038:	00312032 	eorseq	r2, r1, r2, lsr r0
    203c:	52415f5f 	subpl	r5, r1, #380	; 0x17c
    2040:	45465f4d 	strbmi	r5, [r6, #-3917]	; 0xfffff0b3
    2044:	52555441 	subspl	r5, r5, #1090519040	; 0x41000000
    2048:	4e555f45 	cdpmi	15, 5, cr5, cr5, cr5, {2}
    204c:	47494c41 	strbmi	r4, [r9, -r1, asr #24]
    2050:	2044454e 	subcs	r4, r4, lr, asr #10
    2054:	5f5f0031 	svcpl	0x005f0031
    2058:	5f736168 	svcpl	0x00736168
    205c:	6c636e69 	stclvs	14, cr6, [r3], #-420	; 0xfffffe5c
    2060:	28656475 	stmdacs	r5!, {r0, r2, r4, r5, r6, sl, sp, lr}^
    2064:	29525453 	ldmdbcs	r2, {r0, r1, r4, r6, sl, ip, lr}^
    2068:	685f5f20 	ldmdavs	pc, {r5, r8, r9, sl, fp, ip, lr}^	; <UNPREDICTABLE>
    206c:	695f7361 	ldmdbvs	pc, {r0, r5, r6, r8, r9, ip, sp, lr}^	; <UNPREDICTABLE>
    2070:	756c636e 	strbvc	r6, [ip, #-878]!	; 0xfffffc92
    2074:	5f5f6564 	svcpl	0x005f6564
    2078:	52545328 	subspl	r5, r4, #40, 6	; 0xa0000000
    207c:	5f5f0029 	svcpl	0x005f0029
    2080:	52414843 	subpl	r4, r1, #4390912	; 0x430000
    2084:	5449425f 	strbpl	r4, [r9], #-607	; 0xfffffda1
    2088:	38205f5f 	stmdacc	r0!, {r0, r1, r2, r3, r4, r6, r8, r9, sl, fp, ip, lr}
    208c:	535f5f00 	cmppl	pc, #0, 30
    2090:	415f4749 	cmpmi	pc, r9, asr #14
    2094:	494d4f54 	stmdbmi	sp, {r2, r4, r6, r8, r9, sl, fp, lr}^
    2098:	494d5f43 	stmdbmi	sp, {r0, r1, r6, r8, r9, sl, fp, ip, lr}^
    209c:	205f5f4e 	subscs	r5, pc, lr, asr #30
    20a0:	5f5f2d28 	svcpl	0x005f2d28
    20a4:	5f474953 	svcpl	0x00474953
    20a8:	4d4f5441 	cfstrdmi	mvd5, [pc, #-260]	; 1fac <SCB_AIRCR_PRIGROUP_MASK+0x18ac>
    20ac:	4d5f4349 	ldclmi	3, cr4, [pc, #-292]	; 1f90 <SCB_AIRCR_PRIGROUP_MASK+0x1890>
    20b0:	5f5f5841 	svcpl	0x005f5841
    20b4:	31202d20 			; <UNDEFINED> instruction: 0x31202d20
    20b8:	5f5f0029 	svcpl	0x005f0029
    20bc:	43414c55 	movtmi	r4, #7253	; 0x1c55
    20c0:	5f4d5543 	svcpl	0x004d5543
    20c4:	5f4e494d 	svcpl	0x004e494d
    20c8:	2e30205f 	mrccs	0, 1, r2, cr0, cr15, {2}
    20cc:	4b4c5530 	blmi	1317594 <FPU_ENABLE_CPACR_VALUE+0x417594>
    20d0:	545f5f00 	ldrbpl	r5, [pc], #-3840	; 20d8 <SCB_AIRCR_PRIGROUP_MASK+0x19d8>
    20d4:	42465f41 	submi	r5, r6, #260	; 0x104
    20d8:	5f5f5449 	svcpl	0x005f5449
    20dc:	00333620 	eorseq	r3, r3, r0, lsr #12
    20e0:	45445f5f 	strbmi	r5, [r4, #-3935]	; 0xfffff0a1
    20e4:	5f323343 	svcpl	0x00323343
    20e8:	49535045 	ldmdbmi	r3, {r0, r2, r6, ip, lr}^
    20ec:	5f4e4f4c 	svcpl	0x004e4f4c
    20f0:	4531205f 	ldrmi	r2, [r1, #-95]!	; 0xffffffa1
    20f4:	4644362d 	strbmi	r3, [r4], -sp, lsr #12
    20f8:	465f5f00 	ldrbmi	r5, [pc], -r0, lsl #30
    20fc:	54434152 	strbpl	r4, [r3], #-338	; 0xfffffeae
    2100:	4e494d5f 	mcrmi	13, 2, r4, cr9, cr15, {2}
    2104:	28205f5f 	stmdacs	r0!, {r0, r1, r2, r3, r4, r6, r8, r9, sl, fp, ip, lr}
    2108:	352e302d 	strcc	r3, [lr, #-45]!	; 0xffffffd3
    210c:	2e302d52 	mrccs	13, 1, r2, cr0, cr2, {2}
    2110:	00295235 	eoreq	r5, r9, r5, lsr r2
    2114:	4e495f5f 	mcrmi	15, 2, r5, cr9, cr15, {2}
    2118:	41465f54 	cmpmi	r6, r4, asr pc
    211c:	32335453 	eorscc	r5, r3, #1392508928	; 0x53000000
    2120:	5059545f 	subspl	r5, r9, pc, asr r4
    2124:	205f5f45 	subscs	r5, pc, r5, asr #30
    2128:	00746e69 	rsbseq	r6, r4, r9, ror #28
    212c:	52415f5f 	subpl	r5, r1, #380	; 0x17c
    2130:	45465f4d 	strbmi	r5, [r6, #-3917]	; 0xfffff0b3
    2134:	52555441 	subspl	r5, r5, #1090519040	; 0x41000000
    2138:	4d465f45 	stclmi	15, cr5, [r6, #-276]	; 0xfffffeec
    213c:	00312041 	eorseq	r2, r1, r1, asr #32
    2140:	49555f5f 	ldmdbmi	r5, {r0, r1, r2, r3, r4, r6, r8, r9, sl, fp, ip, lr}^
    2144:	465f544e 	ldrbmi	r5, [pc], -lr, asr #8
    2148:	31545341 	cmpcc	r4, r1, asr #6
    214c:	59545f36 	ldmdbpl	r4, {r1, r2, r4, r5, r8, r9, sl, fp, ip, lr}^
    2150:	5f5f4550 	svcpl	0x005f4550
    2154:	736e7520 	cmnvc	lr, #32, 10	; 0x8000000
    2158:	656e6769 	strbvs	r6, [lr, #-1897]!	; 0xfffff897
    215c:	6e692064 	cdpvs	0, 6, cr2, cr9, cr4, {3}
    2160:	5f5f0074 	svcpl	0x005f0074
    2164:	43415246 	movtmi	r5, #4678	; 0x1246
    2168:	42495f54 	submi	r5, r9, #84, 30	; 0x150
    216c:	5f5f5449 	svcpl	0x005f5449
    2170:	5f003020 	svcpl	0x00003020
    2174:	464c4c5f 			; <UNDEFINED> instruction: 0x464c4c5f
    2178:	54434152 	strbpl	r4, [r3], #-338	; 0xfffffeae
    217c:	4942495f 	stmdbmi	r2, {r0, r1, r2, r3, r4, r6, r8, fp, lr}^
    2180:	205f5f54 	subscs	r5, pc, r4, asr pc	; <UNPREDICTABLE>
    2184:	5f5f0030 	svcpl	0x005f0030
    2188:	43415246 	movtmi	r5, #4678	; 0x1246
    218c:	414d5f54 	cmpmi	sp, r4, asr pc
    2190:	205f5f58 	subscs	r5, pc, r8, asr pc	; <UNPREDICTABLE>
    2194:	46375830 			; <UNDEFINED> instruction: 0x46375830
    2198:	2d504646 	ldclcs	6, cr4, [r0, #-280]	; 0xfffffee8
    219c:	00523531 	subseq	r3, r2, r1, lsr r5
    21a0:	45565f5f 	ldrbmi	r5, [r6, #-3935]	; 0xfffff0a1
    21a4:	4f495352 	svcmi	0x00495352
    21a8:	205f5f4e 	subscs	r5, pc, lr, asr #30
    21ac:	332e3622 			; <UNDEFINED> instruction: 0x332e3622
    21b0:	3220312e 	eorcc	r3, r0, #-2147483637	; 0x8000000b
    21b4:	30373130 	eorscc	r3, r7, r0, lsr r1
    21b8:	22303236 	eorscs	r3, r0, #1610612739	; 0x60000003
    21bc:	495f5f00 	ldmdbmi	pc, {r8, r9, sl, fp, ip, lr}^	; <UNPREDICTABLE>
    21c0:	5f38544e 	svcpl	0x0038544e
    21c4:	5f58414d 	svcpl	0x0058414d
    21c8:	7830205f 	ldmdavc	r0!, {r0, r1, r2, r3, r4, r6, sp}
    21cc:	5f006637 	svcpl	0x00006637
    21d0:	414c4c5f 	cmpmi	ip, pc, asr ip
    21d4:	4d554343 	ldclmi	3, cr4, [r5, #-268]	; 0xfffffef4
    21d8:	4942465f 	stmdbmi	r2, {r0, r1, r2, r3, r4, r6, r9, sl, lr}^
    21dc:	205f5f54 	subscs	r5, pc, r4, asr pc	; <UNPREDICTABLE>
    21e0:	5f003133 	svcpl	0x00003133
    21e4:	4c42445f 	cfstrdmi	mvd4, [r2], {95}	; 0x5f
    21e8:	5341485f 	movtpl	r4, #6239	; 0x185f
    21ec:	4955515f 	ldmdbmi	r5, {r0, r1, r2, r3, r4, r6, r8, ip, lr}^
    21f0:	4e5f5445 	cdpmi	4, 5, cr5, cr15, cr5, {2}
    21f4:	5f5f4e41 	svcpl	0x005f4e41
    21f8:	5f003120 	svcpl	0x00003120
    21fc:	544c465f 	strbpl	r4, [ip], #-1631	; 0xfffff9a1
    2200:	4e494d5f 	mcrmi	13, 2, r4, cr9, cr15, {2}
    2204:	5f30315f 	svcpl	0x0030315f
    2208:	5f505845 	svcpl	0x00505845
    220c:	2d28205f 	stccs	0, cr2, [r8, #-380]!	; 0xfffffe84
    2210:	00293733 	eoreq	r3, r9, r3, lsr r7
    2214:	4c555f5f 	mrrcmi	15, 5, r5, r5, cr15	; <UNPREDICTABLE>
    2218:	4152464c 	cmpmi	r2, ip, asr #12
    221c:	465f5443 	ldrbmi	r5, [pc], -r3, asr #8
    2220:	5f544942 	svcpl	0x00544942
    2224:	3436205f 	ldrtcc	r2, [r6], #-95	; 0xffffffa1
    2228:	415f5f00 	cmpmi	pc, r0, lsl #30
    222c:	494d4f54 	stmdbmi	sp, {r2, r4, r6, r8, r9, sl, fp, lr}^
    2230:	43415f43 	movtmi	r5, #8003	; 0x1f43
    2234:	45525f51 	ldrbmi	r5, [r2, #-3921]	; 0xfffff0af
    2238:	0034204c 	eorseq	r2, r4, ip, asr #32
    223c:	4c4c5f5f 	mcrrmi	15, 5, r5, ip, cr15
    2240:	43415246 	movtmi	r5, #4678	; 0x1246
    2244:	494d5f54 	stmdbmi	sp, {r2, r4, r6, r8, r9, sl, fp, ip, lr}^
    2248:	205f5f4e 	subscs	r5, pc, lr, asr #30
    224c:	2e302d28 	cdpcs	13, 3, cr2, cr0, cr8, {1}
    2250:	524c4c35 	subpl	r4, ip, #13568	; 0x3500
    2254:	352e302d 	strcc	r3, [lr, #-45]!	; 0xffffffd3
    2258:	29524c4c 	ldmdbcs	r2, {r2, r3, r6, sl, fp, lr}^
    225c:	415f5f00 	cmpmi	pc, r0, lsl #30
    2260:	4e5f4d52 	mrcmi	13, 2, r4, cr15, cr2, {2}
    2264:	004e4f45 	subeq	r4, lr, r5, asr #30
    2268:	4c4c5f5f 	mcrrmi	15, 5, r5, ip, cr15
    226c:	55434341 	strbpl	r4, [r3, #-833]	; 0xfffffcbf
    2270:	42495f4d 	submi	r5, r9, #308	; 0x134
    2274:	5f5f5449 	svcpl	0x005f5449
    2278:	00323320 	eorseq	r3, r2, r0, lsr #6
    227c:	414c5f5f 	cmpmi	ip, pc, asr pc
    2280:	4d554343 	ldclmi	3, cr4, [r5, #-268]	; 0xfffffef4
    2284:	4942465f 	stmdbmi	r2, {r0, r1, r2, r3, r4, r6, r9, sl, lr}^
    2288:	205f5f54 	subscs	r5, pc, r4, asr pc	; <UNPREDICTABLE>
    228c:	5f003133 	svcpl	0x00003133
    2290:	4c4c555f 	cfstr64mi	mvdx5, [ip], {95}	; 0x5f
    2294:	55434341 	strbpl	r4, [r3, #-833]	; 0xfffffcbf
    2298:	414d5f4d 	cmpmi	sp, sp, asr #30
    229c:	205f5f58 	subscs	r5, pc, r8, asr pc	; <UNPREDICTABLE>
    22a0:	46465830 			; <UNDEFINED> instruction: 0x46465830
    22a4:	46464646 	strbmi	r4, [r6], -r6, asr #12
    22a8:	46464646 	strbmi	r4, [r6], -r6, asr #12
    22ac:	46464646 	strbmi	r4, [r6], -r6, asr #12
    22b0:	2d504646 	ldclcs	6, cr4, [r0, #-280]	; 0xfffffee8
    22b4:	4c553233 	lfmmi	f3, 2, [r5], {51}	; 0x33
    22b8:	5f004b4c 	svcpl	0x00004b4c
    22bc:	4153555f 	cmpmi	r3, pc, asr r5
    22c0:	4d554343 	ldclmi	3, cr4, [r5, #-268]	; 0xfffffef4
    22c4:	4e494d5f 	mcrmi	13, 2, r4, cr9, cr15, {2}
    22c8:	30205f5f 	eorcc	r5, r0, pc, asr pc
    22cc:	4855302e 	ldmdami	r5, {r1, r2, r3, r5, ip, sp}^
    22d0:	5f5f004b 	svcpl	0x005f004b
    22d4:	494e4946 	stmdbmi	lr, {r1, r2, r6, r8, fp, lr}^
    22d8:	4d5f4554 	cfldr64mi	mvdx4, [pc, #-336]	; 2190 <SCB_AIRCR_PRIGROUP_MASK+0x1a90>
    22dc:	5f485441 	svcpl	0x00485441
    22e0:	594c4e4f 	stmdbpl	ip, {r0, r1, r2, r3, r6, r9, sl, fp, lr}^
    22e4:	30205f5f 	eorcc	r5, r0, pc, asr pc
    22e8:	4c5f5f00 	mrrcmi	15, 0, r5, pc, cr0	; <UNPREDICTABLE>
    22ec:	5f474e4f 	svcpl	0x00474e4f
    22f0:	5f58414d 	svcpl	0x0058414d
    22f4:	7830205f 	ldmdavc	r0!, {r0, r1, r2, r3, r4, r6, sp}
    22f8:	66666637 			; <UNDEFINED> instruction: 0x66666637
    22fc:	66666666 	strbtvs	r6, [r6], -r6, ror #12
    2300:	5f5f004c 	svcpl	0x005f004c
    2304:	43434155 	movtmi	r4, #12629	; 0x3155
    2308:	4d5f4d55 	ldclmi	13, cr4, [pc, #-340]	; 21bc <SCB_AIRCR_PRIGROUP_MASK+0x1abc>
    230c:	5f5f4e49 	svcpl	0x005f4e49
    2310:	302e3020 	eorcc	r3, lr, r0, lsr #32
    2314:	5f004b55 	svcpl	0x00004b55
    2318:	4153555f 	cmpmi	r3, pc, asr r5
    231c:	4942465f 	stmdbmi	r2, {r0, r1, r2, r3, r4, r6, r9, sl, lr}^
    2320:	205f5f54 	subscs	r5, pc, r4, asr pc	; <UNPREDICTABLE>
    2324:	5f003631 	svcpl	0x00003631
    2328:	4553555f 	ldrbmi	r5, [r3, #-1375]	; 0xfffffaa1
    232c:	414c5f52 	cmpmi	ip, r2, asr pc
    2330:	5f4c4542 	svcpl	0x004c4542
    2334:	46455250 			; <UNDEFINED> instruction: 0x46455250
    2338:	5f5f5849 	svcpl	0x005f5849
    233c:	5f5f0020 	svcpl	0x005f0020
    2340:	31434544 	cmpcc	r3, r4, asr #10
    2344:	4d5f3832 	ldclmi	8, cr3, [pc, #-200]	; 2284 <SCB_AIRCR_PRIGROUP_MASK+0x1b84>
    2348:	5f5f4e49 	svcpl	0x005f4e49
    234c:	2d453120 	stfcse	f3, [r5, #-128]	; 0xffffff80
    2350:	33343136 	teqcc	r4, #-2147483635	; 0x8000000d
    2354:	5f004c44 	svcpl	0x00004c44
    2358:	414c4c5f 	cmpmi	ip, pc, asr ip
    235c:	4d554343 	ldclmi	3, cr4, [r5, #-268]	; 0xfffffef4
    2360:	5350455f 	cmppl	r0, #398458880	; 0x17c00000
    2364:	4e4f4c49 	cdpmi	12, 4, cr4, cr15, cr9, {2}
    2368:	30205f5f 	eorcc	r5, r0, pc, asr pc
    236c:	2d503178 	ldfcse	f3, [r0, #-480]	; 0xfffffe20
    2370:	4c4c3133 	stfmie	f3, [ip], {51}	; 0x33
    2374:	5f5f004b 	svcpl	0x005f004b
    2378:	544e4955 	strbpl	r4, [lr], #-2389	; 0xfffff6ab
    237c:	5341465f 	movtpl	r4, #5727	; 0x165f
    2380:	5f343654 	svcpl	0x00343654
    2384:	45505954 	ldrbmi	r5, [r0, #-2388]	; 0xfffff6ac
    2388:	6c205f5f 	stcvs	15, cr5, [r0], #-380	; 0xfffffe84
    238c:	20676e6f 	rsbcs	r6, r7, pc, ror #28
    2390:	676e6f6c 	strbvs	r6, [lr, -ip, ror #30]!
    2394:	736e7520 	cmnvc	lr, #32, 10	; 0x8000000
    2398:	656e6769 	strbvs	r6, [lr, #-1897]!	; 0xfffff897
    239c:	6e692064 	cdpvs	0, 6, cr2, cr9, cr4, {3}
    23a0:	5f5f0074 	svcpl	0x005f0074
    23a4:	544e4955 	strbpl	r4, [lr], #-2389	; 0xfffff6ab
    23a8:	28435f38 	stmdacs	r3, {r3, r4, r5, r8, r9, sl, fp, ip, lr}^
    23ac:	63202963 			; <UNDEFINED> instruction: 0x63202963
    23b0:	415f5f00 	cmpmi	pc, r0, lsl #30
    23b4:	465f4d52 			; <UNDEFINED> instruction: 0x465f4d52
    23b8:	55544145 	ldrbpl	r4, [r4, #-325]	; 0xfffffebb
    23bc:	515f4552 	cmppl	pc, r2, asr r5	; <UNPREDICTABLE>
    23c0:	584d4452 	stmdapl	sp, {r1, r4, r6, sl, lr}^
    23c4:	555f5f00 	ldrbpl	r5, [pc, #-3840]	; 14cc <SCB_AIRCR_PRIGROUP_MASK+0xdcc>
    23c8:	5f544e49 	svcpl	0x00544e49
    23cc:	5341454c 	movtpl	r4, #5452	; 0x154c
    23d0:	545f3854 	ldrbpl	r3, [pc], #-2132	; 23d8 <SCB_AIRCR_PRIGROUP_MASK+0x1cd8>
    23d4:	5f455059 	svcpl	0x00455059
    23d8:	6e75205f 	mrcvs	0, 3, r2, cr5, cr15, {2}
    23dc:	6e676973 			; <UNDEFINED> instruction: 0x6e676973
    23e0:	63206465 			; <UNDEFINED> instruction: 0x63206465
    23e4:	00726168 	rsbseq	r6, r2, r8, ror #2
    23e8:	4e495f5f 	mcrmi	15, 2, r5, cr9, cr15, {2}
    23ec:	5f323354 	svcpl	0x00323354
    23f0:	5f58414d 	svcpl	0x0058414d
    23f4:	7830205f 	ldmdavc	r0!, {r0, r1, r2, r3, r4, r6, sp}
    23f8:	66666637 			; <UNDEFINED> instruction: 0x66666637
    23fc:	66666666 	strbtvs	r6, [r6], -r6, ror #12
    2400:	5f5f004c 	svcpl	0x005f004c
    2404:	5f434347 	svcpl	0x00434347
    2408:	45564148 	ldrbmi	r4, [r6, #-328]	; 0xfffffeb8
    240c:	4e59535f 	mrcmi	3, 2, r5, cr9, cr15, {2}
    2410:	4f435f43 	svcmi	0x00435f43
    2414:	5241504d 	subpl	r5, r1, #77	; 0x4d
    2418:	4e415f45 	cdpmi	15, 4, cr5, cr1, cr5, {2}
    241c:	57535f44 	ldrbpl	r5, [r3, -r4, asr #30]
    2420:	315f5041 	cmpcc	pc, r1, asr #32
    2424:	5f003120 	svcpl	0x00003120
    2428:	4343415f 	movtmi	r4, #12639	; 0x315f
    242c:	4d5f4d55 	ldclmi	13, cr4, [pc, #-340]	; 22e0 <SCB_AIRCR_PRIGROUP_MASK+0x1be0>
    2430:	5f5f4e49 	svcpl	0x005f4e49
    2434:	302d2820 	eorcc	r2, sp, r0, lsr #16
    2438:	31503158 	cmpcc	r0, r8, asr r1
    243c:	302d4b35 	eorcc	r4, sp, r5, lsr fp
    2440:	31503158 	cmpcc	r0, r8, asr r1
    2444:	00294b35 	eoreq	r4, r9, r5, lsr fp
    2448:	52415f5f 	subpl	r5, r1, #380	; 0x17c
    244c:	52415f4d 	subpl	r5, r1, #308	; 0x134
    2450:	375f4843 	ldrbcc	r4, [pc, -r3, asr #16]
    2454:	5f5f4d45 	svcpl	0x005f4d45
    2458:	5f003120 	svcpl	0x00003120
    245c:	544e495f 	strbpl	r4, [lr], #-2399	; 0xfffff6a1
    2460:	41454c5f 	cmpmi	r5, pc, asr ip
    2464:	5f385453 	svcpl	0x00385453
    2468:	5f58414d 	svcpl	0x0058414d
    246c:	7830205f 	ldmdavc	r0!, {r0, r1, r2, r3, r4, r6, sp}
    2470:	5f006637 	svcpl	0x00006637
    2474:	4d52415f 	ldfmie	f4, [r2, #-380]	; 0xfffffe84
    2478:	5a49535f 	bpl	12571fc <FPU_ENABLE_CPACR_VALUE+0x3571fc>
    247c:	5f464f45 	svcpl	0x00464f45
    2480:	41484357 	cmpmi	r8, r7, asr r3
    2484:	20545f52 	subscs	r5, r4, r2, asr pc
    2488:	5f5f0034 	svcpl	0x005f0034
    248c:	36434544 	strbcc	r4, [r3], -r4, asr #10
    2490:	494d5f34 	stmdbmi	sp, {r2, r4, r5, r8, r9, sl, fp, ip, lr}^
    2494:	205f5f4e 	subscs	r5, pc, lr, asr #30
    2498:	332d4531 			; <UNDEFINED> instruction: 0x332d4531
    249c:	44443338 	strbmi	r3, [r4], #-824	; 0xfffffcc8
    24a0:	445f5f00 	ldrbmi	r5, [pc], #-3840	; 24a8 <SCB_AIRCR_PRIGROUP_MASK+0x1da8>
    24a4:	4d5f4c42 	ldclmi	12, cr4, [pc, #-264]	; 23a4 <SCB_AIRCR_PRIGROUP_MASK+0x1ca4>
    24a8:	315f4e49 	cmpcc	pc, r9, asr #28
    24ac:	58455f30 	stmdapl	r5, {r4, r5, r8, r9, sl, fp, ip, lr}^
    24b0:	205f5f50 	subscs	r5, pc, r0, asr pc	; <UNPREDICTABLE>
    24b4:	30332d28 	eorscc	r2, r3, r8, lsr #26
    24b8:	5f002937 	svcpl	0x00002937
    24bc:	52464c5f 	subpl	r4, r6, #24320	; 0x5f00
    24c0:	5f544341 	svcpl	0x00544341
    24c4:	54494246 	strbpl	r4, [r9], #-582	; 0xfffffdba
    24c8:	33205f5f 			; <UNDEFINED> instruction: 0x33205f5f
    24cc:	5f5f0031 	svcpl	0x005f0031
    24d0:	43554e47 	cmpmi	r5, #1136	; 0x470
    24d4:	4454535f 	ldrbmi	r5, [r4], #-863	; 0xfffffca1
    24d8:	4e495f43 	cdpmi	15, 4, cr5, cr9, cr3, {2}
    24dc:	454e494c 	strbmi	r4, [lr, #-2380]	; 0xfffff6b4
    24e0:	31205f5f 			; <UNDEFINED> instruction: 0x31205f5f
    24e4:	555f5f00 	ldrbpl	r5, [pc, #-3840]	; 15ec <SCB_AIRCR_PRIGROUP_MASK+0xeec>
    24e8:	4152464c 	cmpmi	r2, ip, asr #12
    24ec:	4d5f5443 	cfldrdmi	mvd5, [pc, #-268]	; 23e8 <SCB_AIRCR_PRIGROUP_MASK+0x1ce8>
    24f0:	5f5f5841 	svcpl	0x005f5841
    24f4:	46583020 	ldrbmi	r3, [r8], -r0, lsr #32
    24f8:	46464646 	strbmi	r4, [r6], -r6, asr #12
    24fc:	50464646 	subpl	r4, r6, r6, asr #12
    2500:	5532332d 	ldrpl	r3, [r2, #-813]!	; 0xfffffcd3
    2504:	5200524c 	andpl	r5, r0, #76, 4	; 0xc0000004
    2508:	485f4343 	ldmdami	pc, {r0, r1, r6, r8, r9, lr}^	; <UNPREDICTABLE>
    250c:	425f4553 	subsmi	r4, pc, #348127232	; 0x14c00000
    2510:	5f455341 	svcpl	0x00455341
    2514:	51455246 	cmppl	r5, r6, asr #4
    2518:	52003020 	andpl	r3, r0, #32
    251c:	435f4343 	cmpmi	pc, #201326593	; 0xc000001
    2520:	5f524746 	svcpl	0x00524746
    2524:	4d5f5753 	ldclmi	7, cr5, [pc, #-332]	; 23e0 <SCB_AIRCR_PRIGROUP_MASK+0x1ce0>
    2528:	204b5341 	subcs	r5, fp, r1, asr #6
    252c:	30307830 	eorscc	r7, r0, r0, lsr r8
    2530:	30303030 	eorscc	r3, r0, r0, lsr r0
    2534:	52003330 	andpl	r3, r0, #48, 6	; 0xc0000000
    2538:	485f4343 	ldmdami	pc, {r0, r1, r6, r8, r9, lr}^	; <UNPREDICTABLE>
    253c:	425f4953 	subsmi	r4, pc, #1359872	; 0x14c000
    2540:	5f455341 	svcpl	0x00455341
    2544:	51455246 	cmppl	r5, r6, asr #4
    2548:	30363120 	eorscc	r3, r6, r0, lsr #2
    254c:	30303030 	eorscc	r3, r0, r0, lsr r0
    2550:	5f5f0030 	svcpl	0x005f0030
    2554:	52414f42 	subpl	r4, r1, #264	; 0x108
    2558:	54535f44 	ldrbpl	r5, [r3], #-3908	; 0xfffff0bc
    255c:	4632334d 	ldrtmi	r3, [r2], -sp, asr #6
    2560:	52313034 	eorspl	r3, r1, #52	; 0x34
    2564:	53425f45 	movtpl	r5, #12101	; 0x2f45
    2568:	4c465f50 	mcrrmi	15, 5, r5, r6, cr0
    256c:	5f485341 	svcpl	0x00485341
    2570:	205f5f48 	subscs	r5, pc, r8, asr #30
    2574:	49504700 	ldmdbmi	r0, {r8, r9, sl, lr}^
    2578:	4f4d5f4f 	svcmi	0x004d5f4f
    257c:	4f5f4544 	svcmi	0x005f4544
    2580:	55505455 	ldrbpl	r5, [r0, #-1109]	; 0xfffffbab
    2584:	78302054 	ldmdavc	r0!, {r2, r4, r6, sp}
    2588:	47003130 	smladxmi	r0, r0, r1, r3
    258c:	5f4f4950 	svcpl	0x004f4950
    2590:	5f4e4950 	svcpl	0x004e4950
    2594:	78302030 	ldmdavc	r0!, {r4, r5, sp}
    2598:	31303030 	teqcc	r0, r0, lsr r0
    259c:	49504700 	ldmdbmi	r0, {r8, r9, sl, lr}^
    25a0:	4c415f4f 	mcrrmi	15, 4, r5, r1, cr15
    25a4:	434e5546 	movtmi	r5, #58694	; 0xe546
    25a8:	3620365f 			; <UNDEFINED> instruction: 0x3620365f
    25ac:	41535500 	cmpmi	r3, r0, lsl #10
    25b0:	5f315452 	svcpl	0x00315452
    25b4:	5f315243 	svcpl	0x00315243
    25b8:	49474552 	stmdbmi	r7, {r1, r4, r6, r8, sl, lr}^
    25bc:	52455453 	subpl	r5, r5, #1392508928	; 0x53000000
    25c0:	76282820 	strtvc	r2, [r8], -r0, lsr #16
    25c4:	74616c6f 	strbtvc	r6, [r1], #-3183	; 0xfffff391
    25c8:	20656c69 	rsbcs	r6, r5, r9, ror #24
    25cc:	746e6975 	strbtvc	r6, [lr], #-2421	; 0xfffff68b
    25d0:	745f3233 	ldrbvc	r3, [pc], #-563	; 25d8 <SCB_AIRCR_PRIGROUP_MASK+0x1ed8>
    25d4:	5355292a 	cmppl	r5, #688128	; 0xa8000
    25d8:	31545241 	cmpcc	r4, r1, asr #4
    25dc:	3152435f 	cmpcc	r2, pc, asr r3
    25e0:	4444415f 	strbmi	r4, [r4], #-351	; 0xfffffea1
    25e4:	53534552 	cmppl	r3, #343932928	; 0x14800000
    25e8:	53550029 	cmppl	r5, #41	; 0x29
    25ec:	31545241 	cmpcc	r4, r1, asr #4
    25f0:	3152435f 	cmpcc	r2, pc, asr r3
    25f4:	4444415f 	strbmi	r4, [r4], #-351	; 0xfffffea1
    25f8:	53534552 	cmppl	r3, #343932928	; 0x14800000
    25fc:	34783020 	ldrbtcc	r3, [r8], #-32	; 0xffffffe0
    2600:	31313030 	teqcc	r1, r0, lsr r0
    2604:	00433030 	subeq	r3, r3, r0, lsr r0
    2608:	5f434352 	svcpl	0x00434352
    260c:	31425041 	cmpcc	r2, r1, asr #32
    2610:	5f524e45 	svcpl	0x00524e45
    2614:	45525750 	ldrbmi	r5, [r2, #-1872]	; 0xfffff8b0
    2618:	7830204e 	ldmdavc	r0!, {r1, r2, r3, r6, sp}
    261c:	30303031 	eorscc	r3, r0, r1, lsr r0
    2620:	30303030 	eorscc	r3, r0, r0, lsr r0
    2624:	41535500 	cmpmi	r3, r0, lsl #10
    2628:	435f5452 	cmpmi	pc, #1375731712	; 0x52000000
    262c:	535f3252 	cmppl	pc, #536870917	; 0x20000005
    2630:	5f504f54 	svcpl	0x00504f54
    2634:	30203530 	eorcc	r3, r0, r0, lsr r5
    2638:	30303078 	eorscc	r3, r0, r8, ror r0
    263c:	30303130 	eorscc	r3, r0, r0, lsr r1
    2640:	53550030 	cmppl	r5, #48	; 0x30
    2644:	5f545241 	svcpl	0x00545241
    2648:	545f5253 	ldrbpl	r5, [pc], #-595	; 2650 <SCB_AIRCR_PRIGROUP_MASK+0x1f50>
    264c:	30204558 	eorcc	r4, r0, r8, asr r5
    2650:	30303078 	eorscc	r3, r0, r8, ror r0
    2654:	38303030 	ldmdacc	r0!, {r4, r5, ip, sp}
    2658:	5f5f0030 	svcpl	0x005f0030
    265c:	4c5f4f49 	mrrcmi	15, 4, r4, pc, cr9	; <UNPREDICTABLE>
    2660:	4547474f 	strbmi	r4, [r7, #-1871]	; 0xfffff8b1
    2664:	5f485f52 	svcpl	0x00485f52
    2668:	5f00205f 	svcpl	0x0000205f
    266c:	414f425f 	cmpmi	pc, pc, asr r2	; <UNPREDICTABLE>
    2670:	535f4452 	cmppl	pc, #1375731712	; 0x52000000
    2674:	32334d54 	eorscc	r4, r3, #84, 26	; 0x1500
    2678:	31303446 	teqcc	r0, r6, asr #8
    267c:	425f4552 	subsmi	r4, pc, #343932928	; 0x14800000
    2680:	475f5053 			; <UNDEFINED> instruction: 0x475f5053
    2684:	5f4f4950 	svcpl	0x004f4950
    2688:	205f5f48 	subscs	r5, pc, r8, asr #30
    268c:	52524500 	subspl	r4, r2, #0, 10
    2690:	445f524f 	ldrbmi	r5, [pc], #-591	; 2698 <SCB_AIRCR_PRIGROUP_MASK+0x1f98>
    2694:	425f5649 	subsmi	r5, pc, #76546048	; 0x4900000
    2698:	455a5f59 	ldrbmi	r5, [sl, #-3929]	; 0xfffff0a7
    269c:	53004f52 	movwpl	r4, #3922	; 0xf52
    26a0:	41495245 	cmpmi	r9, r5, asr #4
    26a4:	54535f4c 	ldrbpl	r5, [r3], #-3916	; 0xfffff0b4
    26a8:	425f504f 	subsmi	r5, pc, #79	; 0x4f
    26ac:	5f535449 	svcpl	0x00535449
    26b0:	00312031 	eorseq	r2, r1, r1, lsr r0
    26b4:	59545f5f 	ldmdbpl	r4, {r0, r1, r2, r3, r4, r6, r8, r9, sl, fp, ip, lr}^
    26b8:	5f534550 	svcpl	0x00534550
    26bc:	4f525245 	svcmi	0x00525245
    26c0:	59545f52 	ldmdbpl	r4, {r1, r4, r6, r8, r9, sl, fp, ip, lr}^
    26c4:	5f534550 	svcpl	0x00534550
    26c8:	205f5f48 	subscs	r5, pc, r8, asr #30
    26cc:	69706700 	ldmdbvs	r0!, {r8, r9, sl, sp, lr}^
    26d0:	64695f6f 	strbtvs	r5, [r9], #-3951	; 0xfffff091
    26d4:	43435200 	movtmi	r5, #12800	; 0x3200
    26d8:	4746435f 	smlsldmi	r4, r6, pc, r3	; <UNPREDICTABLE>
    26dc:	50505f52 	subspl	r5, r0, r2, asr pc
    26e0:	5f324552 	svcpl	0x00324552
    26e4:	4b53414d 	blmi	14d2c20 <FPU_ENABLE_CPACR_VALUE+0x5d2c20>
    26e8:	30783020 	rsbscc	r3, r8, r0, lsr #32
    26ec:	45303030 	ldrmi	r3, [r0, #-48]!	; 0xffffffd0
    26f0:	00303030 	eorseq	r3, r0, r0, lsr r0
    26f4:	4f495047 	svcmi	0x00495047
    26f8:	4e49505f 	mcrmi	0, 2, r5, cr9, cr15, {2}
    26fc:	2031315f 	eorscs	r3, r1, pc, asr r1
    2700:	38307830 	ldmdacc	r0!, {r4, r5, fp, ip, sp, lr}
    2704:	55003030 	strpl	r3, [r0, #-48]	; 0xffffffd0
    2708:	54524153 	ldrbpl	r4, [r2], #-339	; 0xfffffead
    270c:	3152435f 	cmpcc	r2, pc, asr r3
    2710:	4e58525f 	mrcmi	2, 2, r5, cr8, cr15, {2}
    2714:	20454945 	subcs	r4, r5, r5, asr #18
    2718:	30307830 	eorscc	r7, r0, r0, lsr r8
    271c:	30303030 	eorscc	r3, r0, r0, lsr r0
    2720:	52003032 	andpl	r3, r0, #50	; 0x32
    2724:	505f4343 	subspl	r4, pc, r3, asr #6
    2728:	46434c4c 	strbmi	r4, [r3], -ip, asr #24
    272c:	415f5247 	cmpmi	pc, r7, asr #4
    2730:	45524444 	ldrbmi	r4, [r2, #-1092]	; 0xfffffbbc
    2734:	30205353 	eorcc	r5, r0, r3, asr r3
    2738:	30303478 	eorscc	r3, r0, r8, ror r4
    273c:	30383332 	eorscc	r3, r8, r2, lsr r3
    2740:	52450034 	subpl	r0, r5, #52	; 0x34
    2744:	5f524f52 	svcpl	0x00524f52
    2748:	45444f43 	strbmi	r4, [r4, #-3907]	; 0xfffff0bd
    274c:	5200455f 	andpl	r4, r0, #398458880	; 0x17c00000
    2750:	435f4343 	cmpmi	pc, #201326593	; 0xc000001
    2754:	5f524746 	svcpl	0x00524746
    2758:	49474552 	stmdbmi	r7, {r1, r4, r6, r8, sl, lr}^
    275c:	52455453 	subpl	r5, r5, #1392508928	; 0x53000000
    2760:	76282820 	strtvc	r2, [r8], -r0, lsr #16
    2764:	74616c6f 	strbtvc	r6, [r1], #-3183	; 0xfffff391
    2768:	20656c69 	rsbcs	r6, r5, r9, ror #24
    276c:	746e6975 	strbtvc	r6, [lr], #-2421	; 0xfffff68b
    2770:	745f3233 	ldrbvc	r3, [pc], #-563	; 2778 <SCB_AIRCR_PRIGROUP_MASK+0x2078>
    2774:	4352292a 	cmpmi	r2, #688128	; 0xa8000
    2778:	46435f43 	strbmi	r5, [r3], -r3, asr #30
    277c:	415f5247 	cmpmi	pc, r7, asr #4
    2780:	45524444 	ldrbmi	r4, [r2, #-1092]	; 0xfffffbbc
    2784:	00295353 	eoreq	r5, r9, r3, asr r3
    2788:	52415355 	subpl	r5, r1, #1409286145	; 0x54000001
    278c:	52435f54 	subpl	r5, r3, #84, 30	; 0x150
    2790:	54535f32 	ldrbpl	r5, [r3], #-3890	; 0xfffff0ce
    2794:	315f504f 	cmpcc	pc, pc, asr #32
    2798:	78302035 	ldmdavc	r0!, {r0, r2, r4, r5, sp}
    279c:	30303030 	eorscc	r3, r0, r0, lsr r0
    27a0:	30303033 	eorscc	r3, r0, r3, lsr r0
    27a4:	49504700 	ldmdbmi	r0, {r8, r9, sl, lr}^
    27a8:	44495f4f 	strbmi	r5, [r9], #-3919	; 0xfffff0b1
    27ac:	4600425f 			; <UNDEFINED> instruction: 0x4600425f
    27b0:	4853414c 	ldmdami	r3, {r2, r3, r6, r8, lr}^
    27b4:	54414c5f 	strbpl	r4, [r1], #-3167	; 0xfffff3a1
    27b8:	59434e45 	stmdbpl	r3, {r0, r2, r6, r9, sl, fp, lr}^
    27bc:	0053575f 	subseq	r5, r3, pc, asr r7
    27c0:	5f434352 	svcpl	0x00434352
    27c4:	31424841 	cmpcc	r2, r1, asr #16
    27c8:	5f524e45 	svcpl	0x00524e45
    27cc:	52444441 	subpl	r4, r4, #1090519040	; 0x41000000
    27d0:	20535345 	subscs	r5, r3, r5, asr #6
    27d4:	30347830 	eorscc	r7, r4, r0, lsr r8
    27d8:	38333230 	ldmdacc	r3!, {r4, r5, r9, ip, sp}
    27dc:	47003033 	smladxmi	r0, r3, r0, r3
    27e0:	5f4f4950 	svcpl	0x004f4950
    27e4:	45444f4d 	strbmi	r4, [r4, #-3917]	; 0xfffff0b3
    27e8:	544c415f 	strbpl	r4, [ip], #-351	; 0xfffffea1
    27ec:	204e5546 	subcs	r5, lr, r6, asr #10
    27f0:	32307830 	eorscc	r7, r0, #48, 16	; 0x300000
    27f4:	41535500 	cmpmi	r3, r0, lsl #10
    27f8:	5f365452 	svcpl	0x00365452
    27fc:	5f315243 	svcpl	0x00315243
    2800:	52444441 	subpl	r4, r4, #1090519040	; 0x41000000
    2804:	20535345 	subscs	r5, r3, r5, asr #6
    2808:	30347830 	eorscc	r7, r4, r0, lsr r8
    280c:	34313130 	ldrtcc	r3, [r1], #-304	; 0xfffffed0
    2810:	52004330 	andpl	r4, r0, #48, 6	; 0xc0000000
    2814:	415f4343 	cmpmi	pc, r3, asr #6
    2818:	45314248 	ldrmi	r4, [r1, #-584]!	; 0xfffffdb8
    281c:	475f524e 	ldrbmi	r5, [pc, -lr, asr #4]
    2820:	484f4950 	stmdami	pc, {r4, r6, r8, fp, lr}^	; <UNPREDICTABLE>
    2824:	30204e45 	eorcc	r4, r0, r5, asr #28
    2828:	30303078 	eorscc	r3, r0, r8, ror r0
    282c:	38303030 	ldmdacc	r0!, {r4, r5, ip, sp}
    2830:	43520030 	cmpmi	r2, #48	; 0x30
    2834:	52435f43 	subpl	r5, r3, #268	; 0x10c
    2838:	4745525f 	smlsldmi	r5, r5, pc, r2	; <UNPREDICTABLE>
    283c:	45545349 	ldrbmi	r5, [r4, #-841]	; 0xfffffcb7
    2840:	28282052 	stmdacs	r8!, {r1, r4, r6, sp}
    2844:	616c6f76 	smcvs	50934	; 0xc6f6
    2848:	656c6974 	strbvs	r6, [ip, #-2420]!	; 0xfffff68c
    284c:	6e697520 	cdpvs	5, 6, cr7, cr9, cr0, {1}
    2850:	5f323374 	svcpl	0x00323374
    2854:	52292a74 	eorpl	r2, r9, #116, 20	; 0x74000
    2858:	435f4343 	cmpmi	pc, #201326593	; 0xc000001
    285c:	44415f52 	strbmi	r5, [r1], #-3922	; 0xfffff0ae
    2860:	53455244 	movtpl	r5, #21060	; 0x5244
    2864:	52002953 	andpl	r2, r0, #1359872	; 0x14c000
    2868:	415f4343 	cmpmi	pc, r3, asr #6
    286c:	45324250 	ldrmi	r4, [r2, #-592]!	; 0xfffffdb0
    2870:	535f524e 	cmppl	pc, #-536870908	; 0xe0000004
    2874:	46435359 			; <UNDEFINED> instruction: 0x46435359
    2878:	204e4547 	subcs	r4, lr, r7, asr #10
    287c:	30307830 	eorscc	r7, r0, r0, lsr r8
    2880:	30343030 	eorscc	r3, r4, r0, lsr r0
    2884:	52003030 	andpl	r3, r0, #48	; 0x30
    2888:	505f4343 	subspl	r4, pc, r3, asr #6
    288c:	46434c4c 	strbmi	r4, [r3], -ip, asr #24
    2890:	505f5247 	subspl	r5, pc, r7, asr #4
    2894:	5f504c4c 	svcpl	0x00504c4c
    2898:	5346464f 	movtpl	r4, #26191	; 0x664f
    289c:	31205445 			; <UNDEFINED> instruction: 0x31205445
    28a0:	50470036 	subpl	r0, r7, r6, lsr r0
    28a4:	505f4f49 	subspl	r4, pc, r9, asr #30
    28a8:	5f445055 	svcpl	0x00445055
    28ac:	30205550 	eorcc	r5, r0, r0, asr r5
    28b0:	00383078 	eorseq	r3, r8, r8, ror r0
    28b4:	5f434352 	svcpl	0x00434352
    28b8:	434c4c50 	movtmi	r4, #52304	; 0xcc50
    28bc:	5f524746 	svcpl	0x00524746
    28c0:	49474552 	stmdbmi	r7, {r1, r4, r6, r8, sl, lr}^
    28c4:	52455453 	subpl	r5, r5, #1392508928	; 0x53000000
    28c8:	76282820 	strtvc	r2, [r8], -r0, lsr #16
    28cc:	74616c6f 	strbtvc	r6, [r1], #-3183	; 0xfffff391
    28d0:	20656c69 	rsbcs	r6, r5, r9, ror #24
    28d4:	746e6975 	strbtvc	r6, [lr], #-2421	; 0xfffff68b
    28d8:	745f3233 	ldrbvc	r3, [pc], #-563	; 28e0 <SCB_AIRCR_PRIGROUP_MASK+0x21e0>
    28dc:	4352292a 	cmpmi	r2, #688128	; 0xa8000
    28e0:	4c505f43 	mrrcmi	15, 4, r5, r0, cr3
    28e4:	4746434c 	strbmi	r4, [r6, -ip, asr #6]
    28e8:	44415f52 	strbmi	r5, [r1], #-3922	; 0xfffff0ae
    28ec:	53455244 	movtpl	r5, #21060	; 0x5244
    28f0:	52002953 	andpl	r2, r0, #1359872	; 0x14c000
    28f4:	505f4343 	subspl	r4, pc, r3, asr #6
    28f8:	46434c4c 	strbmi	r4, [r3], -ip, asr #24
    28fc:	505f5247 	subspl	r5, pc, r7, asr #4
    2900:	5f504c4c 	svcpl	0x00504c4c
    2904:	4b53414d 	blmi	14d2e40 <FPU_ENABLE_CPACR_VALUE+0x5d2e40>
    2908:	30783020 	rsbscc	r3, r8, r0, lsr #32
    290c:	30333030 	eorscc	r3, r3, r0, lsr r0
    2910:	00303030 	eorseq	r3, r0, r0, lsr r0
    2914:	52415355 	subpl	r5, r1, #1409286145	; 0x54000001
    2918:	52435f54 	subpl	r5, r3, #84, 30	; 0x150
    291c:	50435f32 	subpl	r5, r3, r2, lsr pc
    2920:	30204c4f 	eorcc	r4, r0, pc, asr #24
    2924:	30303078 	eorscc	r3, r0, r8, ror r0
    2928:	30343030 	eorscc	r3, r4, r0, lsr r0
    292c:	53550030 	cmppl	r5, #48	; 0x30
    2930:	32545241 	subscc	r5, r4, #268435460	; 0x10000004
    2934:	5f52535f 	svcpl	0x0052535f
    2938:	52444441 	subpl	r4, r4, #1090519040	; 0x41000000
    293c:	20535345 	subscs	r5, r3, r5, asr #6
    2940:	30347830 	eorscc	r7, r4, r0, lsr r8
    2944:	34343030 	ldrtcc	r3, [r4], #-48	; 0xffffffd0
    2948:	47003030 	smladxmi	r0, r0, r0, r3
    294c:	5f4f4950 	svcpl	0x004f4950
    2950:	5f4e4950 	svcpl	0x004e4950
    2954:	30203031 	eorcc	r3, r0, r1, lsr r0
    2958:	30343078 	eorscc	r3, r4, r8, ror r0
    295c:	52450030 	subpl	r0, r5, #48	; 0x30
    2960:	5f524f52 	svcpl	0x00524f52
    2964:	41564e49 	cmpmi	r6, r9, asr #28
    2968:	5f44494c 	svcpl	0x0044494c
    296c:	41524150 	cmpmi	r2, r0, asr r1
    2970:	5342004d 	movtpl	r0, #8269	; 0x204d
    2974:	4c435f50 	mcrrmi	15, 5, r5, r3, cr0
    2978:	5f4b434f 	svcpl	0x004b434f
    297c:	535f4449 	cmppl	pc, #1224736768	; 0x49000000
    2980:	4c435359 	mcrrmi	3, 5, r5, r3, cr9
    2984:	5241004b 	subpl	r0, r1, #75	; 0x4b
    2988:	335f4843 	cmpcc	pc, #4390912	; 0x430000
    298c:	49425f32 	stmdbmi	r2, {r1, r4, r5, r8, r9, sl, fp, ip, lr}^
    2990:	00205354 	eoreq	r5, r0, r4, asr r3
    2994:	53414c46 	movtpl	r4, #7238	; 0x1c46
    2998:	43415f48 	movtmi	r5, #8008	; 0x1f48
    299c:	44415f52 	strbmi	r5, [r1], #-3922	; 0xfffff0ae
    29a0:	53455244 	movtpl	r5, #21060	; 0x5244
    29a4:	78302053 	ldmdavc	r0!, {r0, r1, r4, r6, sp}
    29a8:	32303034 	eorscc	r3, r0, #52	; 0x34
    29ac:	30304333 	eorscc	r4, r0, r3, lsr r3
    29b0:	50534200 	subspl	r4, r3, r0, lsl #4
    29b4:	4f4c435f 	svcmi	0x004c435f
    29b8:	495f4b43 	ldmdbmi	pc, {r0, r1, r6, r8, r9, fp, lr}^	; <UNPREDICTABLE>
    29bc:	50415f44 	subpl	r5, r1, r4, asr #30
    29c0:	545f3242 	ldrbpl	r3, [pc], #-578	; 29c8 <SCB_AIRCR_PRIGROUP_MASK+0x22c8>
    29c4:	52454d49 	subpl	r4, r5, #4672	; 0x1240
    29c8:	43435200 	movtmi	r5, #12800	; 0x3200
    29cc:	5f52435f 	svcpl	0x0052435f
    29d0:	4f4c4c50 	svcmi	0x004c4c50
    29d4:	7830204e 	ldmdavc	r0!, {r1, r2, r3, r6, sp}
    29d8:	30303130 	eorscc	r3, r0, r0, lsr r1
    29dc:	30303030 	eorscc	r3, r0, r0, lsr r0
    29e0:	72726500 	rsbsvc	r6, r2, #0, 10
    29e4:	5200726f 	andpl	r7, r0, #-268435450	; 0xf0000006
    29e8:	435f4343 	cmpmi	pc, #201326593	; 0xc000001
    29ec:	53485f52 	movtpl	r5, #36690	; 0x8f52
    29f0:	59445249 	stmdbpl	r4, {r0, r3, r6, r9, ip, lr}^
    29f4:	30783020 	rsbscc	r3, r8, r0, lsr #32
    29f8:	30303030 	eorscc	r3, r0, r0, lsr r0
    29fc:	00323030 	eorseq	r3, r2, r0, lsr r0
    2a00:	52415355 	subpl	r5, r1, #1409286145	; 0x54000001
    2a04:	52435f54 	subpl	r5, r3, #84, 30	; 0x150
    2a08:	52495f33 	subpl	r5, r9, #51, 30	; 0xcc
    2a0c:	30204e45 	eorcc	r4, r0, r5, asr #28
    2a10:	30303078 	eorscc	r3, r0, r8, ror r0
    2a14:	30303030 	eorscc	r3, r0, r0, lsr r0
    2a18:	43520032 	cmpmi	r2, #50	; 0x32
    2a1c:	46435f43 	strbmi	r5, [r3], -r3, asr #30
    2a20:	415f5247 	cmpmi	pc, r7, asr #4
    2a24:	45524444 	ldrbmi	r4, [r2, #-1092]	; 0xfffffbbc
    2a28:	30205353 	eorcc	r5, r0, r3, asr r3
    2a2c:	30303478 	eorscc	r3, r0, r8, ror r4
    2a30:	30383332 	eorscc	r3, r8, r2, lsr r3
    2a34:	73620038 	cmnvc	r2, #56	; 0x38
    2a38:	6c635f70 	stclvs	15, cr5, [r3], #-448	; 0xfffffe40
    2a3c:	73755f6b 	cmnvc	r5, #428	; 0x1ac
    2a40:	5f747261 	svcpl	0x00747261
    2a44:	62616e65 	rsbvs	r6, r1, #1616	; 0x650
    2a48:	5500656c 	strpl	r6, [r0, #-1388]	; 0xfffffa94
    2a4c:	54524153 	ldrbpl	r4, [r2], #-339	; 0xfffffead
    2a50:	52445f36 	subpl	r5, r4, #54, 30	; 0xd8
    2a54:	4444415f 	strbmi	r4, [r4], #-351	; 0xfffffea1
    2a58:	53534552 	cmppl	r3, #343932928	; 0x14800000
    2a5c:	34783020 	ldrbtcc	r3, [r8], #-32	; 0xffffffe0
    2a60:	31313030 	teqcc	r1, r0, lsr r0
    2a64:	00343034 	eorseq	r3, r4, r4, lsr r0
    2a68:	49524553 	ldmdbmi	r2, {r0, r1, r4, r6, r8, sl, lr}^
    2a6c:	435f4c41 	cmpmi	pc, #16640	; 0x4100
    2a70:	5f4c5254 	svcpl	0x004c5254
    2a74:	574f4c46 	strbpl	r4, [pc, -r6, asr #24]
    2a78:	5354435f 	cmppl	r4, #2080374785	; 0x7c000001
    2a7c:	47003220 	strmi	r3, [r0, -r0, lsr #4]
    2a80:	5f4f4950 	svcpl	0x004f4950
    2a84:	55464c41 	strbpl	r4, [r6, #-3137]	; 0xfffff3bf
    2a88:	315f434e 	cmpcc	pc, lr, asr #6
    2a8c:	32312032 	eorscc	r2, r1, #50	; 0x32
    2a90:	4e495500 	cdpmi	5, 4, cr5, cr9, cr0, {0}
    2a94:	5f323354 	svcpl	0x00323354
    2a98:	2058414d 	subscs	r4, r8, sp, asr #2
    2a9c:	66667830 			; <UNDEFINED> instruction: 0x66667830
    2aa0:	66666666 	strbtvs	r6, [r6], -r6, ror #12
    2aa4:	55006666 	strpl	r6, [r0, #-1638]	; 0xfffff99a
    2aa8:	54524153 	ldrbpl	r4, [r2], #-339	; 0xfffffead
    2aac:	52445f32 	subpl	r5, r4, #50, 30	; 0xc8
    2ab0:	4745525f 	smlsldmi	r5, r5, pc, r2	; <UNPREDICTABLE>
    2ab4:	45545349 	ldrbmi	r5, [r4, #-841]	; 0xfffffcb7
    2ab8:	28282052 	stmdacs	r8!, {r1, r4, r6, sp}
    2abc:	616c6f76 	smcvs	50934	; 0xc6f6
    2ac0:	656c6974 	strbvs	r6, [ip, #-2420]!	; 0xfffff68c
    2ac4:	6e697520 	cdpvs	5, 6, cr7, cr9, cr0, {1}
    2ac8:	5f323374 	svcpl	0x00323374
    2acc:	55292a74 	strpl	r2, [r9, #-2676]!	; 0xfffff58c
    2ad0:	54524153 	ldrbpl	r4, [r2], #-339	; 0xfffffead
    2ad4:	52445f32 	subpl	r5, r4, #50, 30	; 0xc8
    2ad8:	4444415f 	strbmi	r4, [r4], #-351	; 0xfffffea1
    2adc:	53534552 	cmppl	r3, #343932928	; 0x14800000
    2ae0:	53550029 	cmppl	r5, #41	; 0x29
    2ae4:	5f545241 	svcpl	0x00545241
    2ae8:	5f325243 	svcpl	0x00325243
    2aec:	454b4c43 	strbmi	r4, [fp, #-3139]	; 0xfffff3bd
    2af0:	7830204e 	ldmdavc	r0!, {r1, r2, r3, r6, sp}
    2af4:	30303030 	eorscc	r3, r0, r0, lsr r0
    2af8:	30303830 	eorscc	r3, r0, r0, lsr r8
    2afc:	41535500 	cmpmi	r3, r0, lsl #10
    2b00:	435f5452 	cmpmi	pc, #1375731712	; 0x52000000
    2b04:	435f3352 	cmpmi	pc, #1207959553	; 0x48000001
    2b08:	20455354 	subcs	r5, r5, r4, asr r3
    2b0c:	30307830 	eorscc	r7, r0, r0, lsr r8
    2b10:	32303030 	eorscc	r3, r0, #48	; 0x30
    2b14:	55003030 	strpl	r3, [r0, #-48]	; 0xffffffd0
    2b18:	54524153 	ldrbpl	r4, [r2], #-339	; 0xfffffead
    2b1c:	3352435f 	cmpcc	r2, #2080374785	; 0x7c000001
    2b20:	4543535f 	strbmi	r5, [r3, #-863]	; 0xfffffca1
    2b24:	7830204e 	ldmdavc	r0!, {r1, r2, r3, r6, sp}
    2b28:	30303030 	eorscc	r3, r0, r0, lsr r0
    2b2c:	30323030 	eorscc	r3, r2, r0, lsr r0
    2b30:	70736200 	rsbsvc	r6, r3, r0, lsl #4
    2b34:	7270685f 	rsbsvc	r6, r0, #6225920	; 0x5f0000
    2b38:	61665f65 	cmnvs	r6, r5, ror #30
    2b3c:	726f7463 	rsbvc	r7, pc, #1660944384	; 0x63000000
    2b40:	6f6f6c5f 	svcvs	0x006f6c5f
    2b44:	0070756b 	rsbseq	r7, r0, fp, ror #10
    2b48:	52415355 	subpl	r5, r1, #1409286145	; 0x54000001
    2b4c:	52435f54 	subpl	r5, r3, #84, 30	; 0x150
    2b50:	4d445f33 	stclmi	15, cr5, [r4, #-204]	; 0xffffff34
    2b54:	30205441 	eorcc	r5, r0, r1, asr #8
    2b58:	30303078 	eorscc	r3, r0, r8, ror r0
    2b5c:	38303030 	ldmdacc	r0!, {r4, r5, ip, sp}
    2b60:	53550030 	cmppl	r5, #48	; 0x30
    2b64:	5f545241 	svcpl	0x00545241
    2b68:	5f335243 	svcpl	0x00335243
    2b6c:	45534448 	ldrbmi	r4, [r3, #-1096]	; 0xfffffbb8
    2b70:	7830204c 	ldmdavc	r0!, {r2, r3, r6, sp}
    2b74:	30303030 	eorscc	r3, r0, r0, lsr r0
    2b78:	38303030 	ldmdacc	r0!, {r4, r5, ip, sp}
    2b7c:	6b6c6300 	blvs	1b1b784 <FPU_ENABLE_CPACR_VALUE+0xc1b784>
    2b80:	0064695f 	rsbeq	r6, r4, pc, asr r9
    2b84:	45574f50 	ldrbmi	r4, [r7, #-3920]	; 0xfffff0b0
    2b88:	43535f52 	cmpmi	r3, #328	; 0x148
    2b8c:	4e494c41 	cdpmi	12, 4, cr4, cr9, cr1, {2}
    2b90:	69750047 	ldmdbvs	r5!, {r0, r1, r2, r6}^
    2b94:	3233746e 	eorscc	r7, r3, #1845493760	; 0x6e000000
    2b98:	5500745f 	strpl	r7, [r0, #-1119]	; 0xfffffba1
    2b9c:	54524153 	ldrbpl	r4, [r2], #-339	; 0xfffffead
    2ba0:	3352435f 	cmpcc	r2, #2080374785	; 0x7c000001
    2ba4:	43414e5f 	movtmi	r4, #7775	; 0x1e5f
    2ba8:	7830204b 	ldmdavc	r0!, {r0, r1, r3, r6, sp}
    2bac:	30303030 	eorscc	r3, r0, r0, lsr r0
    2bb0:	30313030 	eorscc	r3, r1, r0, lsr r0
    2bb4:	43435200 	movtmi	r5, #12800	; 0x3200
    2bb8:	4746435f 	smlsldmi	r4, r6, pc, r3	; <UNPREDICTABLE>
    2bbc:	50505f52 	subspl	r5, r0, r2, asr pc
    2bc0:	5f314552 	svcpl	0x00314552
    2bc4:	32564944 	subscc	r4, r6, #68, 18	; 0x110000
    2bc8:	30783020 	rsbscc	r3, r8, r0, lsr #32
    2bcc:	31303030 	teqcc	r0, r0, lsr r0
    2bd0:	00303030 	eorseq	r3, r0, r0, lsr r0
    2bd4:	4f425f5f 	svcmi	0x00425f5f
    2bd8:	5f445241 	svcpl	0x00445241
    2bdc:	334d5453 	movtcc	r5, #54355	; 0xd453
    2be0:	30344632 	eorscc	r4, r4, r2, lsr r6
    2be4:	5f455231 	svcpl	0x00455231
    2be8:	5f505342 	svcpl	0x00505342
    2bec:	52415355 	subpl	r5, r1, #1409286145	; 0x54000001
    2bf0:	5f485f54 	svcpl	0x00485f54
    2bf4:	4700205f 	smlsdmi	r0, pc, r0, r2	; <UNPREDICTABLE>
    2bf8:	5f4f4950 	svcpl	0x004f4950
    2bfc:	55464c41 	strbpl	r4, [r6, #-3137]	; 0xfffff3bf
    2c00:	395f434e 	ldmdbcc	pc, {r1, r2, r3, r6, r8, r9, lr}^	; <UNPREDICTABLE>
    2c04:	52003920 	andpl	r3, r0, #32, 18	; 0x80000
    2c08:	415f4343 	cmpmi	pc, r3, asr #6
    2c0c:	45314250 	ldrmi	r4, [r1, #-592]!	; 0xfffffdb0
    2c10:	525f524e 	subspl	r5, pc, #-536870908	; 0xe0000004
    2c14:	53494745 	movtpl	r4, #38725	; 0x9745
    2c18:	20524554 	subscs	r4, r2, r4, asr r5
    2c1c:	6f762828 	svcvs	0x00762828
    2c20:	6974616c 	ldmdbvs	r4!, {r2, r3, r5, r6, r8, sp, lr}^
    2c24:	7520656c 	strvc	r6, [r0, #-1388]!	; 0xfffffa94
    2c28:	33746e69 	cmncc	r4, #1680	; 0x690
    2c2c:	2a745f32 	bcs	1d1a8fc <FPU_ENABLE_CPACR_VALUE+0xe1a8fc>
    2c30:	43435229 	movtmi	r5, #12841	; 0x3229
    2c34:	4250415f 	subsmi	r4, r0, #-1073741801	; 0xc0000017
    2c38:	524e4531 	subpl	r4, lr, #205520896	; 0xc400000
    2c3c:	4444415f 	strbmi	r4, [r4], #-351	; 0xfffffea1
    2c40:	53534552 	cmppl	r3, #343932928	; 0x14800000
    2c44:	52450029 	subpl	r0, r5, #41	; 0x29
    2c48:	5f524f52 	svcpl	0x00524f52
    2c4c:	45524c41 	ldrbmi	r4, [r2, #-3137]	; 0xfffff3bf
    2c50:	5f594441 	svcpl	0x00594441
    2c54:	54494e49 	strbpl	r4, [r9], #-3657	; 0xfffff1b7
    2c58:	49504700 	ldmdbmi	r0, {r8, r9, sl, lr}^
    2c5c:	4c415f4f 	mcrrmi	15, 4, r5, r1, cr15
    2c60:	434e5546 	movtmi	r5, #58694	; 0xe546
    2c64:	3820385f 	stmdacc	r0!, {r0, r1, r2, r3, r4, r6, fp, ip, sp}
    2c68:	425f5f00 	subsmi	r5, pc, #0, 30
    2c6c:	4452414f 	ldrbmi	r4, [r2], #-335	; 0xfffffeb1
    2c70:	4d54535f 	ldclmi	3, cr5, [r4, #-380]	; 0xfffffe84
    2c74:	34463233 	strbcc	r3, [r6], #-563	; 0xfffffdcd
    2c78:	45523130 	ldrbmi	r3, [r2, #-304]	; 0xfffffed0
    2c7c:	5053425f 	subspl	r4, r3, pc, asr r2
    2c80:	4f4c435f 	svcmi	0x004c435f
    2c84:	485f4b43 	ldmdami	pc, {r0, r1, r6, r8, r9, fp, lr}^	; <UNPREDICTABLE>
    2c88:	00205f5f 	eoreq	r5, r0, pc, asr pc
    2c8c:	5f707362 	svcpl	0x00707362
    2c90:	5f6b6c63 	svcpl	0x006b6c63
    2c94:	5f737973 	svcpl	0x00737973
    2c98:	74696e69 	strbtvc	r6, [r9], #-3689	; 0xfffff197
    2c9c:	414c4600 	cmpmi	ip, r0, lsl #12
    2ca0:	415f4853 	cmpmi	pc, r3, asr r8	; <UNPREDICTABLE>
    2ca4:	505f5243 	subspl	r5, pc, r3, asr #4
    2ca8:	45464552 	strbmi	r4, [r6, #-1362]	; 0xfffffaae
    2cac:	5f484354 	svcpl	0x00484354
    2cb0:	30204e45 	eorcc	r4, r0, r5, asr #28
    2cb4:	30303078 	eorscc	r3, r0, r8, ror r0
    2cb8:	30313030 	eorscc	r3, r1, r0, lsr r0
    2cbc:	4c460030 	mcrrmi	0, 3, r0, r6, cr0
    2cc0:	5f485341 	svcpl	0x00485341
    2cc4:	4554414c 	ldrbmi	r4, [r4, #-332]	; 0xfffffeb4
    2cc8:	5f59434e 	svcpl	0x0059434e
    2ccc:	305f5357 	subscc	r5, pc, r7, asr r3	; <UNPREDICTABLE>
    2cd0:	414c4600 	cmpmi	ip, r0, lsl #12
    2cd4:	4c5f4853 	mrrcmi	8, 5, r4, pc, cr3	; <UNPREDICTABLE>
    2cd8:	4e455441 	cdpmi	4, 4, cr5, cr5, cr1, {2}
    2cdc:	575f5943 	ldrbpl	r5, [pc, -r3, asr #18]
    2ce0:	00345f53 	eorseq	r5, r4, r3, asr pc
    2ce4:	53414c46 	movtpl	r4, #7238	; 0x1c46
    2ce8:	414c5f48 	cmpmi	ip, r8, asr #30
    2cec:	434e4554 	movtmi	r4, #58708	; 0xe554
    2cf0:	53575f59 	cmppl	r7, #356	; 0x164
    2cf4:	4600355f 			; <UNDEFINED> instruction: 0x4600355f
    2cf8:	4853414c 	ldmdami	r3, {r2, r3, r6, r8, lr}^
    2cfc:	54414c5f 	strbpl	r4, [r1], #-3167	; 0xfffff3a1
    2d00:	59434e45 	stmdbpl	r3, {r0, r2, r6, r9, sl, fp, lr}^
    2d04:	5f53575f 	svcpl	0x0053575f
    2d08:	4c460036 	mcrrmi	0, 3, r0, r6, cr6
    2d0c:	5f485341 	svcpl	0x00485341
    2d10:	4554414c 	ldrbmi	r4, [r4, #-332]	; 0xfffffeb4
    2d14:	5f59434e 	svcpl	0x0059434e
    2d18:	375f5357 			; <UNDEFINED> instruction: 0x375f5357
    2d1c:	414c4600 	cmpmi	ip, r0, lsl #12
    2d20:	4c5f4853 	mrrcmi	8, 5, r4, pc, cr3	; <UNPREDICTABLE>
    2d24:	4e455441 	cdpmi	4, 4, cr5, cr5, cr1, {2}
    2d28:	575f5943 	ldrbpl	r5, [pc, -r3, asr #18]
    2d2c:	00395f53 	eorseq	r5, r9, r3, asr pc
    2d30:	52415355 	subpl	r5, r1, #1409286145	; 0x54000001
    2d34:	535f3154 	cmppl	pc, #84, 2
    2d38:	44415f52 	strbmi	r5, [r1], #-3922	; 0xfffff0ae
    2d3c:	53455244 	movtpl	r5, #21060	; 0x5244
    2d40:	78302053 	ldmdavc	r0!, {r0, r1, r4, r6, sp}
    2d44:	31303034 	teqcc	r0, r4, lsr r0
    2d48:	30303031 	eorscc	r3, r0, r1, lsr r0
    2d4c:	464e4900 	strbmi	r4, [lr], -r0, lsl #18
    2d50:	4f4c5f4f 	svcmi	0x004c5f4f
    2d54:	454c5f47 	strbmi	r5, [ip, #-3911]	; 0xfffff0b9
    2d58:	204c4556 	subcs	r4, ip, r6, asr r5
    2d5c:	73620031 	cmnvc	r2, #49	; 0x31
    2d60:	6c635f70 	stclvs	15, cr5, [r3], #-448	; 0xfffffe40
    2d64:	5f6b636f 	svcpl	0x006b636f
    2d68:	5f746567 	svcpl	0x00746567
    2d6c:	5f6c6c70 	svcpl	0x006c6c70
    2d70:	71657266 	cmnvc	r5, r6, ror #4
    2d74:	49504700 	ldmdbmi	r0, {r8, r9, sl, lr}^
    2d78:	4f4d5f4f 	svcmi	0x004d5f4f
    2d7c:	4d5f4544 	cfldr64mi	mvdx4, [pc, #-272]	; 2c74 <SCB_AIRCR_PRIGROUP_MASK+0x2574>
    2d80:	204b5341 	subcs	r5, fp, r1, asr #6
    2d84:	00337830 	eorseq	r7, r3, r0, lsr r8
    2d88:	5f434352 	svcpl	0x00434352
    2d8c:	52474643 	subpl	r4, r7, #70254592	; 0x4300000
    2d90:	5f57535f 	svcpl	0x0057535f
    2d94:	20495348 	subcs	r5, r9, r8, asr #6
    2d98:	30307830 	eorscc	r7, r0, r0, lsr r8
    2d9c:	30303030 	eorscc	r3, r0, r0, lsr r0
    2da0:	55003030 	strpl	r3, [r0, #-48]	; 0xffffffd0
    2da4:	54524153 	ldrbpl	r4, [r2], #-339	; 0xfffffead
    2da8:	52435f31 	subpl	r5, r3, #49, 30	; 0xc4
    2dac:	44415f33 	strbmi	r5, [r1], #-3891	; 0xfffff0cd
    2db0:	53455244 	movtpl	r5, #21060	; 0x5244
    2db4:	78302053 	ldmdavc	r0!, {r0, r1, r4, r6, sp}
    2db8:	31303034 	teqcc	r0, r4, lsr r0
    2dbc:	34313031 	ldrtcc	r3, [r1], #-49	; 0xffffffcf
    2dc0:	49504700 	ldmdbmi	r0, {r8, r9, sl, lr}^
    2dc4:	50535f4f 	subspl	r5, r3, pc, asr #30
    2dc8:	5f444545 	svcpl	0x00444545
    2dcc:	59524556 	ldmdbpl	r2, {r1, r2, r4, r6, r8, sl, lr}^
    2dd0:	4749485f 	smlsldmi	r4, r9, pc, r8	; <UNPREDICTABLE>
    2dd4:	78302048 	ldmdavc	r0!, {r3, r6, sp}
    2dd8:	55003330 	strpl	r3, [r0, #-816]	; 0xfffffcd0
    2ddc:	54524153 	ldrbpl	r4, [r2], #-339	; 0xfffffead
    2de0:	52425f36 	subpl	r5, r2, #54, 30	; 0xd8
    2de4:	44415f52 	strbmi	r5, [r1], #-3922	; 0xfffff0ae
    2de8:	53455244 	movtpl	r5, #21060	; 0x5244
    2dec:	78302053 	ldmdavc	r0!, {r0, r1, r4, r6, sp}
    2df0:	31303034 	teqcc	r0, r4, lsr r0
    2df4:	38303431 	ldmdacc	r0!, {r0, r4, r5, sl, ip, sp}
    2df8:	41535500 	cmpmi	r3, r0, lsl #10
    2dfc:	435f5452 	cmpmi	pc, #1375731712	; 0x52000000
    2e00:	415f3252 	cmpmi	pc, r2, asr r2	; <UNPREDICTABLE>
    2e04:	5f524444 	svcpl	0x00524444
    2e08:	4b53414d 	blmi	14d3344 <FPU_ENABLE_CPACR_VALUE+0x5d3344>
    2e0c:	30783020 	rsbscc	r3, r8, r0, lsr #32
    2e10:	30303030 	eorscc	r3, r0, r0, lsr r0
    2e14:	00463030 	subeq	r3, r6, r0, lsr r0
    2e18:	4f495047 	svcmi	0x00495047
    2e1c:	4e49505f 	mcrmi	0, 2, r5, cr9, cr15, {2}
    2e20:	3020395f 	eorcc	r3, r0, pc, asr r9
    2e24:	30323078 	eorscc	r3, r2, r8, ror r0
    2e28:	45530030 	ldrbmi	r0, [r3, #-48]	; 0xffffffd0
    2e2c:	4c414952 	mcrrmi	9, 5, r4, r1, cr2	; <UNPREDICTABLE>
    2e30:	4f54535f 	svcmi	0x0054535f
    2e34:	49425f50 	stmdbmi	r2, {r4, r6, r8, r9, sl, fp, ip, lr}^
    2e38:	325f5354 	subscc	r5, pc, #84, 6	; 0x50000001
    2e3c:	2f003320 	svccs	0x00003320
    2e40:	2f746e6d 	svccs	0x00746e6d
    2e44:	73552f63 	cmpvc	r5, #396	; 0x18c
    2e48:	2f737265 	svccs	0x00737265
    2e4c:	78656c41 	stmdavc	r5!, {r0, r6, sl, fp, sp, lr}^
    2e50:	6f442f79 	svcvs	0x00442f79
    2e54:	656d7563 	strbvs	r7, [sp, #-1379]!	; 0xfffffa9d
    2e58:	2f73746e 	svccs	0x0073746e
    2e5c:	6b54554c 	blvs	1518394 <FPU_ENABLE_CPACR_VALUE+0x618394>
    2e60:	72654b2f 	rsbvc	r4, r5, #48128	; 0xbc00
    2e64:	2f6c656e 	svccs	0x006c656e
    2e68:	72756f53 	rsbsvc	r6, r5, #332	; 0x14c
    2e6c:	2f736563 	svccs	0x00736563
    2e70:	68637261 	stmdavs	r3!, {r0, r5, r6, r9, ip, sp, lr}^
    2e74:	616f622f 	cmnvs	pc, pc, lsr #4
    2e78:	732f6472 			; <UNDEFINED> instruction: 0x732f6472
    2e7c:	32336d74 	eorscc	r6, r3, #116, 26	; 0x1d00
    2e80:	3034662f 	eorscc	r6, r4, pc, lsr #12
    2e84:	00657231 	rsbeq	r7, r5, r1, lsr r2
    2e88:	5f505342 	svcpl	0x00505342
    2e8c:	434f4c43 	movtmi	r4, #64579	; 0xfc43
    2e90:	44495f4b 	strbmi	r5, [r9], #-3915	; 0xfffff0b5
    2e94:	4c43465f 	mcrrmi	6, 5, r4, r3, cr15
    2e98:	5047004b 	subpl	r0, r7, fp, asr #32
    2e9c:	505f4f49 	subspl	r4, pc, r9, asr #30
    2ea0:	435f4e49 	cmpmi	pc, #1168	; 0x490
    2ea4:	544e554f 	strbpl	r5, [lr], #-1359	; 0xfffffab1
    2ea8:	00353120 	eorseq	r3, r5, r0, lsr #2
    2eac:	52415355 	subpl	r5, r1, #1409286145	; 0x54000001
    2eb0:	52435f54 	subpl	r5, r3, #84, 30	; 0x150
    2eb4:	4d445f33 	stclmi	15, cr5, [r4, #-204]	; 0xffffff34
    2eb8:	30205241 	eorcc	r5, r0, r1, asr #4
    2ebc:	30303078 	eorscc	r3, r0, r8, ror r0
    2ec0:	34303030 	ldrtcc	r3, [r0], #-48	; 0xffffffd0
    2ec4:	53550030 	cmppl	r5, #48	; 0x30
    2ec8:	5f545241 	svcpl	0x00545241
    2ecc:	5f325243 	svcpl	0x00325243
    2ed0:	504f5453 	subpl	r5, pc, r3, asr r4	; <UNPREDICTABLE>
    2ed4:	3020325f 	eorcc	r3, r0, pc, asr r2
    2ed8:	30303078 	eorscc	r3, r0, r8, ror r0
    2edc:	30303230 	eorscc	r3, r0, r0, lsr r2
    2ee0:	43520030 	cmpmi	r2, #48	; 0x30
    2ee4:	46435f43 	strbmi	r5, [r3], -r3, asr #30
    2ee8:	535f5247 	cmppl	pc, #1879048196	; 0x70000004
    2eec:	53485f57 	movtpl	r5, #36695	; 0x8f57
    2ef0:	78302045 	ldmdavc	r0!, {r0, r2, r6, sp}
    2ef4:	30303030 	eorscc	r3, r0, r0, lsr r0
    2ef8:	31303030 	teqcc	r0, r0, lsr r0
    2efc:	43435200 	movtmi	r5, #12800	; 0x3200
    2f00:	4746435f 	smlsldmi	r4, r6, pc, r3	; <UNPREDICTABLE>
    2f04:	50505f52 	subspl	r5, r0, r2, asr pc
    2f08:	5f324552 	svcpl	0x00324552
    2f0c:	5f4c4156 	svcpl	0x004c4156
    2f10:	4b53414d 	blmi	14d344c <FPU_ENABLE_CPACR_VALUE+0x5d344c>
    2f14:	30783020 	rsbscc	r3, r8, r0, lsr #32
    2f18:	36303030 			; <UNDEFINED> instruction: 0x36303030
    2f1c:	00303030 	eorseq	r3, r0, r0, lsr r0
    2f20:	4f495047 	svcmi	0x00495047
    2f24:	5f44495f 	svcpl	0x0044495f
    2f28:	50470041 	subpl	r0, r7, r1, asr #32
    2f2c:	495f4f49 	ldmdbmi	pc, {r0, r3, r6, r8, r9, sl, fp, lr}^	; <UNPREDICTABLE>
    2f30:	00435f44 	subeq	r5, r3, r4, asr #30
    2f34:	4f495047 	svcmi	0x00495047
    2f38:	5f44495f 	svcpl	0x0044495f
    2f3c:	50470044 	subpl	r0, r7, r4, asr #32
    2f40:	495f4f49 	ldmdbmi	pc, {r0, r3, r6, r8, r9, sl, fp, lr}^	; <UNPREDICTABLE>
    2f44:	00455f44 	subeq	r5, r5, r4, asr #30
    2f48:	4f495047 	svcmi	0x00495047
    2f4c:	5f44495f 	svcpl	0x0044495f
    2f50:	43520048 	cmpmi	r2, #72	; 0x48
    2f54:	4c505f43 	mrrcmi	15, 4, r5, r0, cr3
    2f58:	4746434c 	strbmi	r4, [r6, -ip, asr #6]
    2f5c:	4c505f52 	mrrcmi	15, 5, r5, r0, cr2
    2f60:	4f5f4d4c 	svcmi	0x005f4d4c
    2f64:	45534646 	ldrbmi	r4, [r3, #-1606]	; 0xfffff9ba
    2f68:	00302054 	eorseq	r2, r0, r4, asr r0
    2f6c:	4f495047 	svcmi	0x00495047
    2f70:	4e49505f 	mcrmi	0, 2, r5, cr9, cr15, {2}
    2f74:	2034315f 	eorscs	r3, r4, pc, asr r1
    2f78:	30347830 	eorscc	r7, r4, r0, lsr r8
    2f7c:	52003030 	andpl	r3, r0, #48	; 0x30
    2f80:	435f4343 	cmpmi	pc, #201326593	; 0xc000001
    2f84:	5f524746 	svcpl	0x00524746
    2f88:	45505248 	ldrbmi	r5, [r0, #-584]	; 0xfffffdb8
    2f8c:	46464f5f 			; <UNDEFINED> instruction: 0x46464f5f
    2f90:	20544553 	subscs	r4, r4, r3, asr r5
    2f94:	53550034 	cmppl	r5, #52	; 0x34
    2f98:	5f545241 	svcpl	0x00545241
    2f9c:	5f525242 	svcpl	0x00525242
    2fa0:	5f564944 	svcpl	0x00564944
    2fa4:	544e414d 	strbpl	r4, [lr], #-333	; 0xfffffeb3
    2fa8:	46464f5f 			; <UNDEFINED> instruction: 0x46464f5f
    2fac:	20544553 	subscs	r4, r4, r3, asr r5
    2fb0:	53550034 	cmppl	r5, #52	; 0x34
    2fb4:	5f545241 	svcpl	0x00545241
    2fb8:	4e454449 	cdpmi	4, 4, cr4, cr5, cr9, {2}
    2fbc:	49464954 	stmdbmi	r6, {r2, r4, r6, r8, fp, lr}^
    2fc0:	455f5245 	ldrbmi	r5, [pc, #-581]	; 2d83 <SCB_AIRCR_PRIGROUP_MASK+0x2683>
    2fc4:	49504700 	ldmdbmi	r0, {r8, r9, sl, lr}^
    2fc8:	49505f4f 	ldmdbmi	r0, {r0, r1, r2, r3, r6, r8, r9, sl, fp, ip, lr}^
    2fcc:	20335f4e 	eorscs	r5, r3, lr, asr #30
    2fd0:	30307830 	eorscc	r7, r0, r0, lsr r8
    2fd4:	55003830 	strpl	r3, [r0, #-2096]	; 0xfffff7d0
    2fd8:	54524153 	ldrbpl	r4, [r2], #-339	; 0xfffffead
    2fdc:	52425f31 	subpl	r5, r2, #49, 30	; 0xc4
    2fe0:	44415f52 	strbmi	r5, [r1], #-3922	; 0xfffff0ae
    2fe4:	53455244 	movtpl	r5, #21060	; 0x5244
    2fe8:	78302053 	ldmdavc	r0!, {r0, r1, r4, r6, sp}
    2fec:	31303034 	teqcc	r0, r4, lsr r0
    2ff0:	38303031 	ldmdacc	r0!, {r0, r4, r5, ip, sp}
    2ff4:	43435200 	movtmi	r5, #12800	; 0x3200
    2ff8:	4248415f 	submi	r4, r8, #-1073741801	; 0xc0000017
    2ffc:	524e4531 	subpl	r4, lr, #205520896	; 0xc400000
    3000:	4950475f 	ldmdbmi	r0, {r0, r1, r2, r3, r4, r6, r8, r9, sl, lr}^
    3004:	4e45414f 	dvfmism	f4, f5, #10.0
    3008:	30783020 	rsbscc	r3, r8, r0, lsr #32
    300c:	30303030 	eorscc	r3, r0, r0, lsr r0
    3010:	00313030 	eorseq	r3, r1, r0, lsr r0
    3014:	5f434352 	svcpl	0x00434352
    3018:	31424841 	cmpcc	r2, r1, asr #16
    301c:	5f524e45 	svcpl	0x00524e45
    3020:	49474552 	stmdbmi	r7, {r1, r4, r6, r8, sl, lr}^
    3024:	52455453 	subpl	r5, r5, #1392508928	; 0x53000000
    3028:	76282820 	strtvc	r2, [r8], -r0, lsr #16
    302c:	74616c6f 	strbtvc	r6, [r1], #-3183	; 0xfffff391
    3030:	20656c69 	rsbcs	r6, r5, r9, ror #24
    3034:	746e6975 	strbtvc	r6, [lr], #-2421	; 0xfffff68b
    3038:	745f3233 	ldrbvc	r3, [pc], #-563	; 3040 <SCB_AIRCR_PRIGROUP_MASK+0x2940>
    303c:	4352292a 	cmpmi	r2, #688128	; 0xa8000
    3040:	48415f43 	stmdami	r1, {r0, r1, r6, r8, r9, sl, fp, ip, lr}^
    3044:	4e453142 	dvfmism	f3, f5, f2
    3048:	44415f52 	strbmi	r5, [r1], #-3922	; 0xfffff0ae
    304c:	53455244 	movtpl	r5, #21060	; 0x5244
    3050:	72002953 	andvc	r2, r0, #1359872	; 0x14c000
    3054:	765f6765 	ldrbvc	r6, [pc], -r5, ror #14
    3058:	52006c61 	andpl	r6, r0, #24832	; 0x6100
    305c:	415f4343 	cmpmi	pc, r3, asr #6
    3060:	45324250 	ldrmi	r4, [r2, #-592]!	; 0xfffffdb0
    3064:	555f524e 	ldrbpl	r5, [pc, #-590]	; 2e1e <SCB_AIRCR_PRIGROUP_MASK+0x271e>
    3068:	54524153 	ldrbpl	r4, [r2], #-339	; 0xfffffead
    306c:	204e4536 	subcs	r4, lr, r6, lsr r5
    3070:	30307830 	eorscc	r7, r0, r0, lsr r8
    3074:	30303030 	eorscc	r3, r0, r0, lsr r0
    3078:	55003032 	strpl	r3, [r0, #-50]	; 0xffffffce
    307c:	54524153 	ldrbpl	r4, [r2], #-339	; 0xfffffead
    3080:	3352435f 	cmpcc	r2, #2080374785	; 0x7c000001
    3084:	454e4f5f 	strbmi	r4, [lr, #-3935]	; 0xfffff0a1
    3088:	20544942 	subscs	r4, r4, r2, asr #18
    308c:	30307830 	eorscc	r7, r0, r0, lsr r8
    3090:	38303030 	ldmdacc	r0!, {r4, r5, ip, sp}
    3094:	47003030 	smladxmi	r0, r0, r0, r3
    3098:	5f4f4950 	svcpl	0x004f4950
    309c:	5f4e4950 	svcpl	0x004e4950
    30a0:	78302037 	ldmdavc	r0!, {r0, r1, r2, r4, r5, sp}
    30a4:	30383030 	eorscc	r3, r8, r0, lsr r0
    30a8:	414c4600 	cmpmi	ip, r0, lsl #12
    30ac:	415f4853 	cmpmi	pc, r3, asr r8	; <UNPREDICTABLE>
    30b0:	495f5243 	ldmdbmi	pc, {r0, r1, r6, r9, ip, lr}^	; <UNPREDICTABLE>
    30b4:	48434143 	stmdami	r3, {r0, r1, r6, r8, lr}^
    30b8:	4e455f45 	cdpmi	15, 4, cr5, cr5, cr5, {2}
    30bc:	30783020 	rsbscc	r3, r8, r0, lsr #32
    30c0:	30303030 	eorscc	r3, r0, r0, lsr r0
    30c4:	00303032 	eorseq	r3, r0, r2, lsr r0
    30c8:	4f425f5f 	svcmi	0x00425f5f
    30cc:	5f445241 	svcpl	0x00445241
    30d0:	334d5453 	movtcc	r5, #54355	; 0xd453
    30d4:	30344632 	eorscc	r4, r4, r2, lsr r6
    30d8:	5f455231 	svcpl	0x00455231
    30dc:	5f505342 	svcpl	0x00505342
    30e0:	45574f50 	ldrbmi	r4, [r7, #-3920]	; 0xfffff0b0
    30e4:	5f485f52 	svcpl	0x00485f52
    30e8:	5200205f 	andpl	r2, r0, #95	; 0x5f
    30ec:	435f4343 	cmpmi	pc, #201326593	; 0xc000001
    30f0:	5f524746 	svcpl	0x00524746
    30f4:	45525050 	ldrbmi	r5, [r2, #-80]	; 0xffffffb0
    30f8:	464f5f32 			; <UNDEFINED> instruction: 0x464f5f32
    30fc:	54455346 	strbpl	r5, [r5], #-838	; 0xfffffcba
    3100:	00333120 	eorseq	r3, r3, r0, lsr #2
    3104:	464e4f43 	strbmi	r4, [lr], -r3, asr #30
    3108:	555f4749 	ldrbpl	r4, [pc, #-1865]	; 29c7 <SCB_AIRCR_PRIGROUP_MASK+0x22c7>
    310c:	5f545241 	svcpl	0x00545241
    3110:	54544553 	ldrbpl	r4, [r4], #-1363	; 0xfffffaad
    3114:	53474e49 	movtpl	r4, #32329	; 0x7e49
    3118:	2e207b20 	vmulcs.f64	d7, d0, d16
    311c:	64756162 	ldrbtvs	r6, [r5], #-354	; 0xfffffe9e
    3120:	65746172 	ldrbvs	r6, [r4, #-370]!	; 0xfffffe8e
    3124:	31203d20 			; <UNDEFINED> instruction: 0x31203d20
    3128:	30323531 	eorscc	r3, r2, r1, lsr r5
    312c:	2e202c30 	mcrcs	12, 1, r2, cr0, cr0, {1}
    3130:	64726f77 	ldrbtvs	r6, [r2], #-3959	; 0xfffff089
    3134:	6e656c5f 	mcrvs	12, 3, r6, cr5, cr15, {2}
    3138:	20687467 	rsbcs	r7, r8, r7, ror #8
    313c:	2c38203d 	ldccs	0, cr2, [r8], #-244	; 0xffffff0c
    3140:	74732e20 	ldrbtvc	r2, [r3], #-3616	; 0xfffff1e0
    3144:	625f706f 	subsvs	r7, pc, #111	; 0x6f
    3148:	20737469 	rsbscs	r7, r3, r9, ror #8
    314c:	4553203d 	ldrbmi	r2, [r3, #-61]	; 0xffffffc3
    3150:	4c414952 	mcrrmi	9, 5, r4, r1, cr2	; <UNPREDICTABLE>
    3154:	4f54535f 	svcmi	0x0054535f
    3158:	49425f50 	stmdbmi	r2, {r4, r6, r8, r9, sl, fp, ip, lr}^
    315c:	315f5354 	cmpcc	pc, r4, asr r3	; <UNPREDICTABLE>
    3160:	702e202c 	eorvc	r2, lr, ip, lsr #32
    3164:	69747261 	ldmdbvs	r4!, {r0, r5, r6, r9, ip, sp, lr}^
    3168:	3d207974 			; <UNDEFINED> instruction: 0x3d207974
    316c:	52455320 	subpl	r5, r5, #32, 6	; 0x80000000
    3170:	5f4c4149 	svcpl	0x004c4149
    3174:	49524150 	ldmdbmi	r2, {r4, r6, r8, lr}^
    3178:	4e5f5954 			; <UNDEFINED> instruction: 0x4e5f5954
    317c:	2c454e4f 	mcrrcs	14, 4, r4, r5, cr15
    3180:	74632e20 	strbtvc	r2, [r3], #-3616	; 0xfffff1e0
    3184:	665f6c72 			; <UNDEFINED> instruction: 0x665f6c72
    3188:	20776f6c 	rsbscs	r6, r7, ip, ror #30
    318c:	4553203d 	ldrbmi	r2, [r3, #-61]	; 0xffffffc3
    3190:	4c414952 	mcrrmi	9, 5, r4, r1, cr2	; <UNPREDICTABLE>
    3194:	5254435f 	subspl	r4, r4, #2080374785	; 0x7c000001
    3198:	4c465f4c 	mcrrmi	15, 4, r5, r6, cr12
    319c:	4e5f574f 	cdpmi	7, 5, cr5, cr15, cr15, {2}
    31a0:	20454e4f 	subcs	r4, r5, pc, asr #28
    31a4:	5355007d 	cmppl	r5, #125	; 0x7d
    31a8:	32545241 	subscc	r5, r4, #268435460	; 0x10000004
    31ac:	3152435f 	cmpcc	r2, pc, asr r3
    31b0:	4444415f 	strbmi	r4, [r4], #-351	; 0xfffffea1
    31b4:	53534552 	cmppl	r3, #343932928	; 0x14800000
    31b8:	34783020 	ldrbtcc	r3, [r8], #-32	; 0xffffffe0
    31bc:	34303030 	ldrtcc	r3, [r0], #-48	; 0xffffffd0
    31c0:	00433034 	subeq	r3, r3, r4, lsr r0
    31c4:	4f495047 	svcmi	0x00495047
    31c8:	464c415f 			; <UNDEFINED> instruction: 0x464c415f
    31cc:	5f434e55 	svcpl	0x00434e55
    31d0:	31203131 			; <UNDEFINED> instruction: 0x31203131
    31d4:	53550031 	cmppl	r5, #49	; 0x31
    31d8:	5f545241 	svcpl	0x00545241
    31dc:	5f325243 	svcpl	0x00325243
    31e0:	504f5453 	subpl	r5, pc, r3, asr r4	; <UNPREDICTABLE>
    31e4:	53414d5f 	movtpl	r4, #7519	; 0x1d5f
    31e8:	7830204b 	ldmdavc	r0!, {r0, r1, r3, r6, sp}
    31ec:	30303030 	eorscc	r3, r0, r0, lsr r0
    31f0:	30303033 	eorscc	r3, r0, r3, lsr r0
    31f4:	4e4f4300 	cdpmi	3, 4, cr4, cr15, cr0, {0}
    31f8:	5f474946 	svcpl	0x00474946
    31fc:	4e49414d 	dvfmiem	f4, f1, #5.0
    3200:	4d49545f 	cfstrdmi	mvd5, [r9, #-380]	; 0xfffffe84
    3204:	545f5245 	ldrbpl	r5, [pc], #-581	; 320c <SCB_AIRCR_PRIGROUP_MASK+0x2b0c>
    3208:	5f4b4349 	svcpl	0x004b4349
    320c:	51455246 	cmppl	r5, r6, asr #4
    3210:	30303120 	eorscc	r3, r0, r0, lsr #2
    3214:	43435200 	movtmi	r5, #12800	; 0x3200
    3218:	4746435f 	smlsldmi	r4, r6, pc, r3	; <UNPREDICTABLE>
    321c:	52485f52 	subpl	r5, r8, #328	; 0x148
    3220:	4d5f4550 	cfldr64mi	mvdx4, [pc, #-320]	; 30e8 <SCB_AIRCR_PRIGROUP_MASK+0x29e8>
    3224:	204b5341 	subcs	r5, fp, r1, asr #6
    3228:	30307830 	eorscc	r7, r0, r0, lsr r8
    322c:	30303030 	eorscc	r3, r0, r0, lsr r0
    3230:	5f003046 	svcpl	0x00003046
    3234:	5059545f 	subspl	r5, r9, pc, asr r4
    3238:	535f5345 	cmppl	pc, #335544321	; 0x14000001
    323c:	45444454 	strbmi	r4, [r4, #-1108]	; 0xfffffbac
    3240:	5f485f46 	svcpl	0x00485f46
    3244:	4700205f 	smlsdmi	r0, pc, r0, r2	; <UNPREDICTABLE>
    3248:	5f4f4950 	svcpl	0x004f4950
    324c:	5059544f 	subspl	r5, r9, pc, asr #8
    3250:	4f5f5245 	svcmi	0x005f5245
    3254:	45534646 	ldrbmi	r4, [r3, #-1606]	; 0xfffff9ba
    3258:	78302054 	ldmdavc	r0!, {r2, r4, r6, sp}
    325c:	55003430 	strpl	r3, [r0, #-1072]	; 0xfffffbd0
    3260:	54524153 	ldrbpl	r4, [r2], #-339	; 0xfffffead
    3264:	4544495f 	strbmi	r4, [r4, #-2399]	; 0xfffff6a1
    3268:	4649544e 	strbmi	r5, [r9], -lr, asr #8
    326c:	00524549 	subseq	r4, r2, r9, asr #10
    3270:	4f495047 	svcmi	0x00495047
    3274:	444f4d5f 	strbmi	r4, [pc], #-3423	; 327c <SCB_AIRCR_PRIGROUP_MASK+0x2b7c>
    3278:	4f5f5245 	svcmi	0x005f5245
    327c:	45534646 	ldrbmi	r4, [r3, #-1606]	; 0xfffff9ba
    3280:	78302054 	ldmdavc	r0!, {r2, r4, r6, sp}
    3284:	47003030 	smladxmi	r0, r0, r0, r3
    3288:	5f4f4950 	svcpl	0x004f4950
    328c:	55464c41 	strbpl	r4, [r6, #-3137]	; 0xfffff3bf
    3290:	375f434e 	ldrbcc	r4, [pc, -lr, asr #6]
    3294:	47003720 	strmi	r3, [r0, -r0, lsr #14]
    3298:	5f4f4950 	svcpl	0x004f4950
    329c:	45444f4d 	strbmi	r4, [r4, #-3917]	; 0xfffff0b3
    32a0:	46464f5f 			; <UNDEFINED> instruction: 0x46464f5f
    32a4:	20544553 	subscs	r4, r4, r3, asr r5
    32a8:	50470030 	subpl	r0, r7, r0, lsr r0
    32ac:	495f4f49 	ldmdbmi	pc, {r0, r3, r6, r8, r9, sl, fp, lr}^	; <UNPREDICTABLE>
    32b0:	544e4544 	strbpl	r4, [lr], #-1348	; 0xfffffabc
    32b4:	45494649 	strbmi	r4, [r9, #-1609]	; 0xfffff9b7
    32b8:	4f500052 	svcmi	0x00500052
    32bc:	5f524557 	svcpl	0x00524557
    32c0:	4c414353 	mcrrmi	3, 5, r4, r1, cr3
    32c4:	5f474e49 	svcpl	0x00474e49
    32c8:	45444f4d 	strbmi	r4, [r4, #-3917]	; 0xfffff0b3
    32cc:	5200335f 	andpl	r3, r0, #2080374785	; 0x7c000001
    32d0:	415f4343 	cmpmi	pc, r3, asr #6
    32d4:	45324250 	ldrmi	r4, [r2, #-592]!	; 0xfffffdb0
    32d8:	555f524e 	ldrbpl	r5, [pc, #-590]	; 3092 <SCB_AIRCR_PRIGROUP_MASK+0x2992>
    32dc:	54524153 	ldrbpl	r4, [r2], #-339	; 0xfffffead
    32e0:	204e4531 	subcs	r4, lr, r1, lsr r5
    32e4:	30307830 	eorscc	r7, r0, r0, lsr r8
    32e8:	30303030 	eorscc	r3, r0, r0, lsr r0
    32ec:	47003031 	smladxmi	r0, r1, r0, r3
    32f0:	5f4f4950 	svcpl	0x004f4950
    32f4:	55464c41 	strbpl	r4, [r6, #-3137]	; 0xfffff3bf
    32f8:	325f434e 	subscc	r4, pc, #939524097	; 0x38000001
    32fc:	52003220 	andpl	r3, r0, #32, 4
    3300:	435f4343 	cmpmi	pc, #201326593	; 0xc000001
    3304:	53485f52 	movtpl	r5, #36690	; 0x8f52
    3308:	49525449 	ldmdbmi	r2, {r0, r3, r6, sl, ip, lr}^
    330c:	414d5f4d 	cmpmi	sp, sp, asr #30
    3310:	30204b53 	eorcc	r4, r0, r3, asr fp
    3314:	30303078 	eorscc	r3, r0, r8, ror r0
    3318:	46303030 			; <UNDEFINED> instruction: 0x46303030
    331c:	53420038 	movtpl	r0, #8248	; 0x2038
    3320:	4c435f50 	mcrrmi	15, 5, r5, r3, cr0
    3324:	5f4b434f 	svcpl	0x004b434f
    3328:	505f4449 	subspl	r4, pc, r9, asr #8
    332c:	314b4c43 	cmpcc	fp, r3, asr #24
    3330:	50534200 	subspl	r4, r3, r0, lsl #4
    3334:	4f4c435f 	svcmi	0x004c435f
    3338:	495f4b43 	ldmdbmi	pc, {r0, r1, r6, r8, r9, fp, lr}^	; <UNPREDICTABLE>
    333c:	43505f44 	cmpmi	r0, #68, 30	; 0x110
    3340:	00324b4c 	eorseq	r4, r2, ip, asr #22
    3344:	31544e49 	cmpcc	r4, r9, asr #28
    3348:	494d5f36 	stmdbmi	sp, {r1, r2, r4, r5, r8, r9, sl, fp, ip, lr}^
    334c:	2d28204e 	stccs	0, cr2, [r8, #-312]!	; 0xfffffec8
    3350:	36373233 			; <UNDEFINED> instruction: 0x36373233
    3354:	50002938 	andpl	r2, r0, r8, lsr r9
    3358:	435f5257 	cmpmi	pc, #1879048197	; 0x70000005
    335c:	41425f52 	cmpmi	r2, r2, asr pc
    3360:	415f4553 	cmpmi	pc, r3, asr r5	; <UNPREDICTABLE>
    3364:	45524444 	ldrbmi	r4, [r2, #-1092]	; 0xfffffbbc
    3368:	30205353 	eorcc	r5, r0, r3, asr r3
    336c:	30303478 	eorscc	r3, r0, r8, ror r4
    3370:	30303730 	eorscc	r3, r0, r0, lsr r7
    3374:	50470030 	subpl	r0, r7, r0, lsr r0
    3378:	505f4f49 	subspl	r4, pc, r9, asr #30
    337c:	315f4e49 	cmpcc	pc, r9, asr #28
    3380:	78302035 	ldmdavc	r0!, {r0, r2, r4, r5, sp}
    3384:	30303038 	eorscc	r3, r0, r8, lsr r0
    3388:	4f4c4300 	svcmi	0x004c4300
    338c:	495f4b43 	ldmdbmi	pc, {r0, r1, r6, r8, r9, fp, lr}^	; <UNPREDICTABLE>
    3390:	544e4544 	strbpl	r4, [lr], #-1348	; 0xfffffabc
    3394:	45494649 	strbmi	r4, [r9, #-1609]	; 0xfffff9b7
    3398:	00545f52 	subseq	r5, r4, r2, asr pc
    339c:	4e524157 	mrcmi	1, 2, r4, cr2, cr7, {2}
    33a0:	5f474e49 	svcpl	0x00474e49
    33a4:	5f474f4c 	svcpl	0x00474f4c
    33a8:	4556454c 	ldrbmi	r4, [r6, #-1356]	; 0xfffffab4
    33ac:	0032204c 	eorseq	r2, r2, ip, asr #32
    33b0:	5f505342 	svcpl	0x00505342
    33b4:	434f4c43 	movtmi	r4, #64579	; 0xfc43
    33b8:	44495f4b 	strbmi	r5, [r9], #-3915	; 0xfffff0b5
    33bc:	4c43485f 	mcrrmi	8, 5, r4, r3, cr15
    33c0:	6975004b 	ldmdbvs	r5!, {r0, r1, r3, r6}^
    33c4:	5f38746e 	svcpl	0x0038746e
    33c8:	43520074 	cmpmi	r2, #116	; 0x74
    33cc:	52435f43 	subpl	r5, r3, #268	; 0x10c
    33d0:	4444415f 	strbmi	r4, [r4], #-351	; 0xfffffea1
    33d4:	53534552 	cmppl	r3, #343932928	; 0x14800000
    33d8:	34783020 	ldrbtcc	r3, [r8], #-32	; 0xffffffe0
    33dc:	33323030 	teqcc	r2, #48	; 0x30
    33e0:	00303038 	eorseq	r3, r0, r8, lsr r0
    33e4:	53414c46 	movtpl	r4, #7238	; 0x1c46
    33e8:	43415f48 	movtmi	r5, #8008	; 0x1f48
    33ec:	43445f52 	movtmi	r5, #20306	; 0x4f52
    33f0:	45484341 	strbmi	r4, [r8, #-833]	; 0xfffffcbf
    33f4:	204e455f 	subcs	r4, lr, pc, asr r5
    33f8:	30307830 	eorscc	r7, r0, r0, lsr r8
    33fc:	34303030 	ldrtcc	r3, [r0], #-48	; 0xffffffd0
    3400:	45003030 	strmi	r3, [r0, #-48]	; 0xffffffd0
    3404:	524f5252 	subpl	r5, pc, #536870917	; 0x20000005
    3408:	474f4c5f 	smlsldmi	r4, pc, pc, ip	; <UNPREDICTABLE>
    340c:	56454c5f 			; <UNDEFINED> instruction: 0x56454c5f
    3410:	33204c45 			; <UNDEFINED> instruction: 0x33204c45
    3414:	52455300 	subpl	r5, r5, #0, 6
    3418:	5f4c4149 	svcpl	0x004c4149
    341c:	4c525443 	cfldrdmi	mvd5, [r2], {67}	; 0x43
    3420:	4f4c465f 	svcmi	0x004c465f
    3424:	54525f57 	ldrbpl	r5, [r2], #-3927	; 0xfffff0a9
    3428:	00332053 	eorseq	r2, r3, r3, asr r0
    342c:	455f4f4e 	ldrbmi	r4, [pc, #-3918]	; 24e6 <SCB_AIRCR_PRIGROUP_MASK+0x1de6>
    3430:	524f5252 	subpl	r5, pc, #536870917	; 0x20000005
    3434:	41535500 	cmpmi	r3, r0, lsl #10
    3438:	5f365452 	svcpl	0x00365452
    343c:	5f325243 	svcpl	0x00325243
    3440:	52444441 	subpl	r4, r4, #1090519040	; 0x41000000
    3444:	20535345 	subscs	r5, r3, r5, asr #6
    3448:	30347830 	eorscc	r7, r4, r0, lsr r8
    344c:	34313130 	ldrtcc	r3, [r1], #-304	; 0xfffffed0
    3450:	55003031 	strpl	r3, [r0, #-49]	; 0xffffffcf
    3454:	54524153 	ldrbpl	r4, [r2], #-339	; 0xfffffead
    3458:	3252435f 	subscc	r4, r2, #2080374785	; 0x7c000001
    345c:	4f54535f 	svcmi	0x0054535f
    3460:	20315f50 	eorscs	r5, r1, r0, asr pc
    3464:	30307830 	eorscc	r7, r0, r0, lsr r8
    3468:	30303030 	eorscc	r3, r0, r0, lsr r0
    346c:	55003030 	strpl	r3, [r0, #-48]	; 0xffffffd0
    3470:	54524153 	ldrbpl	r4, [r2], #-339	; 0xfffffead
    3474:	52425f32 	subpl	r5, r2, #50, 30	; 0xc8
    3478:	44415f52 	strbmi	r5, [r1], #-3922	; 0xfffff0ae
    347c:	53455244 	movtpl	r5, #21060	; 0x5244
    3480:	78302053 	ldmdavc	r0!, {r0, r1, r4, r6, sp}
    3484:	30303034 	eorscc	r3, r0, r4, lsr r0
    3488:	38303434 	ldmdacc	r0!, {r2, r4, r5, sl, ip, sp}
    348c:	43435200 	movtmi	r5, #12800	; 0x3200
    3490:	4c4c505f 	mcrrmi	0, 5, r5, ip, cr15
    3494:	52474643 	subpl	r4, r7, #70254592	; 0x4300000
    3498:	4c4c505f 	mcrrmi	0, 5, r5, ip, cr15
    349c:	414d5f4d 	cmpmi	sp, sp, asr #30
    34a0:	30204b53 	eorcc	r4, r0, r3, asr fp
    34a4:	30303078 	eorscc	r3, r0, r8, ror r0
    34a8:	33303030 	teqcc	r0, #48	; 0x30
    34ac:	43520046 	cmpmi	r2, #70	; 0x46
    34b0:	46435f43 	strbmi	r5, [r3], -r3, asr #30
    34b4:	505f5247 	subspl	r5, pc, r7, asr #4
    34b8:	31455250 	cmpcc	r5, r0, asr r2
    34bc:	46464f5f 			; <UNDEFINED> instruction: 0x46464f5f
    34c0:	20544553 	subscs	r4, r4, r3, asr r5
    34c4:	52003031 	andpl	r3, r0, #49	; 0x31
    34c8:	505f4343 	subspl	r4, pc, r3, asr #6
    34cc:	46434c4c 	strbmi	r4, [r3], -ip, asr #24
    34d0:	505f5247 	subspl	r5, pc, r7, asr #4
    34d4:	5f4e4c4c 	svcpl	0x004e4c4c
    34d8:	4b53414d 	blmi	14d3a14 <FPU_ENABLE_CPACR_VALUE+0x5d3a14>
    34dc:	30783020 	rsbscc	r3, r8, r0, lsr #32
    34e0:	37303030 			; <UNDEFINED> instruction: 0x37303030
    34e4:	00304346 	eorseq	r4, r0, r6, asr #6
    34e8:	4f495047 	svcmi	0x00495047
    34ec:	425f585f 	subsmi	r5, pc, #6225920	; 0x5f0000
    34f0:	5f455341 	svcpl	0x00455341
    34f4:	52444441 	subpl	r4, r4, #1090519040	; 0x41000000
    34f8:	20535345 	subscs	r5, r3, r5, asr #6
    34fc:	30347830 	eorscc	r7, r4, r0, lsr r8
    3500:	30303230 	eorscc	r3, r0, r0, lsr r2
    3504:	47003030 	smladxmi	r0, r0, r0, r3
    3508:	5f4f4950 	svcpl	0x004f4950
    350c:	55464c41 	strbpl	r4, [r6, #-3137]	; 0xfffff3bf
    3510:	315f434e 	cmpcc	pc, lr, asr #6
    3514:	30312030 	eorscc	r2, r1, r0, lsr r0
    3518:	52455300 	subpl	r5, r5, #0, 6
    351c:	5f4c4149 	svcpl	0x004c4149
    3520:	504f5453 	subpl	r5, pc, r3, asr r4	; <UNPREDICTABLE>
    3524:	5449425f 	strbpl	r4, [r9], #-607	; 0xfffffda1
    3528:	35305f53 	ldrcc	r5, [r0, #-3923]!	; 0xfffff0ad
    352c:	52003020 	andpl	r3, r0, #32
    3530:	435f4343 	cmpmi	pc, #201326593	; 0xc000001
    3534:	5f524746 	svcpl	0x00524746
    3538:	45525050 	ldrbmi	r5, [r2, #-80]	; 0xffffffb0
    353c:	414d5f31 	cmpmi	sp, r1, lsr pc
    3540:	30204b53 	eorcc	r4, r0, r3, asr fp
    3544:	30303078 	eorscc	r3, r0, r8, ror r0
    3548:	30433130 	subcc	r3, r3, r0, lsr r1
    354c:	50470030 	subpl	r0, r7, r0, lsr r0
    3550:	505f4f49 	subspl	r4, pc, r9, asr #30
    3554:	5f524455 	svcpl	0x00524455
    3558:	5346464f 	movtpl	r4, #26191	; 0x664f
    355c:	30205445 	eorcc	r5, r0, r5, asr #8
    3560:	00433078 	subeq	r3, r3, r8, ror r0
    3564:	5f434352 	svcpl	0x00434352
    3568:	434c4c50 	movtmi	r4, #52304	; 0xcc50
    356c:	5f524746 	svcpl	0x00524746
    3570:	514c4c50 	cmppl	ip, r0, asr ip
    3574:	53414d5f 	movtpl	r4, #7519	; 0x1d5f
    3578:	7830204b 	ldmdavc	r0!, {r0, r1, r3, r6, sp}
    357c:	30304630 	eorscc	r4, r0, r0, lsr r6
    3580:	30303030 	eorscc	r3, r0, r0, lsr r0
    3584:	49504700 	ldmdbmi	r0, {r8, r9, sl, lr}^
    3588:	49505f4f 	ldmdbmi	r0, {r0, r1, r2, r3, r6, r8, r9, sl, fp, ip, lr}^
    358c:	20365f4e 	eorscs	r5, r6, lr, asr #30
    3590:	30307830 	eorscc	r7, r0, r0, lsr r8
    3594:	47003034 	smladxmi	r0, r4, r0, r3
    3598:	5f4f4950 	svcpl	0x004f4950
    359c:	45505954 	ldrbmi	r5, [r0, #-2388]	; 0xfffff6ac
    35a0:	53414d5f 	movtpl	r4, #7519	; 0x1d5f
    35a4:	7830204b 	ldmdavc	r0!, {r0, r1, r3, r6, sp}
    35a8:	52003430 	andpl	r3, r0, #48, 8	; 0x30000000
    35ac:	435f4343 	cmpmi	pc, #201326593	; 0xc000001
    35b0:	5f524746 	svcpl	0x00524746
    35b4:	45505248 	ldrbmi	r5, [r0, #-584]	; 0xfffffdb8
    35b8:	5649445f 			; <UNDEFINED> instruction: 0x5649445f
    35bc:	78302031 	ldmdavc	r0!, {r0, r4, r5, sp}
    35c0:	30303030 	eorscc	r3, r0, r0, lsr r0
    35c4:	30303030 	eorscc	r3, r0, r0, lsr r0
    35c8:	41535500 	cmpmi	r3, r0, lsl #10
    35cc:	435f5452 	cmpmi	pc, #1375731712	; 0x52000000
    35d0:	4c5f3252 	lfmmi	f3, 2, [pc], {82}	; 0x52
    35d4:	4e454e49 	cdpmi	14, 4, cr4, cr5, cr9, {2}
    35d8:	30783020 	rsbscc	r3, r8, r0, lsr #32
    35dc:	34303030 	ldrtcc	r3, [r0], #-48	; 0xffffffd0
    35e0:	00303030 	eorseq	r3, r0, r0, lsr r0
    35e4:	52415355 	subpl	r5, r1, #1409286145	; 0x54000001
    35e8:	52435f54 	subpl	r5, r3, #84, 30	; 0x150
    35ec:	45525f31 	ldrbmi	r5, [r2, #-3889]	; 0xfffff0cf
    35f0:	30783020 	rsbscc	r3, r8, r0, lsr #32
    35f4:	30303030 	eorscc	r3, r0, r0, lsr r0
    35f8:	00343030 	eorseq	r3, r4, r0, lsr r0
    35fc:	5f434352 	svcpl	0x00434352
    3600:	52474643 	subpl	r4, r7, #70254592	; 0x4300000
    3604:	5357535f 	cmppl	r7, #2080374785	; 0x7c000001
    3608:	4c4c505f 	mcrrmi	0, 5, r5, ip, cr15
    360c:	30783020 	rsbscc	r3, r8, r0, lsr #32
    3610:	30303030 	eorscc	r3, r0, r0, lsr r0
    3614:	00383030 	eorseq	r3, r8, r0, lsr r0
    3618:	5f707362 	svcpl	0x00707362
    361c:	5f6b6c63 	svcpl	0x006b6c63
    3620:	74696e69 	strbtvc	r6, [r9], #-3689	; 0xfffff197
    3624:	49504700 	ldmdbmi	r0, {r8, r9, sl, lr}^
    3628:	46415f4f 	strbmi	r5, [r1], -pc, asr #30
    362c:	4f5f4c52 	svcmi	0x005f4c52
    3630:	45534646 	ldrbmi	r4, [r3, #-1606]	; 0xfffff9ba
    3634:	78302054 	ldmdavc	r0!, {r2, r4, r6, sp}
    3638:	52003032 	andpl	r3, r0, #50	; 0x32
    363c:	435f4343 	cmpmi	pc, #201326593	; 0xc000001
    3640:	5f524746 	svcpl	0x00524746
    3644:	45525050 	ldrbmi	r5, [r2, #-80]	; 0xffffffb0
    3648:	4e455f32 	mcrmi	15, 2, r5, cr5, cr2, {1}
    364c:	30783020 	rsbscc	r3, r8, r0, lsr #32
    3650:	38303030 	ldmdacc	r0!, {r4, r5, ip, sp}
    3654:	00303030 	eorseq	r3, r0, r0, lsr r0
    3658:	544e4955 	strbpl	r4, [lr], #-2389	; 0xfffff6ab
    365c:	4d5f3436 	cfldrdmi	mvd3, [pc, #-216]	; 358c <SCB_AIRCR_PRIGROUP_MASK+0x2e8c>
    3660:	30205841 	eorcc	r5, r0, r1, asr #16
    3664:	66666678 			; <UNDEFINED> instruction: 0x66666678
    3668:	66666666 	strbtvs	r6, [r6], -r6, ror #12
    366c:	66666666 	strbtvs	r6, [r6], -r6, ror #12
    3670:	66666666 	strbtvs	r6, [r6], -r6, ror #12
    3674:	4c4c5566 	cfstr64mi	mvdx5, [ip], {102}	; 0x66
    3678:	52455300 	subpl	r5, r5, #0, 6
    367c:	5f4c4149 	svcpl	0x004c4149
    3680:	4c525443 	cfldrdmi	mvd5, [r2], {67}	; 0x43
    3684:	4f4c465f 	svcmi	0x004c465f
    3688:	4f585f57 	svcmi	0x00585f57
    368c:	464f584e 	strbmi	r5, [pc], -lr, asr #16
    3690:	00312046 	eorseq	r2, r1, r6, asr #32
    3694:	5f707362 	svcpl	0x00707362
    3698:	5f6b6c63 	svcpl	0x006b6c63
    369c:	6f697067 	svcvs	0x00697067
    36a0:	616e655f 	cmnvs	lr, pc, asr r5
    36a4:	00656c62 	rsbeq	r6, r5, r2, ror #24
    36a8:	4e52454b 	cdpmi	5, 5, cr4, cr2, cr11, {2}
    36ac:	4c5f4c45 	mrrcmi	12, 4, r4, pc, cr5	; <UNPREDICTABLE>
    36b0:	4c5f474f 	mrrcmi	7, 4, r4, pc, cr15	; <UNPREDICTABLE>
    36b4:	4c455645 	mcrrmi	6, 4, r5, r5, cr5
    36b8:	52524520 	subspl	r4, r2, #32, 10	; 0x8000000
    36bc:	4c5f524f 	lfmmi	f5, 2, [pc], {79}	; 0x4f
    36c0:	4c5f474f 	mrrcmi	7, 4, r4, pc, cr15	; <UNPREDICTABLE>
    36c4:	4c455645 	mcrrmi	6, 4, r5, r5, cr5
    36c8:	50534200 	subspl	r4, r3, r0, lsl #4
    36cc:	4f4c435f 	svcmi	0x004c435f
    36d0:	495f4b43 	ldmdbmi	pc, {r0, r1, r6, r8, r9, fp, lr}^	; <UNPREDICTABLE>
    36d4:	50415f44 	subpl	r5, r1, r4, asr #30
    36d8:	545f3142 	ldrbpl	r3, [pc], #-322	; 36e0 <SCB_AIRCR_PRIGROUP_MASK+0x2fe0>
    36dc:	52454d49 	subpl	r4, r5, #4672	; 0x1240
    36e0:	41535500 	cmpmi	r3, r0, lsl #10
    36e4:	435f5452 	cmpmi	pc, #1375731712	; 0x52000000
    36e8:	495f3352 	ldmdbmi	pc, {r1, r4, r6, r8, r9, ip, sp}^	; <UNPREDICTABLE>
    36ec:	20504c52 	subscs	r4, r0, r2, asr ip
    36f0:	30307830 	eorscc	r7, r0, r0, lsr r8
    36f4:	30303030 	eorscc	r3, r0, r0, lsr r0
    36f8:	55003430 	strpl	r3, [r0, #-1072]	; 0xfffffbd0
    36fc:	54524153 	ldrbpl	r4, [r2], #-339	; 0xfffffead
    3700:	3152435f 	cmpcc	r2, pc, asr r3
    3704:	4943545f 	stmdbmi	r3, {r0, r1, r2, r3, r4, r6, sl, ip, lr}^
    3708:	78302045 	ldmdavc	r0!, {r0, r2, r6, sp}
    370c:	30303030 	eorscc	r3, r0, r0, lsr r0
    3710:	30343030 	eorscc	r3, r4, r0, lsr r0
    3714:	414c4600 	cmpmi	ip, r0, lsl #12
    3718:	4c5f4853 	mrrcmi	8, 5, r4, pc, cr3	; <UNPREDICTABLE>
    371c:	4e455441 	cdpmi	4, 4, cr5, cr5, cr1, {2}
    3720:	575f5943 	ldrbpl	r5, [pc, -r3, asr #18]
    3724:	00315f53 	eorseq	r5, r1, r3, asr pc
    3728:	52415355 	subpl	r5, r1, #1409286145	; 0x54000001
    372c:	52435f54 	subpl	r5, r3, #84, 30	; 0x150
    3730:	53505f31 	cmppl	r0, #49, 30	; 0xc4
    3734:	30783020 	rsbscc	r3, r8, r0, lsr #32
    3738:	30303030 	eorscc	r3, r0, r0, lsr r0
    373c:	00303032 	eorseq	r3, r0, r2, lsr r0
    3740:	53414c46 	movtpl	r4, #7238	; 0x1c46
    3744:	414c5f48 	cmpmi	ip, r8, asr #30
    3748:	434e4554 	movtmi	r4, #58708	; 0xe554
    374c:	53575f59 	cmppl	r7, #356	; 0x164
    3750:	5500325f 	strpl	r3, [r0, #-607]	; 0xfffffda1
    3754:	54524153 	ldrbpl	r4, [r2], #-339	; 0xfffffead
    3758:	52435f32 	subpl	r5, r3, #50, 30	; 0xc8
    375c:	45525f31 	ldrbmi	r5, [r2, #-3889]	; 0xfffff0cf
    3760:	54534947 	ldrbpl	r4, [r3], #-2375	; 0xfffff6b9
    3764:	28205245 	stmdacs	r0!, {r0, r2, r6, r9, ip, lr}
    3768:	6c6f7628 	stclvs	6, cr7, [pc], #-160	; 36d0 <SCB_AIRCR_PRIGROUP_MASK+0x2fd0>
    376c:	6c697461 	cfstrdvs	mvd7, [r9], #-388	; 0xfffffe7c
    3770:	69752065 	ldmdbvs	r5!, {r0, r2, r5, r6, sp}^
    3774:	3233746e 	eorscc	r7, r3, #1845493760	; 0x6e000000
    3778:	292a745f 	stmdbcs	sl!, {r0, r1, r2, r3, r4, r6, sl, ip, sp, lr}
    377c:	52415355 	subpl	r5, r1, #1409286145	; 0x54000001
    3780:	435f3254 	cmpmi	pc, #84, 4	; 0x40000005
    3784:	415f3152 	cmpmi	pc, r2, asr r1	; <UNPREDICTABLE>
    3788:	45524444 	ldrbmi	r4, [r2, #-1092]	; 0xfffffbbc
    378c:	00295353 	eoreq	r5, r9, r3, asr r3
    3790:	52415355 	subpl	r5, r1, #1409286145	; 0x54000001
    3794:	445f3254 	ldrbmi	r3, [pc], #-596	; 379c <SCB_AIRCR_PRIGROUP_MASK+0x309c>
    3798:	44415f52 	strbmi	r5, [r1], #-3922	; 0xfffff0ae
    379c:	53455244 	movtpl	r5, #21060	; 0x5244
    37a0:	78302053 	ldmdavc	r0!, {r0, r1, r4, r6, sp}
    37a4:	30303034 	eorscc	r3, r0, r4, lsr r0
    37a8:	34303434 	ldrtcc	r3, [r0], #-1076	; 0xfffffbcc
    37ac:	70736200 	rsbsvc	r6, r3, r0, lsl #4
    37b0:	6f6c635f 	svcvs	0x006c635f
    37b4:	5f736b63 	svcpl	0x00736b63
    37b8:	5f746567 	svcpl	0x00746567
    37bc:	71657266 	cmnvc	r5, r6, ror #4
    37c0:	49504700 	ldmdbmi	r0, {r8, r9, sl, lr}^
    37c4:	59545f4f 	ldmdbpl	r4, {r0, r1, r2, r3, r6, r8, r9, sl, fp, ip, lr}^
    37c8:	4f5f4550 	svcmi	0x005f4550
    37cc:	444e4550 	strbmi	r4, [lr], #-1360	; 0xfffffab0
    37d0:	4e494152 	mcrmi	1, 2, r4, cr9, cr2, {2}
    37d4:	30783020 	rsbscc	r3, r8, r0, lsr #32
    37d8:	50470034 	subpl	r0, r7, r4, lsr r0
    37dc:	505f4f49 	subspl	r4, pc, r9, asr #30
    37e0:	315f4e49 	cmpcc	pc, r9, asr #28
    37e4:	30783020 	rsbscc	r3, r8, r0, lsr #32
    37e8:	00323030 	eorseq	r3, r2, r0, lsr r0
    37ec:	53414c46 	movtpl	r4, #7238	; 0x1c46
    37f0:	414c5f48 	cmpmi	ip, r8, asr #30
    37f4:	434e4554 	movtmi	r4, #58708	; 0xe554
    37f8:	53575f59 	cmppl	r7, #356	; 0x164
    37fc:	5200385f 	andpl	r3, r0, #6225920	; 0x5f0000
    3800:	415f4343 	cmpmi	pc, r3, asr #6
    3804:	45314248 	ldrmi	r4, [r1, #-584]!	; 0xfffffdb8
    3808:	475f524e 	ldrbmi	r5, [pc, -lr, asr #4]
    380c:	444f4950 	strbmi	r4, [pc], #-2384	; 3814 <SCB_AIRCR_PRIGROUP_MASK+0x3114>
    3810:	30204e45 	eorcc	r4, r0, r5, asr #28
    3814:	30303078 	eorscc	r3, r0, r8, ror r0
    3818:	30303030 	eorscc	r3, r0, r0, lsr r0
    381c:	43520038 	cmpmi	r2, #56	; 0x38
    3820:	46435f43 	strbmi	r5, [r3], -r3, asr #30
    3824:	505f5247 	subspl	r5, pc, r7, asr #4
    3828:	32455250 	subcc	r5, r5, #80, 4
    382c:	5649445f 			; <UNDEFINED> instruction: 0x5649445f
    3830:	78302031 	ldmdavc	r0!, {r0, r4, r5, sp}
    3834:	30303030 	eorscc	r3, r0, r0, lsr r0
    3838:	30303030 	eorscc	r3, r0, r0, lsr r0
    383c:	49504700 	ldmdbmi	r0, {r8, r9, sl, lr}^
    3840:	4c415f4f 	mcrrmi	15, 4, r5, r1, cr15
    3844:	434e5546 	movtmi	r5, #58694	; 0xe546
    3848:	3120315f 			; <UNDEFINED> instruction: 0x3120315f
    384c:	41535500 	cmpmi	r3, r0, lsl #10
    3850:	435f5452 	cmpmi	pc, #1375731712	; 0x52000000
    3854:	4c5f3252 	lfmmi	f3, 2, [pc], {82}	; 0x52
    3858:	204c4342 	subcs	r4, ip, r2, asr #6
    385c:	30307830 	eorscc	r7, r0, r0, lsr r8
    3860:	31303030 	teqcc	r0, r0, lsr r0
    3864:	52003030 	andpl	r3, r0, #48	; 0x30
    3868:	435f4343 	cmpmi	pc, #201326593	; 0xc000001
    386c:	4c505f52 	mrrcmi	15, 5, r5, r0, cr2
    3870:	5332494c 	teqpl	r2, #76, 18	; 0x130000
    3874:	20594452 	subscs	r4, r9, r2, asr r4
    3878:	38307830 	ldmdacc	r0!, {r4, r5, fp, ip, sp, lr}
    387c:	30303030 	eorscc	r3, r0, r0, lsr r0
    3880:	62003030 	andvs	r3, r0, #48	; 0x30
    3884:	635f7073 	cmpvs	pc, #115	; 0x73
    3888:	705f6b6c 	subsvc	r6, pc, ip, ror #22
    388c:	695f6c6c 	ldmdbvs	pc, {r2, r3, r5, r6, sl, fp, sp, lr}^	; <UNPREDICTABLE>
    3890:	0074696e 	rsbseq	r6, r4, lr, ror #18
    3894:	4f495047 	svcmi	0x00495047
    3898:	464c415f 			; <UNDEFINED> instruction: 0x464c415f
    389c:	5f434e55 	svcpl	0x00434e55
    38a0:	00352035 	eorseq	r2, r5, r5, lsr r0
    38a4:	5f525750 	svcpl	0x00525750
    38a8:	525f5243 	subspl	r5, pc, #805306372	; 0x30000004
    38ac:	53494745 	movtpl	r4, #38725	; 0x9745
    38b0:	20524554 	subscs	r4, r2, r4, asr r5
    38b4:	6f762828 	svcvs	0x00762828
    38b8:	6974616c 	ldmdbvs	r4!, {r2, r3, r5, r6, r8, sp, lr}^
    38bc:	7520656c 	strvc	r6, [r0, #-1388]!	; 0xfffffa94
    38c0:	33746e69 	cmncc	r4, #1680	; 0x690
    38c4:	2a745f32 	bcs	1d1b594 <FPU_ENABLE_CPACR_VALUE+0xe1b594>
    38c8:	52575029 	subspl	r5, r7, #41	; 0x29
    38cc:	5f52435f 	svcpl	0x0052435f
    38d0:	45534142 	ldrbmi	r4, [r3, #-322]	; 0xfffffebe
    38d4:	4444415f 	strbmi	r4, [r4], #-351	; 0xfffffea1
    38d8:	53534552 	cmppl	r3, #343932928	; 0x14800000
    38dc:	50470029 	subpl	r0, r7, r9, lsr #32
    38e0:	4d5f4f49 	ldclmi	15, cr4, [pc, #-292]	; 37c4 <SCB_AIRCR_PRIGROUP_MASK+0x30c4>
    38e4:	5f45444f 	svcpl	0x0045444f
    38e8:	55504e49 	ldrbpl	r4, [r0, #-3657]	; 0xfffff1b7
    38ec:	78302054 	ldmdavc	r0!, {r2, r4, r6, sp}
    38f0:	53003030 	movwpl	r3, #48	; 0x30
    38f4:	41495245 	cmpmi	r9, r5, asr #4
    38f8:	41505f4c 	cmpmi	r0, ip, asr #30
    38fc:	59544952 	ldmdbpl	r4, {r1, r4, r6, r8, fp, lr}^
    3900:	4556455f 	ldrbmi	r4, [r6, #-1375]	; 0xfffffaa1
    3904:	0032204e 	eorseq	r2, r2, lr, asr #32
    3908:	434f4c43 	movtmi	r4, #64579	; 0xfc43
    390c:	44495f4b 	strbmi	r5, [r9], #-3915	; 0xfffff0b5
    3910:	49544e45 	ldmdbmi	r4, {r0, r2, r6, r9, sl, fp, lr}^
    3914:	52454946 	subpl	r4, r5, #1146880	; 0x118000
    3918:	6e697500 	cdpvs	5, 6, cr7, cr9, cr0, {0}
    391c:	5f363174 	svcpl	0x00363174
    3920:	53550074 	cmppl	r5, #116	; 0x74
    3924:	5f545241 	svcpl	0x00545241
    3928:	5f325243 	svcpl	0x00325243
    392c:	204c424c 	subcs	r4, ip, ip, asr #4
    3930:	30307830 	eorscc	r7, r0, r0, lsr r8
    3934:	30303030 	eorscc	r3, r0, r0, lsr r0
    3938:	62003032 	andvs	r3, r0, #50	; 0x32
    393c:	705f7073 	subsvc	r7, pc, r3, ror r0	; <UNPREDICTABLE>
    3940:	5f657270 	svcpl	0x00657270
    3944:	74636166 	strbtvc	r6, [r3], #-358	; 0xfffffe9a
    3948:	6c5f726f 	lfmvs	f7, 2, [pc], {111}	; 0x6f
    394c:	756b6f6f 	strbvc	r6, [fp, #-3951]!	; 0xfffff091
    3950:	43520070 	cmpmi	r2, #112	; 0x70
    3954:	52435f43 	subpl	r5, r3, #268	; 0x10c
    3958:	4c4c505f 	mcrrmi	0, 5, r5, ip, cr15
    395c:	20594452 	subscs	r4, r9, r2, asr r4
    3960:	32307830 	eorscc	r7, r0, #48, 16	; 0x300000
    3964:	30303030 	eorscc	r3, r0, r0, lsr r0
    3968:	49003030 	stmdbmi	r0, {r4, r5, ip, sp}
    396c:	3436544e 	ldrtcc	r5, [r6], #-1102	; 0xfffffbb2
    3970:	4e494d5f 	mcrmi	13, 2, r4, cr9, cr15, {2}
    3974:	392d2820 	pushcc	{r5, fp, sp}
    3978:	33333232 	teqcc	r3, #536870915	; 0x20000003
    397c:	33303237 	teqcc	r0, #1879048195	; 0x70000003
    3980:	34353836 	ldrtcc	r3, [r5], #-2102	; 0xfffff7ca
    3984:	38353737 	ldmdacc	r5!, {r0, r1, r2, r4, r5, r8, r9, sl, ip, sp}
    3988:	4c4c3730 	mcrrmi	7, 3, r3, ip, cr0
    398c:	31202d20 			; <UNDEFINED> instruction: 0x31202d20
    3990:	73750029 	cmnvc	r5, #41	; 0x29
    3994:	5f747261 	svcpl	0x00747261
    3998:	52006469 	andpl	r6, r0, #1761607680	; 0x69000000
    399c:	435f4343 	cmpmi	pc, #201326593	; 0xc000001
    39a0:	5f524746 	svcpl	0x00524746
    39a4:	45525050 	ldrbmi	r5, [r2, #-80]	; 0xffffffb0
    39a8:	4e455f31 	mcrmi	15, 2, r5, cr5, cr1, {1}
    39ac:	30783020 	rsbscc	r3, r8, r0, lsr #32
    39b0:	31303030 	teqcc	r0, r0, lsr r0
    39b4:	00303030 	eorseq	r3, r0, r0, lsr r0
    39b8:	5f707362 	svcpl	0x00707362
    39bc:	5f6b6c63 	svcpl	0x006b6c63
    39c0:	65736162 	ldrbvs	r6, [r3, #-354]!	; 0xfffffe9e
    39c4:	7379735f 	cmnvc	r9, #2080374785	; 0x7c000001
    39c8:	696e695f 	stmdbvs	lr!, {r0, r1, r2, r3, r4, r6, r8, fp, sp, lr}^
    39cc:	45530074 	ldrbmi	r0, [r3, #-116]	; 0xffffff8c
    39d0:	4c414952 	mcrrmi	9, 5, r4, r1, cr2	; <UNPREDICTABLE>
    39d4:	5254435f 	subspl	r4, r4, #2080374785	; 0x7c000001
    39d8:	4c465f4c 	mcrrmi	15, 4, r5, r6, cr12
    39dc:	435f574f 	cmpmi	pc, #20709376	; 0x13c0000
    39e0:	525f5354 	subspl	r5, pc, #84, 6	; 0x50000001
    39e4:	34205354 	strtcc	r5, [r0], #-852	; 0xfffffcac
    39e8:	52524500 	subspl	r4, r2, #0, 10
    39ec:	435f524f 	cmpmi	pc, #-268435452	; 0xf0000004
    39f0:	0045444f 	subeq	r4, r5, pc, asr #8
    39f4:	4f495047 	svcmi	0x00495047
    39f8:	4550535f 	ldrbmi	r5, [r0, #-863]	; 0xfffffca1
    39fc:	485f4445 	ldmdami	pc, {r0, r2, r6, sl, lr}^	; <UNPREDICTABLE>
    3a00:	20484749 	subcs	r4, r8, r9, asr #14
    3a04:	32307830 	eorscc	r7, r0, #48, 16	; 0x300000
    3a08:	41535500 	cmpmi	r3, r0, lsl #10
    3a0c:	435f5452 	cmpmi	pc, #1375731712	; 0x52000000
    3a10:	525f3152 	subspl	r3, pc, #-2147483628	; 0x80000014
    3a14:	30205557 	eorcc	r5, r0, r7, asr r5
    3a18:	30303078 	eorscc	r3, r0, r8, ror r0
    3a1c:	30303030 	eorscc	r3, r0, r0, lsr r0
    3a20:	4e490032 	mcrmi	0, 2, r0, cr9, cr2, {1}
    3a24:	4d5f3854 	ldclmi	8, cr3, [pc, #-336]	; 38dc <SCB_AIRCR_PRIGROUP_MASK+0x31dc>
    3a28:	28204e49 	stmdacs	r0!, {r0, r3, r6, r9, sl, fp, lr}
    3a2c:	3832312d 	ldmdacc	r2!, {r0, r2, r3, r5, r8, ip, sp}
    3a30:	53550029 	cmppl	r5, #41	; 0x29
    3a34:	5f545241 	svcpl	0x00545241
    3a38:	5f315243 	svcpl	0x00315243
    3a3c:	30204555 	eorcc	r4, r0, r5, asr r5
    3a40:	30303078 	eorscc	r3, r0, r8, ror r0
    3a44:	30303230 	eorscc	r3, r0, r0, lsr r2
    3a48:	53550030 	cmppl	r5, #48	; 0x30
    3a4c:	32545241 	subscc	r5, r4, #268435460	; 0x10000004
    3a50:	5f52535f 	svcpl	0x0052535f
    3a54:	49474552 	stmdbmi	r7, {r1, r4, r6, r8, sl, lr}^
    3a58:	52455453 	subpl	r5, r5, #1392508928	; 0x53000000
    3a5c:	76282820 	strtvc	r2, [r8], -r0, lsr #16
    3a60:	74616c6f 	strbtvc	r6, [r1], #-3183	; 0xfffff391
    3a64:	20656c69 	rsbcs	r6, r5, r9, ror #24
    3a68:	746e6975 	strbtvc	r6, [lr], #-2421	; 0xfffff68b
    3a6c:	745f3233 	ldrbvc	r3, [pc], #-563	; 3a74 <SCB_AIRCR_PRIGROUP_MASK+0x3374>
    3a70:	5355292a 	cmppl	r5, #688128	; 0xa8000
    3a74:	32545241 	subscc	r5, r4, #268435460	; 0x10000004
    3a78:	5f52535f 	svcpl	0x0052535f
    3a7c:	52444441 	subpl	r4, r4, #1090519040	; 0x41000000
    3a80:	29535345 	ldmdbcs	r3, {r0, r2, r6, r8, r9, ip, lr}^
    3a84:	43435200 	movtmi	r5, #12800	; 0x3200
    3a88:	4c4c505f 	mcrrmi	0, 5, r5, ip, cr15
    3a8c:	52474643 	subpl	r4, r7, #70254592	; 0x4300000
    3a90:	4c4c505f 	mcrrmi	0, 5, r5, ip, cr15
    3a94:	464f5f4e 	strbmi	r5, [pc], -lr, asr #30
    3a98:	54455346 	strbpl	r5, [r5], #-838	; 0xfffffcba
    3a9c:	45003620 	strmi	r3, [r0, #-1568]	; 0xfffff9e0
    3aa0:	524f5252 	subpl	r5, pc, #536870917	; 0x20000005
    3aa4:	544f4e5f 	strbpl	r4, [pc], #-3679	; 3aac <SCB_AIRCR_PRIGROUP_MASK+0x33ac>
    3aa8:	4156415f 	cmpmi	r6, pc, asr r1
    3aac:	42414c49 	submi	r4, r1, #18688	; 0x4900
    3ab0:	4700454c 	strmi	r4, [r0, -ip, asr #10]
    3ab4:	5f4f4950 	svcpl	0x004f4950
    3ab8:	45444f4d 	strbmi	r4, [r4, #-3917]	; 0xfffff0b3
    3abc:	414e415f 	cmpmi	lr, pc, asr r1
    3ac0:	20474f4c 	subcs	r4, r7, ip, asr #30
    3ac4:	33307830 	teqcc	r0, #48, 16	; 0x300000
    3ac8:	41535500 	cmpmi	r3, r0, lsl #10
    3acc:	5f315452 	svcpl	0x00315452
    3ad0:	5f325243 	svcpl	0x00325243
    3ad4:	52444441 	subpl	r4, r4, #1090519040	; 0x41000000
    3ad8:	20535345 	subscs	r5, r3, r5, asr #6
    3adc:	30347830 	eorscc	r7, r4, r0, lsr r8
    3ae0:	30313130 	eorscc	r3, r1, r0, lsr r1
    3ae4:	55003031 	strpl	r3, [r0, #-49]	; 0xffffffcf
    3ae8:	54524153 	ldrbpl	r4, [r2], #-339	; 0xfffffead
    3aec:	52445f31 	subpl	r5, r4, #49, 30	; 0xc4
    3af0:	4444415f 	strbmi	r4, [r4], #-351	; 0xfffffea1
    3af4:	53534552 	cmppl	r3, #343932928	; 0x14800000
    3af8:	34783020 	ldrbtcc	r3, [r8], #-32	; 0xffffffe0
    3afc:	31313030 	teqcc	r1, r0, lsr r0
    3b00:	00343030 	eorseq	r3, r4, r0, lsr r0
    3b04:	52415355 	subpl	r5, r1, #1409286145	; 0x54000001
    3b08:	52435f54 	subpl	r5, r3, #84, 30	; 0x150
    3b0c:	54435f33 	strbpl	r5, [r3], #-3891	; 0xfffff0cd
    3b10:	20454953 	subcs	r4, r5, r3, asr r9
    3b14:	30307830 	eorscc	r7, r0, r0, lsr r8
    3b18:	34303030 	ldrtcc	r3, [r0], #-48	; 0xffffffd0
    3b1c:	47003030 	smladxmi	r0, r0, r0, r3
    3b20:	5f4f4950 	svcpl	0x004f4950
    3b24:	45455053 	strbmi	r5, [r5, #-83]	; 0xffffffad
    3b28:	4c535f44 	mrrcmi	15, 4, r5, r3, cr4
    3b2c:	3020574f 	eorcc	r5, r0, pc, asr #14
    3b30:	00303078 	eorseq	r3, r0, r8, ror r0
    3b34:	5f434352 	svcpl	0x00434352
    3b38:	434c4c50 	movtmi	r4, #52304	; 0xcc50
    3b3c:	5f524746 	svcpl	0x00524746
    3b40:	514c4c50 	cmppl	ip, r0, asr ip
    3b44:	46464f5f 			; <UNDEFINED> instruction: 0x46464f5f
    3b48:	20544553 	subscs	r4, r4, r3, asr r5
    3b4c:	47003432 	smladxmi	r0, r2, r4, r3
    3b50:	5f4f4950 	svcpl	0x004f4950
    3b54:	5f4e4950 	svcpl	0x004e4950
    3b58:	78302032 	ldmdavc	r0!, {r1, r4, r5, sp}
    3b5c:	34303030 	ldrtcc	r3, [r0], #-48	; 0xffffffd0
    3b60:	41535500 	cmpmi	r3, r0, lsl #10
    3b64:	495f5452 	ldmdbmi	pc, {r1, r4, r6, sl, ip, lr}^	; <UNPREDICTABLE>
    3b68:	00315f44 	eorseq	r5, r1, r4, asr #30
    3b6c:	52415355 	subpl	r5, r1, #1409286145	; 0x54000001
    3b70:	44495f54 	strbmi	r5, [r9], #-3924	; 0xfffff0ac
    3b74:	5200325f 	andpl	r3, r0, #-268435451	; 0xf0000005
    3b78:	435f4343 	cmpmi	pc, #201326593	; 0xc000001
    3b7c:	5f524746 	svcpl	0x00524746
    3b80:	45525048 	ldrbmi	r5, [r2, #-72]	; 0xffffffb8
    3b84:	204e455f 	subcs	r4, lr, pc, asr r5
    3b88:	30307830 	eorscc	r7, r0, r0, lsr r8
    3b8c:	30303030 	eorscc	r3, r0, r0, lsr r0
    3b90:	55003038 	strpl	r3, [r0, #-56]	; 0xffffffc8
    3b94:	54524153 	ldrbpl	r4, [r2], #-339	; 0xfffffead
    3b98:	5f44495f 	svcpl	0x0044495f
    3b9c:	53550036 	cmppl	r5, #54	; 0x36
    3ba0:	5f545241 	svcpl	0x00545241
    3ba4:	5f315243 	svcpl	0x00315243
    3ba8:	45494550 	strbmi	r4, [r9, #-1360]	; 0xfffffab0
    3bac:	30783020 	rsbscc	r3, r8, r0, lsr #32
    3bb0:	30303030 	eorscc	r3, r0, r0, lsr r0
    3bb4:	00303031 	eorseq	r3, r0, r1, lsr r0
    3bb8:	49524553 	ldmdbmi	r2, {r0, r1, r4, r6, r8, sl, lr}^
    3bbc:	535f4c41 	cmppl	pc, #16640	; 0x4100
    3bc0:	5f504f54 	svcpl	0x00504f54
    3bc4:	53544942 	cmppl	r4, #1081344	; 0x108000
    3bc8:	2035315f 	eorscs	r3, r5, pc, asr r1
    3bcc:	554e0032 	strbpl	r0, [lr, #-50]	; 0xffffffce
    3bd0:	28204c4c 	stmdacs	r0!, {r2, r3, r6, sl, fp, lr}
    3bd4:	696f7628 	stmdbvs	pc!, {r3, r5, r9, sl, ip, sp, lr}^	; <UNPREDICTABLE>
    3bd8:	30292a64 	eorcc	r2, r9, r4, ror #20
    3bdc:	43520029 	cmpmi	r2, #41	; 0x29
    3be0:	52435f43 	subpl	r5, r3, #268	; 0x10c
    3be4:	4c4c505f 	mcrrmi	0, 5, r5, ip, cr15
    3be8:	4f533249 	svcmi	0x00533249
    3bec:	7830204e 	ldmdavc	r0!, {r1, r2, r3, r6, sp}
    3bf0:	30303430 	eorscc	r3, r0, r0, lsr r4
    3bf4:	30303030 	eorscc	r3, r0, r0, lsr r0
    3bf8:	544e4900 	strbpl	r4, [lr], #-2304	; 0xfffff700
    3bfc:	4d5f3436 	cfldrdmi	mvd3, [pc, #-216]	; 3b2c <SCB_AIRCR_PRIGROUP_MASK+0x342c>
    3c00:	39205841 	stmdbcc	r0!, {r0, r6, fp, ip, lr}
    3c04:	33333232 	teqcc	r3, #536870915	; 0x20000003
    3c08:	33303237 	teqcc	r0, #1879048195	; 0x70000003
    3c0c:	34353836 	ldrtcc	r3, [r5], #-2102	; 0xfffff7ca
    3c10:	38353737 	ldmdacc	r5!, {r0, r1, r2, r4, r5, r8, r9, sl, ip, sp}
    3c14:	4c4c3730 	mcrrmi	7, 3, r3, ip, cr0
    3c18:	43435200 	movtmi	r5, #12800	; 0x3200
    3c1c:	4250415f 	subsmi	r4, r0, #-1073741801	; 0xc0000017
    3c20:	524e4531 	subpl	r4, lr, #205520896	; 0xc400000
    3c24:	4444415f 	strbmi	r4, [r4], #-351	; 0xfffffea1
    3c28:	53534552 	cmppl	r3, #343932928	; 0x14800000
    3c2c:	34783020 	ldrbtcc	r3, [r8], #-32	; 0xffffffe0
    3c30:	33323030 	teqcc	r2, #48	; 0x30
    3c34:	00303438 	eorseq	r3, r0, r8, lsr r4
    3c38:	5f434352 	svcpl	0x00434352
    3c3c:	52474643 	subpl	r4, r7, #70254592	; 0x4300000
    3c40:	5f57535f 	svcpl	0x0057535f
    3c44:	204c4c50 	subcs	r4, ip, r0, asr ip
    3c48:	30307830 	eorscc	r7, r0, r0, lsr r8
    3c4c:	30303030 	eorscc	r3, r0, r0, lsr r0
    3c50:	47003230 	smladxmi	r0, r0, r2, r3
    3c54:	5f4f4950 	svcpl	0x004f4950
    3c58:	55464c41 	strbpl	r4, [r6, #-3137]	; 0xfffff3bf
    3c5c:	315f434e 	cmpcc	pc, lr, asr #6
    3c60:	33312033 	teqcc	r1, #51	; 0x33
    3c64:	43435200 	movtmi	r5, #12800	; 0x3200
    3c68:	4c4c505f 	mcrrmi	0, 5, r5, ip, cr15
    3c6c:	52474643 	subpl	r4, r7, #70254592	; 0x4300000
    3c70:	4c4c505f 	mcrrmi	0, 5, r5, ip, cr15
    3c74:	5f435253 	svcpl	0x00435253
    3c78:	4b53414d 	blmi	14d41b4 <FPU_ENABLE_CPACR_VALUE+0x5d41b4>
    3c7c:	30783020 	rsbscc	r3, r8, r0, lsr #32
    3c80:	30303430 	eorscc	r3, r0, r0, lsr r4
    3c84:	00303030 	eorseq	r3, r0, r0, lsr r0
    3c88:	52415355 	subpl	r5, r1, #1409286145	; 0x54000001
    3c8c:	52435f54 	subpl	r5, r3, #84, 30	; 0x150
    3c90:	54525f33 	ldrbpl	r5, [r2], #-3891	; 0xfffff0cd
    3c94:	30204553 	eorcc	r4, r0, r3, asr r5
    3c98:	30303078 	eorscc	r3, r0, r8, ror r0
    3c9c:	30313030 	eorscc	r3, r1, r0, lsr r0
    3ca0:	50470030 	subpl	r0, r7, r0, lsr r0
    3ca4:	415f4f49 	cmpmi	pc, r9, asr #30
    3ca8:	5f485246 	svcpl	0x00485246
    3cac:	5346464f 	movtpl	r4, #26191	; 0x664f
    3cb0:	30205445 	eorcc	r5, r0, r5, asr #8
    3cb4:	00343278 	eorseq	r3, r4, r8, ror r2
    3cb8:	5f434352 	svcpl	0x00434352
    3cbc:	534c4c50 	movtpl	r4, #52304	; 0xcc50
    3cc0:	565f4352 			; <UNDEFINED> instruction: 0x565f4352
    3cc4:	45554c41 	ldrbmi	r4, [r5, #-3137]	; 0xfffff3bf
    3cc8:	5f003020 	svcpl	0x00003020
    3ccc:	414f425f 	cmpmi	pc, pc, asr r2	; <UNPREDICTABLE>
    3cd0:	535f4452 	cmppl	pc, #1375731712	; 0x52000000
    3cd4:	41495245 	cmpmi	r9, r5, asr #4
    3cd8:	45535f4c 	ldrbmi	r5, [r3, #-3916]	; 0xfffff0b4
    3cdc:	4e495454 	mcrmi	4, 2, r5, cr9, cr4, {2}
    3ce0:	485f5347 	ldmdami	pc, {r0, r1, r2, r6, r8, r9, ip, lr}^	; <UNPREDICTABLE>
    3ce4:	00205f5f 	eoreq	r5, r0, pc, asr pc
    3ce8:	63737973 	cmnvs	r3, #1884160	; 0x1cc000
    3cec:	49006b6c 	stmdbmi	r0, {r2, r3, r5, r6, r8, r9, fp, sp, lr}
    3cf0:	5f38544e 	svcpl	0x0038544e
    3cf4:	2058414d 	subscs	r4, r8, sp, asr #2
    3cf8:	00373231 	eorseq	r3, r7, r1, lsr r2
    3cfc:	4f495047 	svcmi	0x00495047
    3d00:	4e49505f 	mcrmi	0, 2, r5, cr9, cr15, {2}
    3d04:	2032315f 	eorscs	r3, r2, pc, asr r1
    3d08:	30317830 	eorscc	r7, r1, r0, lsr r8
    3d0c:	52003030 	andpl	r3, r0, #48	; 0x30
    3d10:	415f4343 	cmpmi	pc, r3, asr #6
    3d14:	45324250 	ldrmi	r4, [r2, #-592]!	; 0xfffffdb0
    3d18:	525f524e 	subspl	r5, pc, #-536870908	; 0xe0000004
    3d1c:	53494745 	movtpl	r4, #38725	; 0x9745
    3d20:	20524554 	subscs	r4, r2, r4, asr r5
    3d24:	6f762828 	svcvs	0x00762828
    3d28:	6974616c 	ldmdbvs	r4!, {r2, r3, r5, r6, r8, sp, lr}^
    3d2c:	7520656c 	strvc	r6, [r0, #-1388]!	; 0xfffffa94
    3d30:	33746e69 	cmncc	r4, #1680	; 0x690
    3d34:	2a745f32 	bcs	1d1ba04 <FPU_ENABLE_CPACR_VALUE+0xe1ba04>
    3d38:	43435229 	movtmi	r5, #12841	; 0x3229
    3d3c:	4250415f 	subsmi	r4, r0, #-1073741801	; 0xc0000017
    3d40:	524e4532 	subpl	r4, lr, #209715200	; 0xc800000
    3d44:	4444415f 	strbmi	r4, [r4], #-351	; 0xfffffea1
    3d48:	53534552 	cmppl	r3, #343932928	; 0x14800000
    3d4c:	50470029 	subpl	r0, r7, r9, lsr #32
    3d50:	535f4f49 	cmppl	pc, #292	; 0x124
    3d54:	44454550 	strbmi	r4, [r5], #-1360	; 0xfffffab0
    3d58:	44454d5f 	strbmi	r4, [r5], #-3423	; 0xfffff2a1
    3d5c:	204d5549 	subcs	r5, sp, r9, asr #10
    3d60:	31307830 	teqcc	r0, r0, lsr r8
    3d64:	49504700 	ldmdbmi	r0, {r8, r9, sl, lr}^
    3d68:	534f5f4f 	movtpl	r5, #65359	; 0xff4f
    3d6c:	44454550 	strbmi	r4, [r5], #-1360	; 0xfffffab0
    3d70:	464f5f52 			; <UNDEFINED> instruction: 0x464f5f52
    3d74:	54455346 	strbpl	r5, [r5], #-838	; 0xfffffcba
    3d78:	30783020 	rsbscc	r3, r8, r0, lsr #32
    3d7c:	69730038 	ldmdbvs	r3!, {r3, r4, r5}^
    3d80:	7974657a 	ldmdbvc	r4!, {r1, r3, r4, r5, r6, r8, sl, sp, lr}^
    3d84:	4e006570 	cfrshl64mi	mvdx0, mvdx0, r6
    3d88:	5f454e4f 	svcpl	0x00454e4f
    3d8c:	5f474f4c 	svcpl	0x00474f4c
    3d90:	4556454c 	ldrbmi	r4, [r6, #-1356]	; 0xfffffab4
    3d94:	0030204c 	eorseq	r2, r0, ip, asr #32
    3d98:	53414c46 	movtpl	r4, #7238	; 0x1c46
    3d9c:	414c5f48 	cmpmi	ip, r8, asr #30
    3da0:	434e4554 	movtmi	r4, #58708	; 0xe554
    3da4:	53575f59 	cmppl	r7, #356	; 0x164
    3da8:	0030315f 	eorseq	r3, r0, pc, asr r1
    3dac:	53414c46 	movtpl	r4, #7238	; 0x1c46
    3db0:	414c5f48 	cmpmi	ip, r8, asr #30
    3db4:	434e4554 	movtmi	r4, #58708	; 0xe554
    3db8:	53575f59 	cmppl	r7, #356	; 0x164
    3dbc:	0031315f 	eorseq	r3, r1, pc, asr r1
    3dc0:	53414c46 	movtpl	r4, #7238	; 0x1c46
    3dc4:	414c5f48 	cmpmi	ip, r8, asr #30
    3dc8:	434e4554 	movtmi	r4, #58708	; 0xe554
    3dcc:	53575f59 	cmppl	r7, #356	; 0x164
    3dd0:	0032315f 	eorseq	r3, r2, pc, asr r1
    3dd4:	53414c46 	movtpl	r4, #7238	; 0x1c46
    3dd8:	414c5f48 	cmpmi	ip, r8, asr #30
    3ddc:	434e4554 	movtmi	r4, #58708	; 0xe554
    3de0:	53575f59 	cmppl	r7, #356	; 0x164
    3de4:	0033315f 	eorseq	r3, r3, pc, asr r1
    3de8:	53414c46 	movtpl	r4, #7238	; 0x1c46
    3dec:	414c5f48 	cmpmi	ip, r8, asr #30
    3df0:	434e4554 	movtmi	r4, #58708	; 0xe554
    3df4:	53575f59 	cmppl	r7, #356	; 0x164
    3df8:	0034315f 	eorseq	r3, r4, pc, asr r1
    3dfc:	53414c46 	movtpl	r4, #7238	; 0x1c46
    3e00:	414c5f48 	cmpmi	ip, r8, asr #30
    3e04:	434e4554 	movtmi	r4, #58708	; 0xe554
    3e08:	53575f59 	cmppl	r7, #356	; 0x164
    3e0c:	0035315f 	eorseq	r3, r5, pc, asr r1
    3e10:	4f495047 	svcmi	0x00495047
    3e14:	464c415f 			; <UNDEFINED> instruction: 0x464c415f
    3e18:	5f434e55 	svcpl	0x00434e55
    3e1c:	00302030 	eorseq	r2, r0, r0, lsr r0
    3e20:	52415355 	subpl	r5, r1, #1409286145	; 0x54000001
    3e24:	535f3654 	cmppl	pc, #84, 12	; 0x5400000
    3e28:	44415f52 	strbmi	r5, [r1], #-3922	; 0xfffff0ae
    3e2c:	53455244 	movtpl	r5, #21060	; 0x5244
    3e30:	78302053 	ldmdavc	r0!, {r0, r1, r4, r6, sp}
    3e34:	31303034 	teqcc	r0, r4, lsr r0
    3e38:	30303431 	eorscc	r3, r0, r1, lsr r4
    3e3c:	49504700 	ldmdbmi	r0, {r8, r9, sl, lr}^
    3e40:	4c415f4f 	mcrrmi	15, 4, r5, r1, cr15
    3e44:	434e5546 	movtmi	r5, #58694	; 0xe546
    3e48:	3420345f 	strtcc	r3, [r0], #-1119	; 0xfffffba1
    3e4c:	43435200 	movtmi	r5, #12800	; 0x3200
    3e50:	4746435f 	smlsldmi	r4, r6, pc, r3	; <UNPREDICTABLE>
    3e54:	57535f52 			; <UNDEFINED> instruction: 0x57535f52
    3e58:	53485f53 	movtpl	r5, #36691	; 0x8f53
    3e5c:	78302049 	ldmdavc	r0!, {r0, r3, r6, sp}
    3e60:	30303030 	eorscc	r3, r0, r0, lsr r0
    3e64:	30303030 	eorscc	r3, r0, r0, lsr r0
    3e68:	43435200 	movtmi	r5, #12800	; 0x3200
    3e6c:	4746435f 	smlsldmi	r4, r6, pc, r3	; <UNPREDICTABLE>
    3e70:	57535f52 			; <UNDEFINED> instruction: 0x57535f52
    3e74:	53485f53 	movtpl	r5, #36691	; 0x8f53
    3e78:	78302045 	ldmdavc	r0!, {r0, r2, r6, sp}
    3e7c:	30303030 	eorscc	r3, r0, r0, lsr r0
    3e80:	34303030 	ldrtcc	r3, [r0], #-48	; 0xffffffd0
    3e84:	43435200 	movtmi	r5, #12800	; 0x3200
    3e88:	4248415f 	submi	r4, r8, #-1073741801	; 0xc0000017
    3e8c:	524e4531 	subpl	r4, lr, #205520896	; 0xc400000
    3e90:	4950475f 	ldmdbmi	r0, {r0, r1, r2, r3, r4, r6, r8, r9, sl, lr}^
    3e94:	4e45424f 	cdpmi	2, 4, cr4, cr5, cr15, {2}
    3e98:	30783020 	rsbscc	r3, r8, r0, lsr #32
    3e9c:	30303030 	eorscc	r3, r0, r0, lsr r0
    3ea0:	00323030 	eorseq	r3, r2, r0, lsr r0
    3ea4:	52415355 	subpl	r5, r1, #1409286145	; 0x54000001
    3ea8:	435f3254 	cmpmi	pc, #84, 4	; 0x40000005
    3eac:	415f3252 	cmpmi	pc, r2, asr r2	; <UNPREDICTABLE>
    3eb0:	45524444 	ldrbmi	r4, [r2, #-1092]	; 0xfffffbbc
    3eb4:	30205353 	eorcc	r5, r0, r3, asr r3
    3eb8:	30303478 	eorscc	r3, r0, r8, ror r4
    3ebc:	31343430 	teqcc	r4, r0, lsr r4
    3ec0:	43520030 	cmpmi	r2, #48	; 0x30
    3ec4:	46435f43 	strbmi	r5, [r3], -r3, asr #30
    3ec8:	505f5247 	subspl	r5, pc, r7, asr #4
    3ecc:	31455250 	cmpcc	r5, r0, asr r2
    3ed0:	4c41565f 	mcrrmi	6, 5, r5, r1, cr15
    3ed4:	53414d5f 	movtpl	r4, #7519	; 0x1d5f
    3ed8:	7830204b 	ldmdavc	r0!, {r0, r1, r3, r6, sp}
    3edc:	30303030 	eorscc	r3, r0, r0, lsr r0
    3ee0:	30304330 	eorscc	r4, r0, r0, lsr r3
    3ee4:	544e4900 	strbpl	r4, [lr], #-2304	; 0xfffff700
    3ee8:	4d5f3631 	ldclmi	6, cr3, [pc, #-196]	; 3e2c <SCB_AIRCR_PRIGROUP_MASK+0x372c>
    3eec:	33205841 			; <UNDEFINED> instruction: 0x33205841
    3ef0:	37363732 			; <UNDEFINED> instruction: 0x37363732
    3ef4:	43435200 	movtmi	r5, #12800	; 0x3200
    3ef8:	4c4c505f 	mcrrmi	0, 5, r5, ip, cr15
    3efc:	41565f4e 	cmpmi	r6, lr, asr #30
    3f00:	2045554c 	subcs	r5, r5, ip, asr #10
    3f04:	00363333 	eorseq	r3, r6, r3, lsr r3
    3f08:	4f495047 	svcmi	0x00495047
    3f0c:	464c415f 			; <UNDEFINED> instruction: 0x464c415f
    3f10:	5f434e55 	svcpl	0x00434e55
    3f14:	00332033 	eorseq	r2, r3, r3, lsr r0
    3f18:	52415355 	subpl	r5, r1, #1409286145	; 0x54000001
    3f1c:	52435f54 	subpl	r5, r3, #84, 30	; 0x150
    3f20:	58545f31 	ldmdapl	r4, {r0, r4, r5, r8, r9, sl, fp, ip, lr}^
    3f24:	20454945 	subcs	r4, r5, r5, asr #18
    3f28:	30307830 	eorscc	r7, r0, r0, lsr r8
    3f2c:	30303030 	eorscc	r3, r0, r0, lsr r0
    3f30:	47003038 	smladxmi	r0, r8, r0, r3
    3f34:	5f4f4950 	svcpl	0x004f4950
    3f38:	44505550 	ldrbmi	r5, [r0], #-1360	; 0xfffffab0
    3f3c:	46464f5f 			; <UNDEFINED> instruction: 0x46464f5f
    3f40:	20544553 	subscs	r4, r4, r3, asr r5
    3f44:	53550033 	cmppl	r5, #51	; 0x33
    3f48:	32545241 	subscc	r5, r4, #268435460	; 0x10000004
    3f4c:	3352435f 	cmpcc	r2, #2080374785	; 0x7c000001
    3f50:	4444415f 	strbmi	r4, [r4], #-351	; 0xfffffea1
    3f54:	53534552 	cmppl	r3, #343932928	; 0x14800000
    3f58:	34783020 	ldrbtcc	r3, [r8], #-32	; 0xffffffe0
    3f5c:	34303030 	ldrtcc	r3, [r0], #-48	; 0xffffffd0
    3f60:	00343134 	eorseq	r3, r4, r4, lsr r1
    3f64:	4f495047 	svcmi	0x00495047
    3f68:	5055505f 	subspl	r5, r5, pc, asr r0
    3f6c:	44505f44 	ldrbmi	r5, [r0], #-3908	; 0xfffff0bc
    3f70:	31783020 	cmncc	r8, r0, lsr #32
    3f74:	45530030 	ldrbmi	r0, [r3, #-48]	; 0xffffffd0
    3f78:	4c414952 	mcrrmi	9, 5, r4, r1, cr2	; <UNPREDICTABLE>
    3f7c:	5254435f 	subspl	r4, r4, #2080374785	; 0x7c000001
    3f80:	4c465f4c 	mcrrmi	15, 4, r5, r6, cr12
    3f84:	4e5f574f 	cdpmi	7, 5, cr5, cr15, cr15, {2}
    3f88:	20454e4f 	subcs	r4, r5, pc, asr #28
    3f8c:	50470030 	subpl	r0, r7, r0, lsr r0
    3f90:	505f4f49 	subspl	r4, pc, r9, asr #30
    3f94:	5f445055 	svcpl	0x00445055
    3f98:	454e4f4e 	strbmi	r4, [lr, #-3918]	; 0xfffff0b2
    3f9c:	30783020 	rsbscc	r3, r8, r0, lsr #32
    3fa0:	50470030 	subpl	r0, r7, r0, lsr r0
    3fa4:	505f4f49 	subspl	r4, pc, r9, asr #30
    3fa8:	355f4e49 	ldrbcc	r4, [pc, #-3657]	; 3167 <SCB_AIRCR_PRIGROUP_MASK+0x2a67>
    3fac:	30783020 	rsbscc	r3, r8, r0, lsr #32
    3fb0:	00303230 	eorseq	r3, r0, r0, lsr r2
    3fb4:	49524553 	ldmdbmi	r2, {r0, r1, r4, r6, r8, sl, lr}^
    3fb8:	505f4c41 	subspl	r4, pc, r1, asr #24
    3fbc:	54495241 	strbpl	r5, [r9], #-577	; 0xfffffdbf
    3fc0:	444f5f59 	strbmi	r5, [pc], #-3929	; 3fc8 <SCB_AIRCR_PRIGROUP_MASK+0x38c8>
    3fc4:	00312044 	eorseq	r2, r1, r4, asr #32
    3fc8:	5f434352 	svcpl	0x00434352
    3fcc:	485f5243 	ldmdami	pc, {r0, r1, r6, r9, ip, lr}^	; <UNPREDICTABLE>
    3fd0:	52544953 	subspl	r4, r4, #1359872	; 0x14c000
    3fd4:	445f4d49 	ldrbmi	r4, [pc], #-3401	; 3fdc <SCB_AIRCR_PRIGROUP_MASK+0x38dc>
    3fd8:	30204645 	eorcc	r4, r0, r5, asr #12
    3fdc:	30303078 	eorscc	r3, r0, r8, ror r0
    3fe0:	38303030 	ldmdacc	r0!, {r4, r5, ip, sp}
    3fe4:	4c460030 	mcrrmi	0, 3, r0, r6, cr0
    3fe8:	5f485341 	svcpl	0x00485341
    3fec:	5f524341 	svcpl	0x00524341
    3ff0:	49474552 	stmdbmi	r7, {r1, r4, r6, r8, sl, lr}^
    3ff4:	52455453 	subpl	r5, r5, #1392508928	; 0x53000000
    3ff8:	76282820 	strtvc	r2, [r8], -r0, lsr #16
    3ffc:	74616c6f 	strbtvc	r6, [r1], #-3183	; 0xfffff391
    4000:	20656c69 	rsbcs	r6, r5, r9, ror #24
    4004:	746e6975 	strbtvc	r6, [lr], #-2421	; 0xfffff68b
    4008:	745f3233 	ldrbvc	r3, [pc], #-563	; 4010 <SCB_AIRCR_PRIGROUP_MASK+0x3910>
    400c:	4c46292a 	mcrrmi	9, 2, r2, r6, cr10	; <UNPREDICTABLE>
    4010:	5f485341 	svcpl	0x00485341
    4014:	5f524341 	svcpl	0x00524341
    4018:	52444441 	subpl	r4, r4, #1090519040	; 0x41000000
    401c:	29535345 	ldmdbcs	r3, {r0, r2, r6, r8, r9, ip, lr}^
    4020:	41535500 	cmpmi	r3, r0, lsl #10
    4024:	5f365452 	svcpl	0x00365452
    4028:	5f335243 	svcpl	0x00335243
    402c:	52444441 	subpl	r4, r4, #1090519040	; 0x41000000
    4030:	20535345 	subscs	r5, r3, r5, asr #6
    4034:	30347830 	eorscc	r7, r4, r0, lsr r8
    4038:	34313130 	ldrtcc	r3, [r1], #-304	; 0xfffffed0
    403c:	55003431 	strpl	r3, [r0, #-1073]	; 0xfffffbcf
    4040:	54524153 	ldrbpl	r4, [r2], #-339	; 0xfffffead
    4044:	3152435f 	cmpcc	r2, pc, asr r3
    4048:	30204d5f 	eorcc	r4, r0, pc, asr sp
    404c:	30303078 	eorscc	r3, r0, r8, ror r0
    4050:	30303130 	eorscc	r3, r0, r0, lsr r1
    4054:	50470030 	subpl	r0, r7, r0, lsr r0
    4058:	505f4f49 	subspl	r4, pc, r9, asr #30
    405c:	345f4e49 	ldrbcc	r4, [pc], #-3657	; 4064 <SCB_AIRCR_PRIGROUP_MASK+0x3964>
    4060:	30783020 	rsbscc	r3, r8, r0, lsr #32
    4064:	00303130 	eorseq	r3, r0, r0, lsr r1
    4068:	4f495047 	svcmi	0x00495047
    406c:	5055505f 	subspl	r5, r5, pc, asr r0
    4070:	414d5f44 	cmpmi	sp, r4, asr #30
    4074:	30204b53 	eorcc	r4, r0, r3, asr fp
    4078:	00383178 	eorseq	r3, r8, r8, ror r1
    407c:	544e4955 	strbpl	r4, [lr], #-2389	; 0xfffff6ab
    4080:	414d5f38 	cmpmi	sp, r8, lsr pc
    4084:	78302058 	ldmdavc	r0!, {r3, r4, r6, sp}
    4088:	62006666 	andvs	r6, r0, #106954752	; 0x6600000
    408c:	635f7073 	cmpvs	pc, #115	; 0x73
    4090:	735f6b6c 	cmpvc	pc, #108, 22	; 0x1b000
    4094:	63746977 	cmnvs	r4, #1949696	; 0x1dc000
    4098:	6f745f68 	svcvs	0x00745f68
    409c:	6c6c705f 	stclvs	0, cr7, [ip], #-380	; 0xfffffe84
    40a0:	41535500 	cmpmi	r3, r0, lsl #10
    40a4:	435f5452 	cmpmi	pc, #1375731712	; 0x52000000
    40a8:	575f3152 			; <UNDEFINED> instruction: 0x575f3152
    40ac:	20454b41 	subcs	r4, r5, r1, asr #22
    40b0:	30307830 	eorscc	r7, r0, r0, lsr r8
    40b4:	38303030 	ldmdacc	r0!, {r4, r5, ip, sp}
    40b8:	55003030 	strpl	r3, [r0, #-48]	; 0xffffffd0
    40bc:	54524153 	ldrbpl	r4, [r2], #-339	; 0xfffffead
    40c0:	3152435f 	cmpcc	r2, pc, asr r3
    40c4:	45564f5f 	ldrbmi	r4, [r6, #-3935]	; 0xfffff0a1
    40c8:	30203852 	eorcc	r3, r0, r2, asr r8
    40cc:	30303078 	eorscc	r3, r0, r8, ror r0
    40d0:	30303830 	eorscc	r3, r0, r0, lsr r8
    40d4:	43520030 	cmpmi	r2, #48	; 0x30
    40d8:	48415f43 	stmdami	r1, {r0, r1, r6, r8, r9, sl, fp, ip, lr}^
    40dc:	4e453142 	dvfmism	f3, f5, f2
    40e0:	50475f52 	subpl	r5, r7, r2, asr pc
    40e4:	45434f49 	strbmi	r4, [r3, #-3913]	; 0xfffff0b7
    40e8:	7830204e 	ldmdavc	r0!, {r1, r2, r3, r6, sp}
    40ec:	30303030 	eorscc	r3, r0, r0, lsr r0
    40f0:	34303030 	ldrtcc	r3, [r0], #-48	; 0xffffffd0
    40f4:	43435200 	movtmi	r5, #12800	; 0x3200
    40f8:	4746435f 	smlsldmi	r4, r6, pc, r3	; <UNPREDICTABLE>
    40fc:	57535f52 			; <UNDEFINED> instruction: 0x57535f52
    4100:	414d5f53 	cmpmi	sp, r3, asr pc
    4104:	30204b53 	eorcc	r4, r0, r3, asr fp
    4108:	30303078 	eorscc	r3, r0, r8, ror r0
    410c:	30303030 	eorscc	r3, r0, r0, lsr r0
    4110:	53550043 	cmppl	r5, #67	; 0x43
    4114:	5f545241 	svcpl	0x00545241
    4118:	5f315243 	svcpl	0x00315243
    411c:	20454350 	subcs	r4, r5, r0, asr r3
    4120:	30307830 	eorscc	r7, r0, r0, lsr r8
    4124:	34303030 	ldrtcc	r3, [r0], #-48	; 0xffffffd0
    4128:	55003030 	strpl	r3, [r0, #-48]	; 0xffffffd0
    412c:	54524153 	ldrbpl	r4, [r2], #-339	; 0xfffffead
    4130:	3152435f 	cmpcc	r2, pc, asr r3
    4134:	2045545f 	subcs	r5, r5, pc, asr r4
    4138:	30307830 	eorscc	r7, r0, r0, lsr r8
    413c:	30303030 	eorscc	r3, r0, r0, lsr r0
    4140:	62003830 	andvs	r3, r0, #48, 16	; 0x300000
    4144:	675f7073 			; <UNDEFINED> instruction: 0x675f7073
    4148:	635f7465 	cmpvs	pc, #1694498816	; 0x65000000
    414c:	665f7570 			; <UNDEFINED> instruction: 0x665f7570
    4150:	00716572 	rsbseq	r6, r1, r2, ror r5
    4154:	4f495047 	svcmi	0x00495047
    4158:	464c415f 			; <UNDEFINED> instruction: 0x464c415f
    415c:	5f434e55 	svcpl	0x00434e55
    4160:	31203531 			; <UNDEFINED> instruction: 0x31203531
    4164:	43520035 	cmpmi	r2, #53	; 0x35
    4168:	50415f43 	subpl	r5, r1, r3, asr #30
    416c:	4e453142 	dvfmism	f3, f5, f2
    4170:	53555f52 	cmppl	r5, #328	; 0x148
    4174:	32545241 	subscc	r5, r4, #268435460	; 0x10000004
    4178:	30204e45 	eorcc	r4, r0, r5, asr #28
    417c:	30303078 	eorscc	r3, r0, r8, ror r0
    4180:	30303032 	eorscc	r3, r0, r2, lsr r0
    4184:	53550030 	cmppl	r5, #48	; 0x30
    4188:	5f545241 	svcpl	0x00545241
    418c:	5f325243 	svcpl	0x00325243
    4190:	4549424c 	strbmi	r4, [r9, #-588]	; 0xfffffdb4
    4194:	30783020 	rsbscc	r3, r8, r0, lsr #32
    4198:	30303030 	eorscc	r3, r0, r0, lsr r0
    419c:	00303430 	eorseq	r3, r0, r0, lsr r4
    41a0:	4f495047 	svcmi	0x00495047
    41a4:	5059545f 	subspl	r5, r9, pc, asr r4
    41a8:	464f5f45 	strbmi	r5, [pc], -r5, asr #30
    41ac:	54455346 	strbpl	r5, [r5], #-838	; 0xfffffcba
    41b0:	49003220 	stmdbmi	r0, {r5, r9, ip, sp}
    41b4:	3233544e 	eorscc	r5, r3, #1308622848	; 0x4e000000
    41b8:	58414d5f 	stmdapl	r1, {r0, r1, r2, r3, r4, r6, r8, sl, fp, lr}^
    41bc:	34313220 	ldrtcc	r3, [r1], #-544	; 0xfffffde0
    41c0:	33383437 	teqcc	r8, #922746880	; 0x37000000
    41c4:	00373436 	eorseq	r3, r7, r6, lsr r4
    41c8:	4f525245 	svcmi	0x00525245
    41cc:	454e5f52 	strbmi	r5, [lr, #-3922]	; 0xfffff0ae
    41d0:	495f4445 	ldmdbmi	pc, {r0, r2, r6, sl, lr}^	; <UNPREDICTABLE>
    41d4:	0054494e 	subseq	r4, r4, lr, asr #18
    41d8:	5f434352 	svcpl	0x00434352
    41dc:	52474643 	subpl	r4, r7, #70254592	; 0x4300000
    41e0:	5250485f 	subspl	r4, r0, #6225920	; 0x5f0000
    41e4:	41565f45 	cmpmi	r6, r5, asr #30
    41e8:	414d5f4c 	cmpmi	sp, ip, asr #30
    41ec:	30204b53 	eorcc	r4, r0, r3, asr fp
    41f0:	30303078 	eorscc	r3, r0, r8, ror r0
    41f4:	37303030 			; <UNDEFINED> instruction: 0x37303030
    41f8:	50470030 	subpl	r0, r7, r0, lsr r0
    41fc:	415f4f49 	cmpmi	pc, r9, asr #30
    4200:	4e55464c 	cdpmi	6, 5, cr4, cr5, cr12, {2}
    4204:	34315f43 	ldrtcc	r5, [r1], #-3907	; 0xfffff0bd
    4208:	00343120 	eorseq	r3, r4, r0, lsr #2
    420c:	5f434352 	svcpl	0x00434352
    4210:	514c4c50 	cmppl	ip, r0, asr ip
    4214:	4c41565f 	mcrrmi	6, 5, r5, r1, cr15
    4218:	38204555 	stmdacc	r0!, {r0, r2, r4, r6, r8, sl, lr}
    421c:	52455300 	subpl	r5, r5, #0, 6
    4220:	5f4c4149 	svcpl	0x004c4149
    4224:	49524150 	ldmdbmi	r2, {r4, r6, r8, lr}^
    4228:	4e5f5954 			; <UNDEFINED> instruction: 0x4e5f5954
    422c:	20454e4f 	subcs	r4, r5, pc, asr #28
    4230:	43520030 	cmpmi	r2, #48	; 0x30
    4234:	48415f43 	stmdami	r1, {r0, r1, r6, r8, r9, sl, fp, ip, lr}^
    4238:	4e453142 	dvfmism	f3, f5, f2
    423c:	50475f52 	subpl	r5, r7, r2, asr pc
    4240:	45454f49 	strbmi	r4, [r5, #-3913]	; 0xfffff0b7
    4244:	7830204e 	ldmdavc	r0!, {r1, r2, r3, r6, sp}
    4248:	30303030 	eorscc	r3, r0, r0, lsr r0
    424c:	30313030 	eorscc	r3, r1, r0, lsr r0
    4250:	414c4600 	cmpmi	ip, r0, lsl #12
    4254:	4c5f4853 	mrrcmi	8, 5, r4, pc, cr3	; <UNPREDICTABLE>
    4258:	4e455441 	cdpmi	4, 4, cr5, cr5, cr1, {2}
    425c:	575f5943 	ldrbpl	r5, [pc, -r3, asr #18]
    4260:	00335f53 	eorseq	r5, r3, r3, asr pc
    4264:	52415355 	subpl	r5, r1, #1409286145	; 0x54000001
    4268:	435f3654 	cmpmi	pc, #84, 12	; 0x5400000
    426c:	525f3152 	subspl	r3, pc, #-2147483628	; 0x80000014
    4270:	53494745 	movtpl	r4, #38725	; 0x9745
    4274:	20524554 	subscs	r4, r2, r4, asr r5
    4278:	6f762828 	svcvs	0x00762828
    427c:	6974616c 	ldmdbvs	r4!, {r2, r3, r5, r6, r8, sp, lr}^
    4280:	7520656c 	strvc	r6, [r0, #-1388]!	; 0xfffffa94
    4284:	33746e69 	cmncc	r4, #1680	; 0x690
    4288:	2a745f32 	bcs	1d1bf58 <FPU_ENABLE_CPACR_VALUE+0xe1bf58>
    428c:	41535529 	cmpmi	r3, r9, lsr #10
    4290:	5f365452 	svcpl	0x00365452
    4294:	5f315243 	svcpl	0x00315243
    4298:	52444441 	subpl	r4, r4, #1090519040	; 0x41000000
    429c:	29535345 	ldmdbcs	r3, {r0, r2, r6, r8, r9, ip, lr}^
    42a0:	545f5f00 	ldrbpl	r5, [pc], #-3840	; 42a8 <SCB_AIRCR_PRIGROUP_MASK+0x3ba8>
    42a4:	53455059 	movtpl	r5, #20569	; 0x5059
    42a8:	4454535f 	ldrbmi	r5, [r4], #-863	; 0xfffffca1
    42ac:	5f544e49 	svcpl	0x00544e49
    42b0:	205f5f48 	subscs	r5, pc, r8, asr #30
    42b4:	475f5f00 	ldrbmi	r5, [pc, -r0, lsl #30]
    42b8:	41424f4c 	cmpmi	r2, ip, asr #30
    42bc:	4f435f4c 	svcmi	0x00435f4c
    42c0:	4749464e 	strbmi	r4, [r9, -lr, asr #12]
    42c4:	5f5f485f 	svcpl	0x005f485f
    42c8:	4e490020 	cdpmi	0, 4, cr0, cr9, cr0, {1}
    42cc:	5f323354 	svcpl	0x00323354
    42d0:	204e494d 	subcs	r4, lr, sp, asr #18
    42d4:	31322d28 	teqcc	r2, r8, lsr #26
    42d8:	38343734 	ldmdacc	r4!, {r2, r4, r5, r8, r9, sl, ip, sp}
    42dc:	37343633 			; <UNDEFINED> instruction: 0x37343633
    42e0:	31202d20 			; <UNDEFINED> instruction: 0x31202d20
    42e4:	53550029 	cmppl	r5, #41	; 0x29
    42e8:	5f545241 	svcpl	0x00545241
    42ec:	5f315243 	svcpl	0x00315243
    42f0:	454c4449 	strbmi	r4, [ip, #-1097]	; 0xfffffbb7
    42f4:	30204549 	eorcc	r4, r0, r9, asr #10
    42f8:	30303078 	eorscc	r3, r0, r8, ror r0
    42fc:	31303030 	teqcc	r0, r0, lsr r0
    4300:	43520030 	cmpmi	r2, #48	; 0x30
    4304:	4c505f43 	mrrcmi	15, 4, r5, r0, cr3
    4308:	565f504c 	ldrbpl	r5, [pc], -ip, asr #32
    430c:	45554c41 	ldrbmi	r4, [r5, #-3137]	; 0xfffff3bf
    4310:	55003120 	strpl	r3, [r0, #-288]	; 0xfffffee0
    4314:	54524153 	ldrbpl	r4, [r2], #-339	; 0xfffffead
    4318:	3152435f 	cmpcc	r2, pc, asr r3
    431c:	4b42535f 	blmi	10990a0 <FPU_ENABLE_CPACR_VALUE+0x1990a0>
    4320:	30783020 	rsbscc	r3, r8, r0, lsr #32
    4324:	30303030 	eorscc	r3, r0, r0, lsr r0
    4328:	00313030 	eorseq	r3, r1, r0, lsr r0
    432c:	52415355 	subpl	r5, r1, #1409286145	; 0x54000001
    4330:	52435f54 	subpl	r5, r3, #84, 30	; 0x150
    4334:	49455f33 	stmdbmi	r5, {r0, r1, r4, r5, r8, r9, sl, fp, ip, lr}^
    4338:	78302045 	ldmdavc	r0!, {r0, r2, r6, sp}
    433c:	30303030 	eorscc	r3, r0, r0, lsr r0
    4340:	31303030 	teqcc	r0, r0, lsr r0
    4344:	4e495500 	cdpmi	5, 4, cr5, cr9, cr0, {0}
    4348:	5f363154 	svcpl	0x00363154
    434c:	2058414d 	subscs	r4, r8, sp, asr #2
    4350:	66667830 			; <UNDEFINED> instruction: 0x66667830
    4354:	46006666 	strmi	r6, [r0], -r6, ror #12
    4358:	4853414c 	ldmdami	r3, {r2, r3, r6, r8, lr}^
    435c:	5243415f 	subpl	r4, r3, #-1073741801	; 0xc0000017
    4360:	54414c5f 	strbpl	r4, [r1], #-3167	; 0xfffff3a1
    4364:	59434e45 	stmdbpl	r3, {r0, r2, r6, r9, sl, fp, lr}^
    4368:	53414d5f 	movtpl	r4, #7519	; 0x1d5f
    436c:	7830204b 	ldmdavc	r0!, {r0, r1, r3, r6, sp}
    4370:	30303030 	eorscc	r3, r0, r0, lsr r0
    4374:	46303030 			; <UNDEFINED> instruction: 0x46303030
    4378:	43435200 	movtmi	r5, #12800	; 0x3200
    437c:	5f52435f 	svcpl	0x0052435f
    4380:	4f495348 	svcmi	0x00495348
    4384:	7830204e 	ldmdavc	r0!, {r1, r2, r3, r6, sp}
    4388:	30303030 	eorscc	r3, r0, r0, lsr r0
    438c:	31303030 	teqcc	r0, r0, lsr r0
    4390:	49504700 	ldmdbmi	r0, {r8, r9, sl, lr}^
    4394:	59545f4f 	ldmdbpl	r4, {r0, r1, r2, r3, r6, r8, r9, sl, fp, ip, lr}^
    4398:	505f4550 	subspl	r4, pc, r0, asr r5	; <UNPREDICTABLE>
    439c:	50485355 	subpl	r5, r8, r5, asr r3
    43a0:	204c4c55 	subcs	r4, ip, r5, asr ip
    43a4:	30307830 	eorscc	r7, r0, r0, lsr r8
    43a8:	63616600 	cmnvs	r1, #0, 12
    43ac:	00726f74 	rsbseq	r6, r2, r4, ror pc
    43b0:	45574f50 	ldrbmi	r4, [r7, #-3920]	; 0xfffff0b0
    43b4:	43535f52 	cmpmi	r3, #328	; 0x148
    43b8:	4e494c41 	cdpmi	12, 4, cr4, cr9, cr1, {2}
    43bc:	4f4d5f47 	svcmi	0x004d5f47
    43c0:	325f4544 	subscc	r4, pc, #68, 10	; 0x11000000
    43c4:	43435200 	movtmi	r5, #12800	; 0x3200
    43c8:	4c4c505f 	mcrrmi	0, 5, r5, ip, cr15
    43cc:	52474643 	subpl	r4, r7, #70254592	; 0x4300000
    43d0:	4c4c505f 	mcrrmi	0, 5, r5, ip, cr15
    43d4:	5f435253 	svcpl	0x00435253
    43d8:	5346464f 	movtpl	r4, #26191	; 0x664f
    43dc:	32205445 	eorcc	r5, r0, #1157627904	; 0x45000000
    43e0:	50470032 	subpl	r0, r7, r2, lsr r0
    43e4:	505f4f49 	subspl	r4, pc, r9, asr #30
    43e8:	315f4e49 	cmpcc	pc, r9, asr #28
    43ec:	78302033 	ldmdavc	r0!, {r0, r1, r4, r5, sp}
    43f0:	30303032 	eorscc	r3, r0, r2, lsr r0
    43f4:	63727300 	cmnvs	r2, #0, 6
    43f8:	7073622f 	rsbsvc	r6, r3, pc, lsr #4
    43fc:	6f6c635f 	svcvs	0x006c635f
    4400:	2e736b63 	vsubcs.f64	d22, d3, d19
    4404:	53550063 	cmppl	r5, #99	; 0x63
    4408:	5f545241 	svcpl	0x00545241
    440c:	5f325243 	svcpl	0x00325243
    4410:	41485043 	cmpmi	r8, r3, asr #32
    4414:	30783020 	rsbscc	r3, r8, r0, lsr #32
    4418:	30303030 	eorscc	r3, r0, r0, lsr r0
    441c:	00303032 	eorseq	r3, r0, r2, lsr r0
    4420:	4f525245 	svcmi	0x00525245
    4424:	554e5f52 	strbpl	r5, [lr, #-3922]	; 0xfffff0ae
    4428:	505f4c4c 	subspl	r4, pc, ip, asr #24
    442c:	544e494f 	strbpl	r4, [lr], #-2383	; 0xfffff6b1
    4430:	52005245 	andpl	r5, r0, #1342177284	; 0x50000004
    4434:	415f4343 	cmpmi	pc, r3, asr #6
    4438:	45324250 	ldrmi	r4, [r2, #-592]!	; 0xfffffdb0
    443c:	415f524e 	cmpmi	pc, lr, asr #4
    4440:	45524444 	ldrbmi	r4, [r2, #-1092]	; 0xfffffbbc
    4444:	30205353 	eorcc	r5, r0, r3, asr r3
    4448:	30303478 	eorscc	r3, r0, r8, ror r4
    444c:	34383332 	ldrtcc	r3, [r8], #-818	; 0xfffffcce
    4450:	50470034 	subpl	r0, r7, r4, lsr r0
    4454:	505f4f49 	subspl	r4, pc, r9, asr #30
    4458:	385f4e49 	ldmdacc	pc, {r0, r3, r6, r9, sl, fp, lr}^	; <UNPREDICTABLE>
    445c:	30783020 	rsbscc	r3, r8, r0, lsr #32
    4460:	00303031 	eorseq	r3, r0, r1, lsr r0
    4464:	4f495047 	svcmi	0x00495047
    4468:	4544495f 	strbmi	r4, [r4, #-2399]	; 0xfffff6a1
    446c:	4649544e 	strbmi	r5, [r9], -lr, asr #8
    4470:	5f524549 	svcpl	0x00524549
    4474:	43520045 	cmpmi	r2, #69	; 0x45
    4478:	4c505f43 	mrrcmi	15, 4, r5, r0, cr3
    447c:	565f4d4c 	ldrbpl	r4, [pc], -ip, asr #26
    4480:	45554c41 	ldrbmi	r4, [r5, #-3137]	; 0xfffff3bf
    4484:	00363120 	eorseq	r3, r6, r0, lsr #2
    4488:	5f525750 	svcpl	0x00525750
    448c:	565f5243 	ldrbpl	r5, [pc], -r3, asr #4
    4490:	4d5f534f 	ldclmi	3, cr5, [pc, #-316]	; 435c <SCB_AIRCR_PRIGROUP_MASK+0x3c5c>
    4494:	204b5341 	subcs	r5, fp, r1, asr #6
    4498:	30307830 	eorscc	r7, r0, r0, lsr r8
    449c:	30433030 	subcc	r3, r3, r0, lsr r0
    44a0:	46003030 			; <UNDEFINED> instruction: 0x46003030
    44a4:	4853414c 	ldmdami	r3, {r2, r3, r6, r8, lr}^
    44a8:	54414c5f 	strbpl	r4, [r1], #-3167	; 0xfffff3a1
    44ac:	59434e45 	stmdbpl	r3, {r0, r2, r6, r9, sl, fp, lr}^
    44b0:	5f53575f 	svcpl	0x0053575f
    44b4:	5f5f0045 	svcpl	0x005f0045
    44b8:	5f555043 	svcpl	0x00555043
    44bc:	5f555043 	svcpl	0x00555043
    44c0:	5f495041 	svcpl	0x00495041
    44c4:	205f5f48 	subscs	r5, pc, r8, asr #30
    44c8:	70736200 	rsbsvc	r6, r3, r0, lsl #4
    44cc:	616c665f 	cmnvs	ip, pc, asr r6
    44d0:	705f6873 	subsvc	r6, pc, r3, ror r8	; <UNPREDICTABLE>
    44d4:	65666572 	strbvs	r6, [r6, #-1394]!	; 0xfffffa8e
    44d8:	5f686374 	svcpl	0x00686374
    44dc:	62616e65 	rsbvs	r6, r1, #1616	; 0x650
    44e0:	6200656c 	andvs	r6, r0, #108, 10	; 0x1b000000
    44e4:	665f7073 			; <UNDEFINED> instruction: 0x665f7073
    44e8:	6873616c 	ldmdavs	r3!, {r2, r3, r5, r6, r8, sp, lr}^
    44ec:	7465735f 	strbtvc	r7, [r5], #-863	; 0xfffffca1
    44f0:	74616c5f 	strbtvc	r6, [r1], #-3167	; 0xfffff3a1
    44f4:	79636e65 	stmdbvc	r3!, {r0, r2, r5, r6, r9, sl, fp, sp, lr}^
    44f8:	70736200 	rsbsvc	r6, r3, r0, lsl #4
    44fc:	616c665f 	cmnvs	ip, pc, asr r6
    4500:	635f6873 	cmpvs	pc, #7536640	; 0x730000
    4504:	65686361 	strbvs	r6, [r8, #-865]!	; 0xfffffc9f
    4508:	616e655f 	cmnvs	lr, pc, asr r5
    450c:	00656c62 	rsbeq	r6, r5, r2, ror #24
    4510:	2f637273 	svccs	0x00637273
    4514:	5f707362 	svcpl	0x00707362
    4518:	73616c66 	cmnvc	r1, #26112	; 0x6600
    451c:	00632e68 	rsbeq	r2, r3, r8, ror #28
    4520:	4f495047 	svcmi	0x00495047
    4524:	5445535f 	strbpl	r5, [r5], #-863	; 0xfffffca1
    4528:	474e4954 	smlsldmi	r4, lr, r4, r9
    452c:	50470053 	subpl	r0, r7, r3, asr r0
    4530:	415f4f49 	cmpmi	pc, r9, asr #30
    4534:	4d5f5246 	lfmmi	f5, 2, [pc, #-280]	; 4424 <SCB_AIRCR_PRIGROUP_MASK+0x3d24>
    4538:	284b5341 	stmdacs	fp, {r0, r6, r8, r9, ip, lr}^
    453c:	296e6970 	stmdbcs	lr!, {r4, r5, r6, r8, fp, sp, lr}^
    4540:	20312820 	eorscs	r2, r1, r0, lsr #16
    4544:	28203c3c 	stmdacs	r0!, {r2, r3, r4, r5, sl, fp, ip, sp}
    4548:	206e6970 	rsbcs	r6, lr, r0, ror r9
    454c:	32203c3c 	eorcc	r3, r0, #60, 24	; 0x3c00
    4550:	47002929 	strmi	r2, [r0, -r9, lsr #18]
    4554:	5f4f4950 	svcpl	0x004f4950
    4558:	5059544f 	subspl	r5, r9, pc, asr #8
    455c:	4d5f5245 	lfmmi	f5, 2, [pc, #-276]	; 4450 <SCB_AIRCR_PRIGROUP_MASK+0x3d50>
    4560:	284b5341 	stmdacs	fp, {r0, r6, r8, r9, ip, lr}^
    4564:	296e6970 	stmdbcs	lr!, {r4, r5, r6, r8, fp, sp, lr}^
    4568:	20312820 	eorscs	r2, r1, r0, lsr #16
    456c:	70203c3c 	eorvc	r3, r0, ip, lsr ip
    4570:	00296e69 	eoreq	r6, r9, r9, ror #28
    4574:	43454843 	movtmi	r4, #22595	; 0x5843
    4578:	4c415f4b 	mcrrmi	15, 4, r5, r1, cr11
    457c:	4e554654 	mrcmi	6, 2, r4, cr5, cr4, {2}
    4580:	6c612843 	stclvs	8, cr2, [r1], #-268	; 0xfffffef4
    4584:	6e756674 	mrcvs	6, 3, r6, cr5, cr4, {3}
    4588:	28202963 	stmdacs	r0!, {r0, r1, r5, r6, r8, fp, sp}
    458c:	6669207b 			; <UNDEFINED> instruction: 0x6669207b
    4590:	746c6128 	strbtvc	r6, [ip], #-296	; 0xfffffed8
    4594:	636e7566 	cmnvs	lr, #427819008	; 0x19800000
    4598:	47203e20 	strmi	r3, [r0, -r0, lsr #28]!
    459c:	5f4f4950 	svcpl	0x004f4950
    45a0:	55464c41 	strbpl	r4, [r6, #-3137]	; 0xfffff3bf
    45a4:	315f434e 	cmpcc	pc, lr, asr #6
    45a8:	7b202935 	blvc	80ea84 <FPU_CPACR_CP10+0x50ea84>
    45ac:	28666920 	stmdacs	r6!, {r5, r8, fp, sp, lr}^
    45b0:	4e52454b 	cdpmi	5, 5, cr4, cr2, cr11, {2}
    45b4:	4c5f4c45 	mrrcmi	12, 4, r4, pc, cr5	; <UNPREDICTABLE>
    45b8:	4c5f474f 	mrrcmi	7, 4, r4, pc, cr15	; <UNPREDICTABLE>
    45bc:	4c455645 	mcrrmi	6, 4, r5, r5, cr5
    45c0:	203d3d20 	eorscs	r3, sp, r0, lsr #26
    45c4:	4f525245 	svcmi	0x00525245
    45c8:	4f4c5f52 	svcmi	0x004c5f52
    45cc:	454c5f47 	strbmi	r5, [ip, #-3911]	; 0xfffff0b9
    45d0:	294c4556 	stmdbcs	ip, {r1, r2, r4, r6, r8, sl, lr}^
    45d4:	4b207b20 	blmi	82325c <FPU_CPACR_CP10+0x52325c>
    45d8:	454e5245 	strbmi	r5, [lr, #-581]	; 0xfffffdbb
    45dc:	4f4c5f4c 	svcmi	0x004c5f4c
    45e0:	52455f47 	subpl	r5, r5, #284	; 0x11c
    45e4:	28524f52 	ldmdacs	r2, {r1, r4, r6, r8, r9, sl, fp, lr}^
    45e8:	766e4922 	strbtvc	r4, [lr], -r2, lsr #18
    45ec:	64696c61 	strbtvs	r6, [r9], #-3169	; 0xfffff39f
    45f0:	49504720 	ldmdbmi	r0, {r5, r8, r9, sl, lr}^
    45f4:	6c61204f 	stclvs	0, cr2, [r1], #-316	; 0xfffffec4
    45f8:	6e726574 	mrcvs	5, 3, r6, cr2, cr4, {3}
    45fc:	76697461 	strbtvc	r7, [r9], -r1, ror #8
    4600:	75662065 	strbvc	r2, [r6, #-101]!	; 0xffffff9b
    4604:	6974636e 	ldmdbvs	r4!, {r1, r2, r3, r5, r6, r8, r9, sp, lr}^
    4608:	2c226e6f 	stccs	14, cr6, [r2], #-444	; 0xfffffe44
    460c:	6f762820 	svcvs	0x00762820
    4610:	292a6469 	stmdbcs	sl!, {r0, r3, r5, r6, sl, sp, lr}
    4614:	746c6126 	strbtvc	r6, [ip], #-294	; 0xfffffeda
    4618:	636e7566 	cmnvs	lr, #427819008	; 0x19800000
    461c:	6973202c 	ldmdbvs	r3!, {r2, r3, r5, sp}^
    4620:	666f657a 			; <UNDEFINED> instruction: 0x666f657a
    4624:	746c6128 	strbtvc	r6, [ip], #-296	; 0xfffffed8
    4628:	636e7566 	cmnvs	lr, #427819008	; 0x19800000
    462c:	45202c29 	strmi	r2, [r0, #-3113]!	; 0xfffff3d7
    4630:	524f5252 	subpl	r5, pc, #536870917	; 0x20000005
    4634:	564e495f 			; <UNDEFINED> instruction: 0x564e495f
    4638:	44494c41 	strbmi	r4, [r9], #-3137	; 0xfffff3bf
    463c:	5241505f 	subpl	r5, r1, #95	; 0x5f
    4640:	3b294d41 	blcc	a57b4c <FPU_CPACR_CP10+0x757b4c>
    4644:	72207d20 	eorvc	r7, r0, #32, 26	; 0x800
    4648:	72757465 	rsbsvc	r7, r5, #1694498816	; 0x65000000
    464c:	5245206e 	subpl	r2, r5, #110	; 0x6e
    4650:	5f524f52 	svcpl	0x00524f52
    4654:	41564e49 	cmpmi	r6, r9, asr #28
    4658:	5f44494c 	svcpl	0x0044494c
    465c:	41524150 	cmpmi	r2, r0, asr r1
    4660:	7d203b4d 	fstmdbxvc	r0!, {d3-d40}	;@ Deprecated
    4664:	00297d20 	eoreq	r7, r9, r0, lsr #26
    4668:	615f6f69 	cmpvs	pc, r9, ror #30
    466c:	7566746c 	strbvc	r7, [r6, #-1132]!	; 0xfffffb94
    4670:	7300636e 	movwvc	r6, #878	; 0x36e
    4674:	622f6372 	eorvs	r6, pc, #-939524095	; 0xc8000001
    4678:	675f7073 			; <UNDEFINED> instruction: 0x675f7073
    467c:	2e6f6970 			; <UNDEFINED> instruction: 0x2e6f6970
    4680:	50470063 	subpl	r0, r7, r3, rrx
    4684:	4d5f4f49 	ldclmi	15, cr4, [pc, #-292]	; 4568 <SCB_AIRCR_PRIGROUP_MASK+0x3e68>
    4688:	5245444f 	subpl	r4, r5, #1325400064	; 0x4f000000
    468c:	53414d5f 	movtpl	r4, #7519	; 0x1d5f
    4690:	6970284b 	ldmdbvs	r0!, {r0, r1, r3, r6, fp, sp}^
    4694:	2820296e 	stmdacs	r0!, {r1, r2, r3, r5, r6, r8, fp, sp}
    4698:	3c3c2031 	ldccc	0, cr2, [ip], #-196	; 0xffffff3c
    469c:	69702820 	ldmdbvs	r0!, {r5, fp, sp}^
    46a0:	3c3c206e 	ldccc	0, cr2, [ip], #-440	; 0xfffffe48
    46a4:	29293120 	stmdbcs	r9!, {r5, r8, ip, sp}
    46a8:	49504700 	ldmdbmi	r0, {r8, r9, sl, lr}^
    46ac:	5f585f4f 	svcpl	0x00585f4f
    46b0:	49474552 	stmdbmi	r7, {r1, r4, r6, r8, sl, lr}^
    46b4:	52455453 	subpl	r5, r5, #1392508928	; 0x53000000
    46b8:	69706728 	ldmdbvs	r0!, {r3, r5, r8, r9, sl, sp, lr}^
    46bc:	666f2c6f 	strbtvs	r2, [pc], -pc, ror #24
    46c0:	74657366 	strbtvc	r7, [r5], #-870	; 0xfffffc9a
    46c4:	28282029 	stmdacs	r8!, {r0, r3, r5, sp}
    46c8:	616c6f76 	smcvs	50934	; 0xc6f6
    46cc:	656c6974 	strbvs	r6, [ip, #-2420]!	; 0xfffff68c
    46d0:	6e697520 	cdpvs	5, 6, cr7, cr9, cr0, {1}
    46d4:	5f323374 	svcpl	0x00323374
    46d8:	28292a74 	stmdacs	r9!, {r2, r4, r5, r6, r9, fp, sp}
    46dc:	4f495047 	svcmi	0x00495047
    46e0:	425f585f 	subsmi	r5, pc, #6225920	; 0x5f0000
    46e4:	5f455341 	svcpl	0x00455341
    46e8:	52444441 	subpl	r4, r4, #1090519040	; 0x41000000
    46ec:	20535345 	subscs	r5, r3, r5, asr #6
    46f0:	7830202b 	ldmdavc	r0!, {r0, r1, r3, r5, sp}
    46f4:	20303034 	eorscs	r3, r0, r4, lsr r0
    46f8:	7067202a 	rsbvc	r2, r7, sl, lsr #32
    46fc:	2b206f69 	blcs	8204a8 <FPU_CPACR_CP10+0x5204a8>
    4700:	66666f20 	strbtvs	r6, [r6], -r0, lsr #30
    4704:	29746573 	ldmdbcs	r4!, {r0, r1, r4, r5, r6, r8, sl, sp, lr}^
    4708:	6f690029 	svcvs	0x00690029
    470c:	6570735f 	ldrbvs	r7, [r0, #-863]!	; 0xfffffca1
    4710:	62006465 	andvs	r6, r0, #1694498816	; 0x65000000
    4714:	675f7073 			; <UNDEFINED> instruction: 0x675f7073
    4718:	5f6f6970 	svcpl	0x006f6970
    471c:	74696e69 	strbtvc	r6, [r9], #-3689	; 0xfffff197
    4720:	5f6f6900 	svcpl	0x006f6900
    4724:	65646f6d 	strbvs	r6, [r4, #-3949]!	; 0xfffff093
    4728:	65707974 	ldrbvs	r7, [r0, #-2420]!	; 0xfffff68c
    472c:	49504700 	ldmdbmi	r0, {r8, r9, sl, lr}^
    4730:	55505f4f 	ldrbpl	r5, [r0, #-3919]	; 0xfffff0b1
    4734:	5f524450 	svcpl	0x00524450
    4738:	4b53414d 	blmi	14d4c74 <FPU_ENABLE_CPACR_VALUE+0x5d4c74>
    473c:	6e697028 	cdpvs	0, 6, cr7, cr9, cr8, {1}
    4740:	31282029 			; <UNDEFINED> instruction: 0x31282029
    4744:	203c3c20 	eorscs	r3, ip, r0, lsr #24
    4748:	6e697028 	cdpvs	0, 6, cr7, cr9, cr8, {1}
    474c:	203c3c20 	eorscs	r3, ip, r0, lsr #24
    4750:	00292931 	eoreq	r2, r9, r1, lsr r9
    4754:	705f6f69 	subsvc	r6, pc, r9, ror #30
    4758:	43006e69 	movwmi	r6, #3689	; 0xe69
    475c:	4b434548 	blmi	10d5c84 <FPU_ENABLE_CPACR_VALUE+0x1d5c84>
    4760:	4550535f 	ldrbmi	r5, [r0, #-863]	; 0xfffffca1
    4764:	73284445 			; <UNDEFINED> instruction: 0x73284445
    4768:	64656570 	strbtvs	r6, [r5], #-1392	; 0xfffffa90
    476c:	7b282029 	blvc	a0c818 <FPU_CPACR_CP10+0x70c818>
    4770:	28666920 	stmdacs	r6!, {r5, r8, fp, sp, lr}^
    4774:	65657073 	strbvs	r7, [r5, #-115]!	; 0xffffff8d
    4778:	203e2064 	eorscs	r2, lr, r4, rrx
    477c:	4f495047 	svcmi	0x00495047
    4780:	4550535f 	ldrbmi	r5, [r0, #-863]	; 0xfffffca1
    4784:	565f4445 	ldrbpl	r4, [pc], -r5, asr #8
    4788:	5f595245 	svcpl	0x00595245
    478c:	48474948 	stmdami	r7, {r3, r6, r8, fp, lr}^
    4790:	207b2029 	rsbscs	r2, fp, r9, lsr #32
    4794:	4b286669 	blmi	a1e140 <FPU_CPACR_CP10+0x71e140>
    4798:	454e5245 	strbmi	r5, [lr, #-581]	; 0xfffffdbb
    479c:	4f4c5f4c 	svcmi	0x004c5f4c
    47a0:	454c5f47 	strbmi	r5, [ip, #-3911]	; 0xfffff0b9
    47a4:	204c4556 	subcs	r4, ip, r6, asr r5
    47a8:	45203d3d 	strmi	r3, [r0, #-3389]!	; 0xfffff2c3
    47ac:	524f5252 	subpl	r5, pc, #536870917	; 0x20000005
    47b0:	474f4c5f 	smlsldmi	r4, pc, pc, ip	; <UNPREDICTABLE>
    47b4:	56454c5f 			; <UNDEFINED> instruction: 0x56454c5f
    47b8:	20294c45 	eorcs	r4, r9, r5, asr #24
    47bc:	454b207b 	strbmi	r2, [fp, #-123]	; 0xffffff85
    47c0:	4c454e52 	mcrrmi	14, 5, r4, r5, cr2
    47c4:	474f4c5f 	smlsldmi	r4, pc, pc, ip	; <UNPREDICTABLE>
    47c8:	5252455f 	subspl	r4, r2, #398458880	; 0x17c00000
    47cc:	2228524f 	eorcs	r5, r8, #-268435452	; 0xf0000004
    47d0:	61766e49 	cmnvs	r6, r9, asr #28
    47d4:	2064696c 	rsbcs	r6, r4, ip, ror #18
    47d8:	4f495047 	svcmi	0x00495047
    47dc:	65707320 	ldrbvs	r7, [r0, #-800]!	; 0xfffffce0
    47e0:	2c226465 	cfstrscs	mvf6, [r2], #-404	; 0xfffffe6c
    47e4:	6f762820 	svcvs	0x00762820
    47e8:	292a6469 	stmdbcs	sl!, {r0, r3, r5, r6, sl, sp, lr}
    47ec:	65707326 	ldrbvs	r7, [r0, #-806]!	; 0xfffffcda
    47f0:	202c6465 	eorcs	r6, ip, r5, ror #8
    47f4:	657a6973 	ldrbvs	r6, [sl, #-2419]!	; 0xfffff68d
    47f8:	7328666f 			; <UNDEFINED> instruction: 0x7328666f
    47fc:	64656570 	strbtvs	r6, [r5], #-1392	; 0xfffffa90
    4800:	45202c29 	strmi	r2, [r0, #-3113]!	; 0xfffff3d7
    4804:	524f5252 	subpl	r5, pc, #536870917	; 0x20000005
    4808:	564e495f 			; <UNDEFINED> instruction: 0x564e495f
    480c:	44494c41 	strbmi	r4, [r9], #-3137	; 0xfffff3bf
    4810:	5241505f 	subpl	r5, r1, #95	; 0x5f
    4814:	3b294d41 	blcc	a57d20 <FPU_CPACR_CP10+0x757d20>
    4818:	72207d20 	eorvc	r7, r0, #32, 26	; 0x800
    481c:	72757465 	rsbsvc	r7, r5, #1694498816	; 0x65000000
    4820:	5245206e 	subpl	r2, r5, #110	; 0x6e
    4824:	5f524f52 	svcpl	0x00524f52
    4828:	41564e49 	cmpmi	r6, r9, asr #28
    482c:	5f44494c 	svcpl	0x0044494c
    4830:	41524150 	cmpmi	r2, r0, asr r1
    4834:	7d203b4d 	fstmdbxvc	r0!, {d3-d40}	;@ Deprecated
    4838:	00297d20 	eoreq	r7, r9, r0, lsr #26
    483c:	756c6176 	strbvc	r6, [ip, #-374]!	; 0xfffffe8a
    4840:	50470065 	subpl	r0, r7, r5, rrx
    4844:	535f4f49 	cmppl	pc, #292	; 0x124
    4848:	49545445 	ldmdbmi	r4, {r0, r2, r6, sl, ip, lr}^
    484c:	5f53474e 	svcpl	0x0053474e
    4850:	50470054 	subpl	r0, r7, r4, asr r0
    4854:	4f5f4f49 	svcmi	0x005f4f49
    4858:	45455053 	strbmi	r5, [r5, #-83]	; 0xffffffad
    485c:	4d5f5244 	lfmmi	f5, 2, [pc, #-272]	; 4754 <SCB_AIRCR_PRIGROUP_MASK+0x4054>
    4860:	284b5341 	stmdacs	fp, {r0, r6, r8, r9, ip, lr}^
    4864:	296e6970 	stmdbcs	lr!, {r4, r5, r6, r8, fp, sp, lr}^
    4868:	20312820 	eorscs	r2, r1, r0, lsr #16
    486c:	28203c3c 	stmdacs	r0!, {r2, r3, r4, r5, sl, fp, ip, sp}
    4870:	206e6970 	rsbcs	r6, lr, r0, ror r9
    4874:	31203c3c 			; <UNDEFINED> instruction: 0x31203c3c
    4878:	63002929 	movwvs	r2, #2345	; 0x929
    487c:	65727275 	ldrbvs	r7, [r2, #-629]!	; 0xfffffd8b
    4880:	725f746e 	subsvc	r7, pc, #1845493760	; 0x6e000000
    4884:	43006765 	movwmi	r6, #1893	; 0x765
    4888:	4b434548 	blmi	10d5db0 <FPU_ENABLE_CPACR_VALUE+0x1d5db0>
    488c:	444f4d5f 	strbmi	r4, [pc], #-3423	; 4894 <SCB_AIRCR_PRIGROUP_MASK+0x4194>
    4890:	50595445 	subspl	r5, r9, r5, asr #8
    4894:	6f6d2845 	svcvs	0x006d2845
    4898:	79746564 	ldmdbvc	r4!, {r2, r5, r6, r8, sl, sp, lr}^
    489c:	20296570 	eorcs	r6, r9, r0, ror r5
    48a0:	75207b28 	strvc	r7, [r0, #-2856]!	; 0xfffff4d8
    48a4:	33746e69 	cmncc	r4, #1680	; 0x690
    48a8:	20745f32 	rsbscs	r5, r4, r2, lsr pc
    48ac:	756c6176 	strbvc	r6, [ip, #-374]!	; 0xfffffe8a
    48b0:	203d2065 	eorscs	r2, sp, r5, rrx
    48b4:	65646f6d 	strbvs	r6, [r4, #-3949]!	; 0xfffff093
    48b8:	65707974 	ldrbvs	r7, [r0, #-2420]!	; 0xfffff68c
    48bc:	47202620 	strmi	r2, [r0, -r0, lsr #12]!
    48c0:	5f4f4950 	svcpl	0x004f4950
    48c4:	45444f4d 	strbmi	r4, [r4, #-3917]	; 0xfffff0b3
    48c8:	53414d5f 	movtpl	r4, #7519	; 0x1d5f
    48cc:	69203b4b 	stmdbvs	r0!, {r0, r1, r3, r6, r8, r9, fp, ip, sp}
    48d0:	61762866 	cmnvs	r6, r6, ror #16
    48d4:	2065756c 	rsbcs	r7, r5, ip, ror #10
    48d8:	47203d21 	strmi	r3, [r0, -r1, lsr #26]!
    48dc:	5f4f4950 	svcpl	0x004f4950
    48e0:	45444f4d 	strbmi	r4, [r4, #-3917]	; 0xfffff0b3
    48e4:	414e415f 	cmpmi	lr, pc, asr r1
    48e8:	20474f4c 	subcs	r4, r7, ip, asr #30
    48ec:	76202626 	strtvc	r2, [r0], -r6, lsr #12
    48f0:	65756c61 	ldrbvs	r6, [r5, #-3169]!	; 0xfffff39f
    48f4:	203d2120 	eorscs	r2, sp, r0, lsr #2
    48f8:	4f495047 	svcmi	0x00495047
    48fc:	444f4d5f 	strbmi	r4, [pc], #-3423	; 4904 <SCB_AIRCR_PRIGROUP_MASK+0x4204>
    4900:	4c415f45 	mcrrmi	15, 4, r5, r1, cr5
    4904:	4e554654 	mrcmi	6, 2, r4, cr5, cr4, {2}
    4908:	20262620 	eorcs	r2, r6, r0, lsr #12
    490c:	756c6176 	strbvc	r6, [ip, #-374]!	; 0xfffffe8a
    4910:	3d212065 	stccc	0, cr2, [r1, #-404]!	; 0xfffffe6c
    4914:	49504720 	ldmdbmi	r0, {r5, r8, r9, sl, lr}^
    4918:	4f4d5f4f 	svcmi	0x004d5f4f
    491c:	4f5f4544 	svcmi	0x005f4544
    4920:	55505455 	ldrbpl	r5, [r0, #-1109]	; 0xfffffbab
    4924:	26262054 			; <UNDEFINED> instruction: 0x26262054
    4928:	6c617620 	stclvs	6, cr7, [r1], #-128	; 0xffffff80
    492c:	21206575 			; <UNDEFINED> instruction: 0x21206575
    4930:	5047203d 	subpl	r2, r7, sp, lsr r0
    4934:	4d5f4f49 	ldclmi	15, cr4, [pc, #-292]	; 4818 <SCB_AIRCR_PRIGROUP_MASK+0x4118>
    4938:	5f45444f 	svcpl	0x0045444f
    493c:	55504e49 	ldrbpl	r4, [r0, #-3657]	; 0xfffff1b7
    4940:	7b202954 	blvc	80ee98 <FPU_CPACR_CP10+0x50ee98>
    4944:	28666920 	stmdacs	r6!, {r5, r8, fp, sp, lr}^
    4948:	4e52454b 	cdpmi	5, 5, cr4, cr2, cr11, {2}
    494c:	4c5f4c45 	mrrcmi	12, 4, r4, pc, cr5	; <UNPREDICTABLE>
    4950:	4c5f474f 	mrrcmi	7, 4, r4, pc, cr15	; <UNPREDICTABLE>
    4954:	4c455645 	mcrrmi	6, 4, r5, r5, cr5
    4958:	203d3d20 	eorscs	r3, sp, r0, lsr #26
    495c:	4f525245 	svcmi	0x00525245
    4960:	4f4c5f52 	svcmi	0x004c5f52
    4964:	454c5f47 	strbmi	r5, [ip, #-3911]	; 0xfffff0b9
    4968:	294c4556 	stmdbcs	ip, {r1, r2, r4, r6, r8, sl, lr}^
    496c:	4b207b20 	blmi	8235f4 <FPU_CPACR_CP10+0x5235f4>
    4970:	454e5245 	strbmi	r5, [lr, #-581]	; 0xfffffdbb
    4974:	4f4c5f4c 	svcmi	0x004c5f4c
    4978:	52455f47 	subpl	r5, r5, #284	; 0x11c
    497c:	28524f52 	ldmdacs	r2, {r1, r4, r6, r8, r9, sl, fp, lr}^
    4980:	766e4922 	strbtvc	r4, [lr], -r2, lsr #18
    4984:	64696c61 	strbtvs	r6, [r9], #-3169	; 0xfffff39f
    4988:	49504720 	ldmdbmi	r0, {r5, r8, r9, sl, lr}^
    498c:	6f6d204f 	svcvs	0x006d204f
    4990:	742f6564 	strtvc	r6, [pc], #-1380	; 4998 <SCB_AIRCR_PRIGROUP_MASK+0x4298>
    4994:	22657079 	rsbcs	r7, r5, #121	; 0x79
    4998:	7628202c 	strtvc	r2, [r8], -ip, lsr #32
    499c:	2a64696f 	bcs	191ef60 <FPU_ENABLE_CPACR_VALUE+0xa1ef60>
    49a0:	6f6d2629 	svcvs	0x006d2629
    49a4:	79746564 	ldmdbvc	r4!, {r2, r5, r6, r8, sl, sp, lr}^
    49a8:	202c6570 	eorcs	r6, ip, r0, ror r5
    49ac:	657a6973 	ldrbvs	r6, [sl, #-2419]!	; 0xfffff68d
    49b0:	6d28666f 	stcvs	6, cr6, [r8, #-444]!	; 0xfffffe44
    49b4:	7465646f 	strbtvc	r6, [r5], #-1135	; 0xfffffb91
    49b8:	29657079 	stmdbcs	r5!, {r0, r3, r4, r5, r6, ip, sp, lr}^
    49bc:	5245202c 	subpl	r2, r5, #44	; 0x2c
    49c0:	5f524f52 	svcpl	0x00524f52
    49c4:	41564e49 	cmpmi	r6, r9, asr #28
    49c8:	5f44494c 	svcpl	0x0044494c
    49cc:	41524150 	cmpmi	r2, r0, asr r1
    49d0:	203b294d 	eorscs	r2, fp, sp, asr #18
    49d4:	6572207d 	ldrbvs	r2, [r2, #-125]!	; 0xffffff83
    49d8:	6e727574 	mrcvs	5, 3, r7, cr2, cr4, {3}
    49dc:	52524520 	subspl	r4, r2, #32, 10	; 0x8000000
    49e0:	495f524f 	ldmdbmi	pc, {r0, r1, r2, r3, r6, r9, ip, lr}^	; <UNPREDICTABLE>
    49e4:	4c41564e 	mcrrmi	6, 4, r5, r1, cr14
    49e8:	505f4449 	subspl	r4, pc, r9, asr #8
    49ec:	4d415241 	sfmmi	f5, 2, [r1, #-260]	; 0xfffffefc
    49f0:	207d203b 	rsbscs	r2, sp, fp, lsr r0
    49f4:	756c6176 	strbvc	r6, [ip, #-374]!	; 0xfffffe8a
    49f8:	203d2065 	eorscs	r2, sp, r5, rrx
    49fc:	65646f6d 	strbvs	r6, [r4, #-3949]!	; 0xfffff093
    4a00:	65707974 	ldrbvs	r7, [r0, #-2420]!	; 0xfffff68c
    4a04:	47202620 	strmi	r2, [r0, -r0, lsr #12]!
    4a08:	5f4f4950 	svcpl	0x004f4950
    4a0c:	45505954 	ldrbmi	r5, [r0, #-2388]	; 0xfffff6ac
    4a10:	53414d5f 	movtpl	r4, #7519	; 0x1d5f
    4a14:	69203b4b 	stmdbvs	r0!, {r0, r1, r3, r6, r8, r9, fp, ip, sp}
    4a18:	61762866 	cmnvs	r6, r6, ror #16
    4a1c:	2065756c 	rsbcs	r7, r5, ip, ror #10
    4a20:	47203d21 	strmi	r3, [r0, -r1, lsr #26]!
    4a24:	5f4f4950 	svcpl	0x004f4950
    4a28:	45505954 	ldrbmi	r5, [r0, #-2388]	; 0xfffff6ac
    4a2c:	45504f5f 	ldrbmi	r4, [r0, #-3935]	; 0xfffff0a1
    4a30:	4152444e 	cmpmi	r2, lr, asr #8
    4a34:	26204e49 	strtcs	r4, [r0], -r9, asr #28
    4a38:	61762026 	cmnvs	r6, r6, lsr #32
    4a3c:	2065756c 	rsbcs	r7, r5, ip, ror #10
    4a40:	47203d21 	strmi	r3, [r0, -r1, lsr #26]!
    4a44:	5f4f4950 	svcpl	0x004f4950
    4a48:	45505954 	ldrbmi	r5, [r0, #-2388]	; 0xfffff6ac
    4a4c:	5355505f 	cmppl	r5, #95	; 0x5f
    4a50:	4c555048 	mrrcmi	0, 4, r5, r5, cr8	; <UNPREDICTABLE>
    4a54:	7b20294c 	blvc	80ef8c <FPU_CPACR_CP10+0x50ef8c>
    4a58:	28666920 	stmdacs	r6!, {r5, r8, fp, sp, lr}^
    4a5c:	4e52454b 	cdpmi	5, 5, cr4, cr2, cr11, {2}
    4a60:	4c5f4c45 	mrrcmi	12, 4, r4, pc, cr5	; <UNPREDICTABLE>
    4a64:	4c5f474f 	mrrcmi	7, 4, r4, pc, cr15	; <UNPREDICTABLE>
    4a68:	4c455645 	mcrrmi	6, 4, r5, r5, cr5
    4a6c:	203d3d20 	eorscs	r3, sp, r0, lsr #26
    4a70:	4f525245 	svcmi	0x00525245
    4a74:	4f4c5f52 	svcmi	0x004c5f52
    4a78:	454c5f47 	strbmi	r5, [ip, #-3911]	; 0xfffff0b9
    4a7c:	294c4556 	stmdbcs	ip, {r1, r2, r4, r6, r8, sl, lr}^
    4a80:	4b207b20 	blmi	823708 <FPU_CPACR_CP10+0x523708>
    4a84:	454e5245 	strbmi	r5, [lr, #-581]	; 0xfffffdbb
    4a88:	4f4c5f4c 	svcmi	0x004c5f4c
    4a8c:	52455f47 	subpl	r5, r5, #284	; 0x11c
    4a90:	28524f52 	ldmdacs	r2, {r1, r4, r6, r8, r9, sl, fp, lr}^
    4a94:	766e4922 	strbtvc	r4, [lr], -r2, lsr #18
    4a98:	64696c61 	strbtvs	r6, [r9], #-3169	; 0xfffff39f
    4a9c:	49504720 	ldmdbmi	r0, {r5, r8, r9, sl, lr}^
    4aa0:	6f6d204f 	svcvs	0x006d204f
    4aa4:	742f6564 	strtvc	r6, [pc], #-1380	; 4aac <SCB_AIRCR_PRIGROUP_MASK+0x43ac>
    4aa8:	22657079 	rsbcs	r7, r5, #121	; 0x79
    4aac:	7628202c 	strtvc	r2, [r8], -ip, lsr #32
    4ab0:	2a64696f 	bcs	191f074 <FPU_ENABLE_CPACR_VALUE+0xa1f074>
    4ab4:	6f6d2629 	svcvs	0x006d2629
    4ab8:	79746564 	ldmdbvc	r4!, {r2, r5, r6, r8, sl, sp, lr}^
    4abc:	202c6570 	eorcs	r6, ip, r0, ror r5
    4ac0:	657a6973 	ldrbvs	r6, [sl, #-2419]!	; 0xfffff68d
    4ac4:	6d28666f 	stcvs	6, cr6, [r8, #-444]!	; 0xfffffe44
    4ac8:	7465646f 	strbtvc	r6, [r5], #-1135	; 0xfffffb91
    4acc:	29657079 	stmdbcs	r5!, {r0, r3, r4, r5, r6, ip, sp, lr}^
    4ad0:	5245202c 	subpl	r2, r5, #44	; 0x2c
    4ad4:	5f524f52 	svcpl	0x00524f52
    4ad8:	41564e49 	cmpmi	r6, r9, asr #28
    4adc:	5f44494c 	svcpl	0x0044494c
    4ae0:	41524150 	cmpmi	r2, r0, asr r1
    4ae4:	203b294d 	eorscs	r2, fp, sp, asr #18
    4ae8:	6572207d 	ldrbvs	r2, [r2, #-125]!	; 0xffffff83
    4aec:	6e727574 	mrcvs	5, 3, r7, cr2, cr4, {3}
    4af0:	52524520 	subspl	r4, r2, #32, 10	; 0x8000000
    4af4:	495f524f 	ldmdbmi	pc, {r0, r1, r2, r3, r6, r9, ip, lr}^	; <UNPREDICTABLE>
    4af8:	4c41564e 	mcrrmi	6, 4, r5, r1, cr14
    4afc:	505f4449 	subspl	r4, pc, r9, asr #8
    4b00:	4d415241 	sfmmi	f5, 2, [r1, #-260]	; 0xfffffefc
    4b04:	207d203b 	rsbscs	r2, sp, fp, lsr r0
    4b08:	756c6176 	strbvc	r6, [ip, #-374]!	; 0xfffffe8a
    4b0c:	203d2065 	eorscs	r2, sp, r5, rrx
    4b10:	65646f6d 	strbvs	r6, [r4, #-3949]!	; 0xfffff093
    4b14:	65707974 	ldrbvs	r7, [r0, #-2420]!	; 0xfffff68c
    4b18:	47202620 	strmi	r2, [r0, -r0, lsr #12]!
    4b1c:	5f4f4950 	svcpl	0x004f4950
    4b20:	44505550 	ldrbmi	r5, [r0], #-1360	; 0xfffffab0
    4b24:	53414d5f 	movtpl	r4, #7519	; 0x1d5f
    4b28:	69203b4b 	stmdbvs	r0!, {r0, r1, r3, r6, r8, r9, fp, ip, sp}
    4b2c:	61762866 	cmnvs	r6, r6, ror #16
    4b30:	2065756c 	rsbcs	r7, r5, ip, ror #10
    4b34:	47203d21 	strmi	r3, [r0, -r1, lsr #26]!
    4b38:	5f4f4950 	svcpl	0x004f4950
    4b3c:	44505550 	ldrbmi	r5, [r0], #-1360	; 0xfffffab0
    4b40:	2044505f 	subcs	r5, r4, pc, asr r0
    4b44:	76202626 	strtvc	r2, [r0], -r6, lsr #12
    4b48:	65756c61 	ldrbvs	r6, [r5, #-3169]!	; 0xfffff39f
    4b4c:	203d2120 	eorscs	r2, sp, r0, lsr #2
    4b50:	4f495047 	svcmi	0x00495047
    4b54:	5055505f 	subspl	r5, r5, pc, asr r0
    4b58:	55505f44 	ldrbpl	r5, [r0, #-3908]	; 0xfffff0bc
    4b5c:	20262620 	eorcs	r2, r6, r0, lsr #12
    4b60:	756c6176 	strbvc	r6, [ip, #-374]!	; 0xfffffe8a
    4b64:	3d212065 	stccc	0, cr2, [r1, #-404]!	; 0xfffffe6c
    4b68:	49504720 	ldmdbmi	r0, {r5, r8, r9, sl, lr}^
    4b6c:	55505f4f 	ldrbpl	r5, [r0, #-3919]	; 0xfffff0b1
    4b70:	4e5f4450 	mrcmi	4, 2, r4, cr15, cr0, {2}
    4b74:	29454e4f 	stmdbcs	r5, {r0, r1, r2, r3, r6, r9, sl, fp, lr}^
    4b78:	69207b20 	stmdbvs	r0!, {r5, r8, r9, fp, ip, sp, lr}
    4b7c:	454b2866 	strbmi	r2, [fp, #-2150]	; 0xfffff79a
    4b80:	4c454e52 	mcrrmi	14, 5, r4, r5, cr2
    4b84:	474f4c5f 	smlsldmi	r4, pc, pc, ip	; <UNPREDICTABLE>
    4b88:	56454c5f 			; <UNDEFINED> instruction: 0x56454c5f
    4b8c:	3d204c45 	stccc	12, cr4, [r0, #-276]!	; 0xfffffeec
    4b90:	5245203d 	subpl	r2, r5, #61	; 0x3d
    4b94:	5f524f52 	svcpl	0x00524f52
    4b98:	5f474f4c 	svcpl	0x00474f4c
    4b9c:	4556454c 	ldrbmi	r4, [r6, #-1356]	; 0xfffffab4
    4ba0:	7b20294c 	blvc	80f0d8 <FPU_CPACR_CP10+0x50f0d8>
    4ba4:	52454b20 	subpl	r4, r5, #32, 22	; 0x8000
    4ba8:	5f4c454e 	svcpl	0x004c454e
    4bac:	5f474f4c 	svcpl	0x00474f4c
    4bb0:	4f525245 	svcmi	0x00525245
    4bb4:	49222852 	stmdbmi	r2!, {r1, r4, r6, fp, sp}
    4bb8:	6c61766e 	stclvs	6, cr7, [r1], #-440	; 0xfffffe48
    4bbc:	47206469 	strmi	r6, [r0, -r9, ror #8]!
    4bc0:	204f4950 	subcs	r4, pc, r0, asr r9	; <UNPREDICTABLE>
    4bc4:	65646f6d 	strbvs	r6, [r4, #-3949]!	; 0xfffff093
    4bc8:	7079742f 	rsbsvc	r7, r9, pc, lsr #8
    4bcc:	202c2265 	eorcs	r2, ip, r5, ror #4
    4bd0:	696f7628 	stmdbvs	pc!, {r3, r5, r9, sl, ip, sp, lr}^	; <UNPREDICTABLE>
    4bd4:	26292a64 	strtcs	r2, [r9], -r4, ror #20
    4bd8:	65646f6d 	strbvs	r6, [r4, #-3949]!	; 0xfffff093
    4bdc:	65707974 	ldrbvs	r7, [r0, #-2420]!	; 0xfffff68c
    4be0:	6973202c 	ldmdbvs	r3!, {r2, r3, r5, sp}^
    4be4:	666f657a 			; <UNDEFINED> instruction: 0x666f657a
    4be8:	646f6d28 	strbtvs	r6, [pc], #-3368	; 4bf0 <SCB_AIRCR_PRIGROUP_MASK+0x44f0>
    4bec:	70797465 	rsbsvc	r7, r9, r5, ror #8
    4bf0:	202c2965 	eorcs	r2, ip, r5, ror #18
    4bf4:	4f525245 	svcmi	0x00525245
    4bf8:	4e495f52 	mcrmi	15, 2, r5, cr9, cr2, {2}
    4bfc:	494c4156 	stmdbmi	ip, {r1, r2, r4, r6, r8, lr}^
    4c00:	41505f44 	cmpmi	r0, r4, asr #30
    4c04:	294d4152 	stmdbcs	sp, {r1, r4, r6, r8, lr}^
    4c08:	207d203b 	rsbscs	r2, sp, fp, lsr r0
    4c0c:	75746572 	ldrbvc	r6, [r4, #-1394]!	; 0xfffffa8e
    4c10:	45206e72 	strmi	r6, [r0, #-3698]!	; 0xfffff18e
    4c14:	524f5252 	subpl	r5, pc, #536870917	; 0x20000005
    4c18:	564e495f 			; <UNDEFINED> instruction: 0x564e495f
    4c1c:	44494c41 	strbmi	r4, [r9], #-3137	; 0xfffff3bf
    4c20:	5241505f 	subpl	r5, r1, #95	; 0x5f
    4c24:	203b4d41 	eorscs	r4, fp, r1, asr #26
    4c28:	297d207d 	ldmdbcs	sp!, {r0, r2, r3, r4, r5, r6, sp}^
    4c2c:	7a697300 	bvc	1a61834 <FPU_ENABLE_CPACR_VALUE+0xb61834>
    4c30:	00745f65 	rsbseq	r5, r4, r5, ror #30
    4c34:	4f425f5f 	svcmi	0x00425f5f
    4c38:	5f445241 	svcpl	0x00445241
    4c3c:	49524553 	ldmdbmi	r2, {r0, r1, r4, r6, r8, sl, lr}^
    4c40:	485f4c41 	ldmdami	pc, {r0, r6, sl, fp, lr}^	; <UNPREDICTABLE>
    4c44:	00205f5f 	eoreq	r5, r0, pc, asr pc
    4c48:	5f707362 	svcpl	0x00707362
    4c4c:	67676f6c 	strbvs	r6, [r7, -ip, ror #30]!
    4c50:	775f7265 	ldrbvc	r7, [pc, -r5, ror #4]
    4c54:	65746972 	ldrbvs	r6, [r4, #-2418]!	; 0xfffff68e
    4c58:	6f6f685f 	svcvs	0x006f685f
    4c5c:	7273006b 	rsbsvc	r0, r3, #107	; 0x6b
    4c60:	73622f63 	cmnvc	r2, #396	; 0x18c
    4c64:	6f6c5f70 	svcvs	0x006c5f70
    4c68:	72656767 	rsbvc	r6, r5, #27000832	; 0x19c0000
    4c6c:	5f00632e 	svcpl	0x0000632e
    4c70:	414f425f 	cmpmi	pc, pc, asr r2	; <UNPREDICTABLE>
    4c74:	4c5f4452 	cfldrdmi	mvd4, [pc], {82}	; 0x52
    4c78:	4547474f 	strbmi	r4, [r7, #-1871]	; 0xfffff8b1
    4c7c:	5f485f52 	svcpl	0x00485f52
    4c80:	7300205f 	movwvc	r2, #95	; 0x5f
    4c84:	622f6372 	eorvs	r6, pc, #-939524095	; 0xc8000001
    4c88:	705f7073 	subsvc	r7, pc, r3, ror r0	; <UNPREDICTABLE>
    4c8c:	7265776f 	rsbvc	r7, r5, #29097984	; 0x1bc0000
    4c90:	6200632e 	andvs	r6, r0, #-1207959552	; 0xb8000000
    4c94:	705f7073 	subsvc	r7, pc, r3, ror r0	; <UNPREDICTABLE>
    4c98:	735f7277 	cmpvc	pc, #1879048199	; 0x70000007
    4c9c:	735f7465 	cmpvc	pc, #1694498816	; 0x65000000
    4ca0:	696c6163 	stmdbvs	ip!, {r0, r1, r5, r6, r8, sp, lr}^
    4ca4:	7000676e 	andvc	r6, r0, lr, ror #14
    4ca8:	735f7277 	cmpvc	pc, #1879048199	; 0x70000007
    4cac:	696c6163 	stmdbvs	ip!, {r0, r1, r5, r6, r8, sp, lr}^
    4cb0:	5000676e 	andpl	r6, r0, lr, ror #14
    4cb4:	5245574f 	subpl	r5, r5, #20709376	; 0x13c0000
    4cb8:	4143535f 	cmpmi	r3, pc, asr r3
    4cbc:	474e494c 	strbmi	r4, [lr, -ip, asr #18]
    4cc0:	6200455f 	andvs	r4, r0, #398458880	; 0x17c00000
    4cc4:	72647561 	rsbvc	r7, r4, #406847488	; 0x18400000
    4cc8:	00657461 	rsbeq	r7, r5, r1, ror #8
    4ccc:	71617266 	cmnvc	r1, r6, ror #4
    4cd0:	6e616d00 	cdpvs	13, 6, cr6, cr1, cr0, {0}
    4cd4:	73736974 	cmnvc	r3, #116, 18	; 0x1d0000
    4cd8:	45530061 	ldrbmi	r0, [r3, #-97]	; 0xffffff9f
    4cdc:	4c414952 	mcrrmi	9, 5, r4, r1, cr2	; <UNPREDICTABLE>
    4ce0:	5445535f 	strbpl	r5, [r5], #-863	; 0xfffffca1
    4ce4:	474e4954 	smlsldmi	r4, lr, r4, r9
    4ce8:	65730053 	ldrbvs	r0, [r3, #-83]!	; 0xffffffad
    4cec:	6c616972 			; <UNDEFINED> instruction: 0x6c616972
    4cf0:	696e695f 	stmdbvs	lr!, {r0, r1, r2, r3, r4, r6, r8, fp, sp, lr}^
    4cf4:	61700074 	cmnvs	r0, r4, ror r0
    4cf8:	74697472 	strbtvc	r7, [r9], #-1138	; 0xfffffb8e
    4cfc:	73620079 	cmnvc	r2, #121	; 0x79
    4d00:	73755f70 	cmnvc	r5, #112, 30	; 0x1c0
    4d04:	5f747261 	svcpl	0x00747261
    4d08:	62616e65 	rsbvs	r6, r1, #1616	; 0x650
    4d0c:	4300656c 	movwmi	r6, #1388	; 0x56c
    4d10:	4b434548 	blmi	10d6238 <FPU_ENABLE_CPACR_VALUE+0x1d6238>
    4d14:	5541425f 	strbpl	r4, [r1, #-607]	; 0xfffffda1
    4d18:	54415244 	strbpl	r5, [r1], #-580	; 0xfffffdbc
    4d1c:	61622845 	cmnvs	r2, r5, asr #16
    4d20:	61726475 	cmnvs	r2, r5, ror r4
    4d24:	20296574 	eorcs	r6, r9, r4, ror r5
    4d28:	73207b28 			; <UNDEFINED> instruction: 0x73207b28
    4d2c:	63746977 	cmnvs	r4, #1949696	; 0x1dc000
    4d30:	61622868 	cmnvs	r2, r8, ror #16
    4d34:	61726475 	cmnvs	r2, r5, ror r4
    4d38:	20296574 	eorcs	r6, r9, r4, ror r5
    4d3c:	6163207b 	smcvs	12811	; 0x320b
    4d40:	31206573 			; <UNDEFINED> instruction: 0x31206573
    4d44:	3a303032 	bcc	c10e14 <FPU_CPACR_CP11+0x10e14>
    4d48:	73616320 	cmnvc	r1, #32, 6	; 0x80000000
    4d4c:	34322065 	ldrtcc	r2, [r2], #-101	; 0xffffff9b
    4d50:	203a3030 	eorscs	r3, sl, r0, lsr r0
    4d54:	65736163 	ldrbvs	r6, [r3, #-355]!	; 0xfffffe9d
    4d58:	30363920 	eorscc	r3, r6, r0, lsr #18
    4d5c:	63203a30 			; <UNDEFINED> instruction: 0x63203a30
    4d60:	20657361 	rsbcs	r7, r5, r1, ror #6
    4d64:	30323931 	eorscc	r3, r2, r1, lsr r9
    4d68:	63203a30 			; <UNDEFINED> instruction: 0x63203a30
    4d6c:	20657361 	rsbcs	r7, r5, r1, ror #6
    4d70:	30343833 	eorscc	r3, r4, r3, lsr r8
    4d74:	63203a30 			; <UNDEFINED> instruction: 0x63203a30
    4d78:	20657361 	rsbcs	r7, r5, r1, ror #6
    4d7c:	30363735 	eorscc	r3, r6, r5, lsr r7
    4d80:	63203a30 			; <UNDEFINED> instruction: 0x63203a30
    4d84:	20657361 	rsbcs	r7, r5, r1, ror #6
    4d88:	32353131 	eorscc	r3, r5, #1073741836	; 0x4000000c
    4d8c:	203a3030 	eorscs	r3, sl, r0, lsr r0
    4d90:	65736163 	ldrbvs	r6, [r3, #-355]!	; 0xfffffe9d
    4d94:	36353220 	ldrtcc	r3, [r5], -r0, lsr #4
    4d98:	3a303030 	bcc	c10e60 <FPU_CPACR_CP11+0x10e60>
    4d9c:	73616320 	cmnvc	r1, #32, 6	; 0x80000000
    4da0:	36342065 	ldrtcc	r2, [r4], -r5, rrx
    4da4:	30303830 	eorscc	r3, r0, r0, lsr r8
    4da8:	6163203a 	cmnvs	r3, sl, lsr r0
    4dac:	39206573 	stmdbcc	r0!, {r0, r1, r4, r5, r6, r8, sl, sp, lr}
    4db0:	30363132 	eorscc	r3, r6, r2, lsr r1
    4db4:	63203a30 			; <UNDEFINED> instruction: 0x63203a30
    4db8:	20657361 	rsbcs	r7, r5, r1, ror #6
    4dbc:	33343831 	teqcc	r4, #3211264	; 0x310000
    4dc0:	3a303032 	bcc	c10e90 <FPU_CPACR_CP11+0x10e90>
    4dc4:	65726220 	ldrbvs	r6, [r2, #-544]!	; 0xfffffde0
    4dc8:	203b6b61 	eorscs	r6, fp, r1, ror #22
    4dcc:	61666564 	cmnvs	r6, r4, ror #10
    4dd0:	3a746c75 	bcc	1d1ffac <FPU_ENABLE_CPACR_VALUE+0xe1ffac>
    4dd4:	28666920 	stmdacs	r6!, {r5, r8, fp, sp, lr}^
    4dd8:	4e52454b 	cdpmi	5, 5, cr4, cr2, cr11, {2}
    4ddc:	4c5f4c45 	mrrcmi	12, 4, r4, pc, cr5	; <UNPREDICTABLE>
    4de0:	4c5f474f 	mrrcmi	7, 4, r4, pc, cr15	; <UNPREDICTABLE>
    4de4:	4c455645 	mcrrmi	6, 4, r5, r5, cr5
    4de8:	203d3d20 	eorscs	r3, sp, r0, lsr #26
    4dec:	4f525245 	svcmi	0x00525245
    4df0:	4f4c5f52 	svcmi	0x004c5f52
    4df4:	454c5f47 	strbmi	r5, [ip, #-3911]	; 0xfffff0b9
    4df8:	294c4556 	stmdbcs	ip, {r1, r2, r4, r6, r8, sl, lr}^
    4dfc:	4b207b20 	blmi	823a84 <FPU_CPACR_CP10+0x523a84>
    4e00:	454e5245 	strbmi	r5, [lr, #-581]	; 0xfffffdbb
    4e04:	4f4c5f4c 	svcmi	0x004c5f4c
    4e08:	52455f47 	subpl	r5, r5, #284	; 0x11c
    4e0c:	28524f52 	ldmdacs	r2, {r1, r4, r6, r8, r9, sl, fp, lr}^
    4e10:	766e4922 	strbtvc	r4, [lr], -r2, lsr #18
    4e14:	64696c61 	strbtvs	r6, [r9], #-3169	; 0xfffff39f
    4e18:	41535520 	cmpmi	r3, r0, lsr #10
    4e1c:	62205452 	eorvs	r5, r0, #1375731712	; 0x52000000
    4e20:	72647561 	rsbvc	r7, r4, #406847488	; 0x18400000
    4e24:	22657461 	rsbcs	r7, r5, #1627389952	; 0x61000000
    4e28:	7628202c 	strtvc	r2, [r8], -ip, lsr #32
    4e2c:	2a64696f 	bcs	191f3f0 <FPU_ENABLE_CPACR_VALUE+0xa1f3f0>
    4e30:	61622629 	cmnvs	r2, r9, lsr #12
    4e34:	61726475 	cmnvs	r2, r5, ror r4
    4e38:	202c6574 	eorcs	r6, ip, r4, ror r5
    4e3c:	657a6973 	ldrbvs	r6, [sl, #-2419]!	; 0xfffff68d
    4e40:	6228666f 	eorvs	r6, r8, #116391936	; 0x6f00000
    4e44:	72647561 	rsbvc	r7, r4, #406847488	; 0x18400000
    4e48:	29657461 	stmdbcs	r5!, {r0, r5, r6, sl, ip, sp, lr}^
    4e4c:	5245202c 	subpl	r2, r5, #44	; 0x2c
    4e50:	5f524f52 	svcpl	0x00524f52
    4e54:	41564e49 	cmpmi	r6, r9, asr #28
    4e58:	5f44494c 	svcpl	0x0044494c
    4e5c:	41524150 	cmpmi	r2, r0, asr r1
    4e60:	203b294d 	eorscs	r2, fp, sp, asr #18
    4e64:	6572207d 	ldrbvs	r2, [r2, #-125]!	; 0xffffff83
    4e68:	6e727574 	mrcvs	5, 3, r7, cr2, cr4, {3}
    4e6c:	52524520 	subspl	r4, r2, #32, 10	; 0x8000000
    4e70:	495f524f 	ldmdbmi	pc, {r0, r1, r2, r3, r6, r9, ip, lr}^	; <UNPREDICTABLE>
    4e74:	4c41564e 	mcrrmi	6, 4, r5, r1, cr14
    4e78:	505f4449 	subspl	r4, pc, r9, asr #8
    4e7c:	4d415241 	sfmmi	f5, 2, [r1, #-260]	; 0xfffffefc
    4e80:	207d203b 	rsbscs	r2, sp, fp, lsr r0
    4e84:	4300297d 	movwmi	r2, #2429	; 0x97d
    4e88:	4b434548 	blmi	10d63b0 <FPU_ENABLE_CPACR_VALUE+0x1d63b0>
    4e8c:	4f54535f 	svcmi	0x0054535f
    4e90:	54494250 	strbpl	r4, [r9], #-592	; 0xfffffdb0
    4e94:	74732853 	ldrbtvc	r2, [r3], #-2131	; 0xfffff7ad
    4e98:	74696270 	strbtvc	r6, [r9], #-624	; 0xfffffd90
    4e9c:	28202973 	stmdacs	r0!, {r0, r1, r4, r5, r6, r8, fp, sp}
    4ea0:	7773207b 			; <UNDEFINED> instruction: 0x7773207b
    4ea4:	68637469 	stmdavs	r3!, {r0, r3, r5, r6, sl, ip, sp, lr}^
    4ea8:	70747328 	rsbsvc	r7, r4, r8, lsr #6
    4eac:	73746962 	cmnvc	r4, #1605632	; 0x188000
    4eb0:	207b2029 	rsbscs	r2, fp, r9, lsr #32
    4eb4:	65736163 	ldrbvs	r6, [r3, #-355]!	; 0xfffffe9d
    4eb8:	52455320 	subpl	r5, r5, #32, 6	; 0x80000000
    4ebc:	5f4c4149 	svcpl	0x004c4149
    4ec0:	504f5453 	subpl	r5, pc, r3, asr r4	; <UNPREDICTABLE>
    4ec4:	5449425f 	strbpl	r4, [r9], #-607	; 0xfffffda1
    4ec8:	35305f53 	ldrcc	r5, [r0, #-3923]!	; 0xfffff0ad
    4ecc:	6163203a 	cmnvs	r3, sl, lsr r0
    4ed0:	53206573 			; <UNDEFINED> instruction: 0x53206573
    4ed4:	41495245 	cmpmi	r9, r5, asr #4
    4ed8:	54535f4c 	ldrbpl	r5, [r3], #-3916	; 0xfffff0b4
    4edc:	425f504f 	subsmi	r5, pc, #79	; 0x4f
    4ee0:	5f535449 	svcpl	0x00535449
    4ee4:	63203a31 			; <UNDEFINED> instruction: 0x63203a31
    4ee8:	20657361 	rsbcs	r7, r5, r1, ror #6
    4eec:	49524553 	ldmdbmi	r2, {r0, r1, r4, r6, r8, sl, lr}^
    4ef0:	535f4c41 	cmppl	pc, #16640	; 0x4100
    4ef4:	5f504f54 	svcpl	0x00504f54
    4ef8:	53544942 	cmppl	r4, #1081344	; 0x108000
    4efc:	3a35315f 	bcc	d51480 <FPU_CPACR_CP11+0x151480>
    4f00:	73616320 	cmnvc	r1, #32, 6	; 0x80000000
    4f04:	45532065 	ldrbmi	r2, [r3, #-101]	; 0xffffff9b
    4f08:	4c414952 	mcrrmi	9, 5, r4, r1, cr2	; <UNPREDICTABLE>
    4f0c:	4f54535f 	svcmi	0x0054535f
    4f10:	49425f50 	stmdbmi	r2, {r4, r6, r8, r9, sl, fp, ip, lr}^
    4f14:	325f5354 	subscc	r5, pc, #84, 6	; 0x50000001
    4f18:	7262203a 	rsbvc	r2, r2, #58	; 0x3a
    4f1c:	3b6b6165 	blcc	1add4b8 <FPU_ENABLE_CPACR_VALUE+0xbdd4b8>
    4f20:	66656420 	strbtvs	r6, [r5], -r0, lsr #8
    4f24:	746c7561 	strbtvc	r7, [ip], #-1377	; 0xfffffa9f
    4f28:	6669203a 			; <UNDEFINED> instruction: 0x6669203a
    4f2c:	52454b28 	subpl	r4, r5, #40, 22	; 0xa000
    4f30:	5f4c454e 	svcpl	0x004c454e
    4f34:	5f474f4c 	svcpl	0x00474f4c
    4f38:	4556454c 	ldrbmi	r4, [r6, #-1356]	; 0xfffffab4
    4f3c:	3d3d204c 	ldccc	0, cr2, [sp, #-304]!	; 0xfffffed0
    4f40:	52524520 	subspl	r4, r2, #32, 10	; 0x8000000
    4f44:	4c5f524f 	lfmmi	f5, 2, [pc], {79}	; 0x4f
    4f48:	4c5f474f 	mrrcmi	7, 4, r4, pc, cr15	; <UNPREDICTABLE>
    4f4c:	4c455645 	mcrrmi	6, 4, r5, r5, cr5
    4f50:	207b2029 	rsbscs	r2, fp, r9, lsr #32
    4f54:	4e52454b 	cdpmi	5, 5, cr4, cr2, cr11, {2}
    4f58:	4c5f4c45 	mrrcmi	12, 4, r4, pc, cr5	; <UNPREDICTABLE>
    4f5c:	455f474f 	ldrbmi	r4, [pc, #-1871]	; 4815 <SCB_AIRCR_PRIGROUP_MASK+0x4115>
    4f60:	524f5252 	subpl	r5, pc, #536870917	; 0x20000005
    4f64:	6e492228 	cdpvs	2, 4, cr2, cr9, cr8, {1}
    4f68:	696c6176 	stmdbvs	ip!, {r1, r2, r4, r5, r6, r8, sp, lr}^
    4f6c:	53552064 	cmppl	r5, #100	; 0x64
    4f70:	20545241 	subscs	r5, r4, r1, asr #4
    4f74:	706f7473 	rsbvc	r7, pc, r3, ror r4	; <UNPREDICTABLE>
    4f78:	74696220 	strbtvc	r6, [r9], #-544	; 0xfffffde0
    4f7c:	202c2273 	eorcs	r2, ip, r3, ror r2
    4f80:	696f7628 	stmdbvs	pc!, {r3, r5, r9, sl, ip, sp, lr}^	; <UNPREDICTABLE>
    4f84:	26292a64 	strtcs	r2, [r9], -r4, ror #20
    4f88:	62707473 	rsbsvs	r7, r0, #1929379840	; 0x73000000
    4f8c:	2c737469 	cfldrdcs	mvd7, [r3], #-420	; 0xfffffe5c
    4f90:	7a697320 	bvc	1a61c18 <FPU_ENABLE_CPACR_VALUE+0xb61c18>
    4f94:	28666f65 	stmdacs	r6!, {r0, r2, r5, r6, r8, r9, sl, fp, sp, lr}^
    4f98:	62707473 	rsbsvs	r7, r0, #1929379840	; 0x73000000
    4f9c:	29737469 	ldmdbcs	r3!, {r0, r3, r5, r6, sl, ip, sp, lr}^
    4fa0:	5245202c 	subpl	r2, r5, #44	; 0x2c
    4fa4:	5f524f52 	svcpl	0x00524f52
    4fa8:	41564e49 	cmpmi	r6, r9, asr #28
    4fac:	5f44494c 	svcpl	0x0044494c
    4fb0:	41524150 	cmpmi	r2, r0, asr r1
    4fb4:	203b294d 	eorscs	r2, fp, sp, asr #18
    4fb8:	6572207d 	ldrbvs	r2, [r2, #-125]!	; 0xffffff83
    4fbc:	6e727574 	mrcvs	5, 3, r7, cr2, cr4, {3}
    4fc0:	52524520 	subspl	r4, r2, #32, 10	; 0x8000000
    4fc4:	495f524f 	ldmdbmi	pc, {r0, r1, r2, r3, r6, r9, ip, lr}^	; <UNPREDICTABLE>
    4fc8:	4c41564e 	mcrrmi	6, 4, r5, r1, cr14
    4fcc:	505f4449 	subspl	r4, pc, r9, asr #8
    4fd0:	4d415241 	sfmmi	f5, 2, [r1, #-260]	; 0xfffffefc
    4fd4:	207d203b 	rsbscs	r2, sp, fp, lsr r0
    4fd8:	5500297d 	strpl	r2, [r0, #-2429]	; 0xfffff683
    4fdc:	54524153 	ldrbpl	r4, [r2], #-339	; 0xfffffead
    4fe0:	5445475f 	strbpl	r4, [r5], #-1887	; 0xfffff8a1
    4fe4:	5252425f 	subspl	r4, r2, #-268435451	; 0xf0000005
    4fe8:	5649445f 			; <UNDEFINED> instruction: 0x5649445f
    4fec:	4152465f 	cmpmi	r2, pc, asr r6
    4ff0:	36315f51 	shsaxcc	r5, r1, r1
    4ff4:	622c6628 	eorvs	r6, ip, #40, 12	; 0x2800000
    4ff8:	28282029 	stmdacs	r8!, {r0, r3, r5, sp}
    4ffc:	75282828 	strvc	r2, [r8, #-2088]!	; 0xfffff7d8
    5000:	36746e69 	ldrbtcc	r6, [r4], -r9, ror #28
    5004:	29745f34 	ldmdbcs	r4!, {r2, r4, r5, r8, r9, sl, fp, ip, lr}^
    5008:	202a2066 	eorcs	r2, sl, r6, rrx
    500c:	20303031 	eorscs	r3, r0, r1, lsr r0
    5010:	2828202f 	stmdacs	r8!, {r0, r1, r2, r3, r5, sp}
    5014:	746e6975 	strbtvc	r6, [lr], #-2421	; 0xfffff68b
    5018:	745f3436 	ldrbvc	r3, [pc], #-1078	; 5020 <SCB_AIRCR_PRIGROUP_MASK+0x4920>
    501c:	20363129 	eorscs	r3, r6, r9, lsr #2
    5020:	7528202a 	strvc	r2, [r8, #-42]!	; 0xffffffd6
    5024:	36746e69 	ldrbtcc	r6, [r4], -r9, ror #28
    5028:	29745f34 	ldmdbcs	r4!, {r2, r4, r5, r8, r9, sl, fp, ip, lr}^
    502c:	20292962 	eorcs	r2, r9, r2, ror #18
    5030:	5528202d 	strpl	r2, [r8, #-45]!	; 0xffffffd3
    5034:	54524153 	ldrbpl	r4, [r2], #-339	; 0xfffffead
    5038:	5445475f 	strbpl	r4, [r5], #-1887	; 0xfffff8a1
    503c:	5252425f 	subspl	r4, r2, #-268435451	; 0xf0000005
    5040:	5649445f 			; <UNDEFINED> instruction: 0x5649445f
    5044:	4e414d5f 	mcrmi	13, 2, r4, cr1, cr15, {2}
    5048:	36315f54 	shsaxcc	r5, r1, r4
    504c:	202c6628 	eorcs	r6, ip, r8, lsr #12
    5050:	2a202962 	bcs	80f5e0 <FPU_CPACR_CP10+0x50f5e0>
    5054:	30303120 	eorscc	r3, r0, r0, lsr #2
    5058:	2a202929 	bcs	80f504 <FPU_CPACR_CP10+0x50f504>
    505c:	20363120 	eorscs	r3, r6, r0, lsr #2
    5060:	3035202b 	eorscc	r2, r5, fp, lsr #32
    5064:	202f2029 	eorcs	r2, pc, r9, lsr #32
    5068:	29303031 	ldmdbcs	r0!, {r0, r4, r5, ip, sp}
    506c:	72746300 	rsbsvc	r6, r4, #0, 6
    5070:	6c665f6c 	stclvs	15, cr5, [r6], #-432	; 0xfffffe50
    5074:	7300776f 	movwvc	r7, #1903	; 0x76f
    5078:	622f6372 	eorvs	r6, pc, #-939524095	; 0xc8000001
    507c:	755f7073 	ldrbvc	r7, [pc, #-115]	; 5011 <SCB_AIRCR_PRIGROUP_MASK+0x4911>
    5080:	74726173 	ldrbtvc	r6, [r2], #-371	; 0xfffffe8d
    5084:	4300632e 	movwmi	r6, #814	; 0x32e
    5088:	4b434548 	blmi	10d65b0 <FPU_ENABLE_CPACR_VALUE+0x1d65b0>
    508c:	5254435f 	subspl	r4, r4, #2080374785	; 0x7c000001
    5090:	4f4c464c 	svcmi	0x004c464c
    5094:	74632857 	strbtvc	r2, [r3], #-2135	; 0xfffff7a9
    5098:	6c666c72 	stclvs	12, cr6, [r6], #-456	; 0xfffffe38
    509c:	2029776f 	eorcs	r7, r9, pc, ror #14
    50a0:	73207b28 			; <UNDEFINED> instruction: 0x73207b28
    50a4:	63746977 	cmnvs	r4, #1949696	; 0x1dc000
    50a8:	74632868 	strbtvc	r2, [r3], #-2152	; 0xfffff798
    50ac:	6c666c72 	stclvs	12, cr6, [r6], #-456	; 0xfffffe38
    50b0:	2029776f 	eorcs	r7, r9, pc, ror #14
    50b4:	6163207b 	smcvs	12811	; 0x320b
    50b8:	53206573 			; <UNDEFINED> instruction: 0x53206573
    50bc:	41495245 	cmpmi	r9, r5, asr #4
    50c0:	54435f4c 	strbpl	r5, [r3], #-3916	; 0xfffff0b4
    50c4:	465f4c52 			; <UNDEFINED> instruction: 0x465f4c52
    50c8:	5f574f4c 	svcpl	0x00574f4c
    50cc:	454e4f4e 	strbmi	r4, [lr, #-3918]	; 0xfffff0b2
    50d0:	6163203a 	cmnvs	r3, sl, lsr r0
    50d4:	53206573 			; <UNDEFINED> instruction: 0x53206573
    50d8:	41495245 	cmpmi	r9, r5, asr #4
    50dc:	54435f4c 	strbpl	r5, [r3], #-3916	; 0xfffff0b4
    50e0:	465f4c52 			; <UNDEFINED> instruction: 0x465f4c52
    50e4:	5f574f4c 	svcpl	0x00574f4c
    50e8:	3a535443 	bcc	14da1fc <FPU_ENABLE_CPACR_VALUE+0x5da1fc>
    50ec:	73616320 	cmnvc	r1, #32, 6	; 0x80000000
    50f0:	45532065 	ldrbmi	r2, [r3, #-101]	; 0xffffff9b
    50f4:	4c414952 	mcrrmi	9, 5, r4, r1, cr2	; <UNPREDICTABLE>
    50f8:	5254435f 	subspl	r4, r4, #2080374785	; 0x7c000001
    50fc:	4c465f4c 	mcrrmi	15, 4, r5, r6, cr12
    5100:	525f574f 	subspl	r5, pc, #20709376	; 0x13c0000
    5104:	203a5354 	eorscs	r5, sl, r4, asr r3
    5108:	65736163 	ldrbvs	r6, [r3, #-355]!	; 0xfffffe9d
    510c:	52455320 	subpl	r5, r5, #32, 6	; 0x80000000
    5110:	5f4c4149 	svcpl	0x004c4149
    5114:	4c525443 	cfldrdmi	mvd5, [r2], {67}	; 0x43
    5118:	4f4c465f 	svcmi	0x004c465f
    511c:	54435f57 	strbpl	r5, [r3], #-3927	; 0xfffff0a9
    5120:	54525f53 	ldrbpl	r5, [r2], #-3923	; 0xfffff0ad
    5124:	62203a53 	eorvs	r3, r0, #339968	; 0x53000
    5128:	6b616572 	blvs	185e6f8 <FPU_ENABLE_CPACR_VALUE+0x95e6f8>
    512c:	6564203b 	strbvs	r2, [r4, #-59]!	; 0xffffffc5
    5130:	6c756166 	ldfvse	f6, [r5], #-408	; 0xfffffe68
    5134:	69203a74 	stmdbvs	r0!, {r2, r4, r5, r6, r9, fp, ip, sp}
    5138:	454b2866 	strbmi	r2, [fp, #-2150]	; 0xfffff79a
    513c:	4c454e52 	mcrrmi	14, 5, r4, r5, cr2
    5140:	474f4c5f 	smlsldmi	r4, pc, pc, ip	; <UNPREDICTABLE>
    5144:	56454c5f 			; <UNDEFINED> instruction: 0x56454c5f
    5148:	3d204c45 	stccc	12, cr4, [r0, #-276]!	; 0xfffffeec
    514c:	5245203d 	subpl	r2, r5, #61	; 0x3d
    5150:	5f524f52 	svcpl	0x00524f52
    5154:	5f474f4c 	svcpl	0x00474f4c
    5158:	4556454c 	ldrbmi	r4, [r6, #-1356]	; 0xfffffab4
    515c:	7b20294c 	blvc	80f694 <FPU_CPACR_CP10+0x50f694>
    5160:	52454b20 	subpl	r4, r5, #32, 22	; 0x8000
    5164:	5f4c454e 	svcpl	0x004c454e
    5168:	5f474f4c 	svcpl	0x00474f4c
    516c:	4f525245 	svcmi	0x00525245
    5170:	49222852 	stmdbmi	r2!, {r1, r4, r6, fp, sp}
    5174:	6c61766e 	stclvs	6, cr7, [r1], #-440	; 0xfffffe48
    5178:	55206469 	strpl	r6, [r0, #-1129]!	; 0xfffffb97
    517c:	54524153 	ldrbpl	r4, [r2], #-339	; 0xfffffead
    5180:	6e6f6320 	cdpvs	3, 6, cr6, cr15, cr0, {1}
    5184:	6c6f7274 	sfmvs	f7, 2, [pc], #-464	; 4fbc <SCB_AIRCR_PRIGROUP_MASK+0x48bc>
    5188:	6f6c6620 	svcvs	0x006c6620
    518c:	202c2277 	eorcs	r2, ip, r7, ror r2
    5190:	696f7628 	stmdbvs	pc!, {r3, r5, r9, sl, ip, sp, lr}^	; <UNPREDICTABLE>
    5194:	26292a64 	strtcs	r2, [r9], -r4, ror #20
    5198:	6c727463 	cfldrdvs	mvd7, [r2], #-396	; 0xfffffe74
    519c:	776f6c66 	strbvc	r6, [pc, -r6, ror #24]!
    51a0:	6973202c 	ldmdbvs	r3!, {r2, r3, r5, sp}^
    51a4:	666f657a 			; <UNDEFINED> instruction: 0x666f657a
    51a8:	72746328 	rsbsvc	r6, r4, #40, 6	; 0xa0000000
    51ac:	6f6c666c 	svcvs	0x006c666c
    51b0:	202c2977 	eorcs	r2, ip, r7, ror r9
    51b4:	4f525245 	svcmi	0x00525245
    51b8:	4e495f52 	mcrmi	15, 2, r5, cr9, cr2, {2}
    51bc:	494c4156 	stmdbmi	ip, {r1, r2, r4, r6, r8, lr}^
    51c0:	41505f44 	cmpmi	r0, r4, asr #30
    51c4:	294d4152 	stmdbcs	sp, {r1, r4, r6, r8, lr}^
    51c8:	207d203b 	rsbscs	r2, sp, fp, lsr r0
    51cc:	75746572 	ldrbvc	r6, [r4, #-1394]!	; 0xfffffa8e
    51d0:	45206e72 	strmi	r6, [r0, #-3698]!	; 0xfffff18e
    51d4:	524f5252 	subpl	r5, pc, #536870917	; 0x20000005
    51d8:	564e495f 			; <UNDEFINED> instruction: 0x564e495f
    51dc:	44494c41 	strbmi	r4, [r9], #-3137	; 0xfffff3bf
    51e0:	5241505f 	subpl	r5, r1, #95	; 0x5f
    51e4:	203b4d41 	eorscs	r4, fp, r1, asr #26
    51e8:	297d207d 	ldmdbcs	sp!, {r0, r2, r3, r4, r5, r6, sp}^
    51ec:	45484300 	strbmi	r4, [r8, #-768]	; 0xfffffd00
    51f0:	505f4b43 	subspl	r4, pc, r3, asr #22
    51f4:	54495241 	strbpl	r5, [r9], #-577	; 0xfffffdbf
    51f8:	28415659 	stmdacs	r1, {r0, r3, r4, r6, r9, sl, ip, lr}^
    51fc:	69726170 	ldmdbvs	r2!, {r4, r5, r6, r8, sp, lr}^
    5200:	20297974 	eorcs	r7, r9, r4, ror r9
    5204:	73207b28 			; <UNDEFINED> instruction: 0x73207b28
    5208:	63746977 	cmnvs	r4, #1949696	; 0x1dc000
    520c:	61702868 	cmnvs	r0, r8, ror #16
    5210:	79746972 	ldmdbvc	r4!, {r1, r4, r5, r6, r8, fp, sp, lr}^
    5214:	207b2029 	rsbscs	r2, fp, r9, lsr #32
    5218:	65736163 	ldrbvs	r6, [r3, #-355]!	; 0xfffffe9d
    521c:	52455320 	subpl	r5, r5, #32, 6	; 0x80000000
    5220:	5f4c4149 	svcpl	0x004c4149
    5224:	49524150 	ldmdbmi	r2, {r4, r6, r8, lr}^
    5228:	4e5f5954 			; <UNDEFINED> instruction: 0x4e5f5954
    522c:	3a454e4f 	bcc	1158b70 <FPU_ENABLE_CPACR_VALUE+0x258b70>
    5230:	73616320 	cmnvc	r1, #32, 6	; 0x80000000
    5234:	45532065 	ldrbmi	r2, [r3, #-101]	; 0xffffff9b
    5238:	4c414952 	mcrrmi	9, 5, r4, r1, cr2	; <UNPREDICTABLE>
    523c:	5241505f 	subpl	r5, r1, #95	; 0x5f
    5240:	5f595449 	svcpl	0x00595449
    5244:	4e455645 	cdpmi	6, 4, cr5, cr5, cr5, {2}
    5248:	6163203a 	cmnvs	r3, sl, lsr r0
    524c:	53206573 			; <UNDEFINED> instruction: 0x53206573
    5250:	41495245 	cmpmi	r9, r5, asr #4
    5254:	41505f4c 	cmpmi	r0, ip, asr #30
    5258:	59544952 	ldmdbpl	r4, {r1, r4, r6, r8, fp, lr}^
    525c:	44444f5f 	strbmi	r4, [r4], #-3935	; 0xfffff0a1
    5260:	7262203a 	rsbvc	r2, r2, #58	; 0x3a
    5264:	3b6b6165 	blcc	1add800 <FPU_ENABLE_CPACR_VALUE+0xbdd800>
    5268:	66656420 	strbtvs	r6, [r5], -r0, lsr #8
    526c:	746c7561 	strbtvc	r7, [ip], #-1377	; 0xfffffa9f
    5270:	6669203a 			; <UNDEFINED> instruction: 0x6669203a
    5274:	52454b28 	subpl	r4, r5, #40, 22	; 0xa000
    5278:	5f4c454e 	svcpl	0x004c454e
    527c:	5f474f4c 	svcpl	0x00474f4c
    5280:	4556454c 	ldrbmi	r4, [r6, #-1356]	; 0xfffffab4
    5284:	3d3d204c 	ldccc	0, cr2, [sp, #-304]!	; 0xfffffed0
    5288:	52524520 	subspl	r4, r2, #32, 10	; 0x8000000
    528c:	4c5f524f 	lfmmi	f5, 2, [pc], {79}	; 0x4f
    5290:	4c5f474f 	mrrcmi	7, 4, r4, pc, cr15	; <UNPREDICTABLE>
    5294:	4c455645 	mcrrmi	6, 4, r5, r5, cr5
    5298:	207b2029 	rsbscs	r2, fp, r9, lsr #32
    529c:	4e52454b 	cdpmi	5, 5, cr4, cr2, cr11, {2}
    52a0:	4c5f4c45 	mrrcmi	12, 4, r4, pc, cr5	; <UNPREDICTABLE>
    52a4:	455f474f 	ldrbmi	r4, [pc, #-1871]	; 4b5d <SCB_AIRCR_PRIGROUP_MASK+0x445d>
    52a8:	524f5252 	subpl	r5, pc, #536870917	; 0x20000005
    52ac:	6e492228 	cdpvs	2, 4, cr2, cr9, cr8, {1}
    52b0:	696c6176 	stmdbvs	ip!, {r1, r2, r4, r5, r6, r8, sp, lr}^
    52b4:	53552064 	cmppl	r5, #100	; 0x64
    52b8:	20545241 	subscs	r5, r4, r1, asr #4
    52bc:	74726170 	ldrbtvc	r6, [r2], #-368	; 0xfffffe90
    52c0:	20797469 	rsbscs	r7, r9, r9, ror #8
    52c4:	65646f6d 	strbvs	r6, [r4, #-3949]!	; 0xfffff093
    52c8:	28202c22 	stmdacs	r0!, {r1, r5, sl, fp, sp}
    52cc:	64696f76 	strbtvs	r6, [r9], #-3958	; 0xfffff08a
    52d0:	7026292a 	eorvc	r2, r6, sl, lsr #18
    52d4:	74697261 	strbtvc	r7, [r9], #-609	; 0xfffffd9f
    52d8:	73202c79 			; <UNDEFINED> instruction: 0x73202c79
    52dc:	6f657a69 	svcvs	0x00657a69
    52e0:	61702866 	cmnvs	r0, r6, ror #16
    52e4:	79746972 	ldmdbvc	r4!, {r1, r4, r5, r6, r8, fp, sp, lr}^
    52e8:	45202c29 	strmi	r2, [r0, #-3113]!	; 0xfffff3d7
    52ec:	524f5252 	subpl	r5, pc, #536870917	; 0x20000005
    52f0:	564e495f 			; <UNDEFINED> instruction: 0x564e495f
    52f4:	44494c41 	strbmi	r4, [r9], #-3137	; 0xfffff3bf
    52f8:	5241505f 	subpl	r5, r1, #95	; 0x5f
    52fc:	3b294d41 	blcc	a58808 <FPU_CPACR_CP10+0x758808>
    5300:	72207d20 	eorvc	r7, r0, #32, 26	; 0x800
    5304:	72757465 	rsbsvc	r7, r5, #1694498816	; 0x65000000
    5308:	5245206e 	subpl	r2, r5, #110	; 0x6e
    530c:	5f524f52 	svcpl	0x00524f52
    5310:	41564e49 	cmpmi	r6, r9, asr #28
    5314:	5f44494c 	svcpl	0x0044494c
    5318:	41524150 	cmpmi	r2, r0, asr r1
    531c:	7d203b4d 	fstmdbxvc	r0!, {d3-d40}	;@ Deprecated
    5320:	00297d20 	eoreq	r7, r9, r0, lsr #26
    5324:	706f7473 	rsbvc	r7, pc, r3, ror r4	; <UNPREDICTABLE>
    5328:	7469625f 	strbtvc	r6, [r9], #-607	; 0xfffffda1
    532c:	69750073 	ldmdbvs	r5!, {r0, r1, r4, r5, r6}^
    5330:	3436746e 	ldrtcc	r7, [r6], #-1134	; 0xfffffb92
    5334:	7700745f 	smlsdvc	r0, pc, r4, r7	; <UNPREDICTABLE>
    5338:	5f64726f 	svcpl	0x0064726f
    533c:	676e656c 	strbvs	r6, [lr, -ip, ror #10]!
    5340:	53006874 	movwpl	r6, #2164	; 0x874
    5344:	41495245 	cmpmi	r9, r5, asr #4
    5348:	45535f4c 	ldrbmi	r5, [r3, #-3916]	; 0xfffff0b4
    534c:	4e495454 	mcrmi	4, 2, r5, cr9, cr4, {2}
    5350:	545f5347 	ldrbpl	r5, [pc], #-839	; 5358 <SCB_AIRCR_PRIGROUP_MASK+0x4c58>
    5354:	41535500 	cmpmi	r3, r0, lsl #10
    5358:	475f5452 			; <UNDEFINED> instruction: 0x475f5452
    535c:	425f5445 	subsmi	r5, pc, #1157627904	; 0x45000000
    5360:	445f5252 	ldrbmi	r5, [pc], #-594	; 5368 <SCB_AIRCR_PRIGROUP_MASK+0x4c68>
    5364:	4d5f5649 	ldclmi	6, cr5, [pc, #-292]	; 5248 <SCB_AIRCR_PRIGROUP_MASK+0x4b48>
    5368:	5f544e41 	svcpl	0x00544e41
    536c:	66283631 			; <UNDEFINED> instruction: 0x66283631
    5370:	2029622c 	eorcs	r6, r9, ip, lsr #4
    5374:	69752828 	ldmdbvs	r5!, {r3, r5, fp, sp}^
    5378:	3436746e 	ldrtcc	r7, [r6], #-1134	; 0xfffffb92
    537c:	6629745f 			; <UNDEFINED> instruction: 0x6629745f
    5380:	28202f20 	stmdacs	r0!, {r5, r8, r9, sl, fp, sp}
    5384:	6e697528 	cdpvs	5, 6, cr7, cr9, cr8, {1}
    5388:	5f343674 	svcpl	0x00343674
    538c:	36312974 			; <UNDEFINED> instruction: 0x36312974
    5390:	28202a20 	stmdacs	r0!, {r5, r9, fp, sp}
    5394:	746e6975 	strbtvc	r6, [lr], #-2421	; 0xfffff68b
    5398:	745f3436 	ldrbvc	r3, [pc], #-1078	; 53a0 <SCB_AIRCR_PRIGROUP_MASK+0x4ca0>
    539c:	29296229 	stmdbcs	r9!, {r0, r3, r5, r9, sp, lr}
    53a0:	61737500 	cmnvs	r3, r0, lsl #10
    53a4:	695f7472 	ldmdbvs	pc, {r1, r4, r5, r6, sl, ip, sp, lr}^	; <UNPREDICTABLE>
    53a8:	5f74696e 	svcpl	0x0074696e
    53ac:	74617473 	strbtvc	r7, [r1], #-1139	; 0xfffffb8d
    53b0:	73620065 	cmnvc	r2, #101	; 0x65
    53b4:	73755f70 	cmnvc	r5, #112, 30	; 0x1c0
    53b8:	5f747261 	svcpl	0x00747261
    53bc:	61736964 	cmnvs	r3, r4, ror #18
    53c0:	00656c62 	rsbeq	r6, r5, r2, ror #24
    53c4:	69726573 	ldmdbvs	r2!, {r0, r1, r4, r5, r6, r8, sl, sp, lr}^
    53c8:	775f6c61 	ldrbvc	r6, [pc, -r1, ror #24]
    53cc:	65746972 	ldrbvs	r6, [r4, #-2418]!	; 0xfffff68e
    53d0:	45484300 	strbmi	r4, [r8, #-768]	; 0xfffffd00
    53d4:	575f4b43 	ldrbpl	r4, [pc, -r3, asr #22]
    53d8:	4e454c44 	cdpmi	12, 4, cr4, cr5, cr4, {2}
    53dc:	28485447 	stmdacs	r8, {r0, r1, r2, r6, sl, ip, lr}^
    53e0:	656c6477 	strbvs	r6, [ip, #-1143]!	; 0xfffffb89
    53e4:	6874676e 	ldmdavs	r4!, {r1, r2, r3, r5, r6, r8, r9, sl, sp, lr}^
    53e8:	7b282029 	blvc	a0d494 <FPU_CPACR_CP10+0x70d494>
    53ec:	69777320 	ldmdbvs	r7!, {r5, r8, r9, ip, sp, lr}^
    53f0:	28686374 	stmdacs	r8!, {r2, r4, r5, r6, r8, r9, sp, lr}^
    53f4:	656c6477 	strbvs	r6, [ip, #-1143]!	; 0xfffffb89
    53f8:	6874676e 	ldmdavs	r4!, {r1, r2, r3, r5, r6, r8, r9, sl, sp, lr}^
    53fc:	207b2029 	rsbscs	r2, fp, r9, lsr #32
    5400:	65736163 	ldrbvs	r6, [r3, #-355]!	; 0xfffffe9d
    5404:	203a3820 	eorscs	r3, sl, r0, lsr #16
    5408:	65736163 	ldrbvs	r6, [r3, #-355]!	; 0xfffffe9d
    540c:	203a3920 	eorscs	r3, sl, r0, lsr #18
    5410:	61657262 	cmnvs	r5, r2, ror #4
    5414:	64203b6b 	strtvs	r3, [r0], #-2923	; 0xfffff495
    5418:	75616665 	strbvc	r6, [r1, #-1637]!	; 0xfffff99b
    541c:	203a746c 	eorscs	r7, sl, ip, ror #8
    5420:	4b286669 	blmi	a1edcc <FPU_CPACR_CP10+0x71edcc>
    5424:	454e5245 	strbmi	r5, [lr, #-581]	; 0xfffffdbb
    5428:	4f4c5f4c 	svcmi	0x004c5f4c
    542c:	454c5f47 	strbmi	r5, [ip, #-3911]	; 0xfffff0b9
    5430:	204c4556 	subcs	r4, ip, r6, asr r5
    5434:	45203d3d 	strmi	r3, [r0, #-3389]!	; 0xfffff2c3
    5438:	524f5252 	subpl	r5, pc, #536870917	; 0x20000005
    543c:	474f4c5f 	smlsldmi	r4, pc, pc, ip	; <UNPREDICTABLE>
    5440:	56454c5f 			; <UNDEFINED> instruction: 0x56454c5f
    5444:	20294c45 	eorcs	r4, r9, r5, asr #24
    5448:	454b207b 	strbmi	r2, [fp, #-123]	; 0xffffff85
    544c:	4c454e52 	mcrrmi	14, 5, r4, r5, cr2
    5450:	474f4c5f 	smlsldmi	r4, pc, pc, ip	; <UNPREDICTABLE>
    5454:	5252455f 	subspl	r4, r2, #398458880	; 0x17c00000
    5458:	2228524f 	eorcs	r5, r8, #-268435452	; 0xf0000004
    545c:	61766e49 	cmnvs	r6, r9, asr #28
    5460:	2064696c 	rsbcs	r6, r4, ip, ror #18
    5464:	52415355 	subpl	r5, r1, #1409286145	; 0x54000001
    5468:	6f772054 	svcvs	0x00772054
    546c:	6c206472 	cfstrsvs	mvf6, [r0], #-456	; 0xfffffe38
    5470:	74676e65 	strbtvc	r6, [r7], #-3685	; 0xfffff19b
    5474:	202c2268 	eorcs	r2, ip, r8, ror #4
    5478:	696f7628 	stmdbvs	pc!, {r3, r5, r9, sl, ip, sp, lr}^	; <UNPREDICTABLE>
    547c:	26292a64 	strtcs	r2, [r9], -r4, ror #20
    5480:	656c6477 	strbvs	r6, [ip, #-1143]!	; 0xfffffb89
    5484:	6874676e 	ldmdavs	r4!, {r1, r2, r3, r5, r6, r8, r9, sl, sp, lr}^
    5488:	6973202c 	ldmdbvs	r3!, {r2, r3, r5, sp}^
    548c:	666f657a 			; <UNDEFINED> instruction: 0x666f657a
    5490:	6c647728 	stclvs	7, cr7, [r4], #-160	; 0xffffff60
    5494:	74676e65 	strbtvc	r6, [r7], #-3685	; 0xfffff19b
    5498:	202c2968 	eorcs	r2, ip, r8, ror #18
    549c:	4f525245 	svcmi	0x00525245
    54a0:	4e495f52 	mcrmi	15, 2, r5, cr9, cr2, {2}
    54a4:	494c4156 	stmdbmi	ip, {r1, r2, r4, r6, r8, lr}^
    54a8:	41505f44 	cmpmi	r0, r4, asr #30
    54ac:	294d4152 	stmdbcs	sp, {r1, r4, r6, r8, lr}^
    54b0:	207d203b 	rsbscs	r2, sp, fp, lsr r0
    54b4:	75746572 	ldrbvc	r6, [r4, #-1394]!	; 0xfffffa8e
    54b8:	45206e72 	strmi	r6, [r0, #-3698]!	; 0xfffff18e
    54bc:	524f5252 	subpl	r5, pc, #536870917	; 0x20000005
    54c0:	564e495f 			; <UNDEFINED> instruction: 0x564e495f
    54c4:	44494c41 	strbmi	r4, [r9], #-3137	; 0xfffff3bf
    54c8:	5241505f 	subpl	r5, r1, #95	; 0x5f
    54cc:	203b4d41 	eorscs	r4, fp, r1, asr #26
    54d0:	297d207d 	ldmdbcs	sp!, {r0, r2, r3, r4, r5, r6, sp}^
    54d4:	69706700 	ldmdbvs	r0!, {r8, r9, sl, sp, lr}^
    54d8:	65735f6f 	ldrbvs	r5, [r3, #-3951]!	; 0xfffff091
    54dc:	6e697474 	mcrvs	4, 3, r7, cr9, cr4, {3}
    54e0:	62007367 	andvs	r7, r0, #-1677721599	; 0x9c000001
    54e4:	755f7073 	ldrbvc	r7, [pc, #-115]	; 5479 <SCB_AIRCR_PRIGROUP_MASK+0x4d79>
    54e8:	5f747261 	svcpl	0x00747261
    54ec:	74696e69 	strbtvc	r6, [r9], #-3689	; 0xfffff197
    54f0:	4b545300 	blmi	151a0f8 <FPU_ENABLE_CPACR_VALUE+0x61a0f8>
    54f4:	5254435f 	subspl	r4, r4, #2080374785	; 0x7c000001
    54f8:	45525f4c 	ldrbmi	r5, [r2, #-3916]	; 0xfffff0b4
    54fc:	54534947 	ldrbpl	r4, [r3], #-2375	; 0xfffff6b9
    5500:	28205245 	stmdacs	r0!, {r0, r2, r6, r9, ip, lr}
    5504:	6c6f7628 	stclvs	6, cr7, [pc], #-160	; 546c <SCB_AIRCR_PRIGROUP_MASK+0x4d6c>
    5508:	6c697461 	cfstrdvs	mvd7, [r9], #-388	; 0xfffffe7c
    550c:	69752065 	ldmdbvs	r5!, {r0, r2, r5, r6, sp}^
    5510:	3233746e 	eorscc	r7, r3, #1845493760	; 0x6e000000
    5514:	292a745f 	stmdbcs	sl!, {r0, r1, r2, r3, r4, r6, sl, ip, sp, lr}
    5518:	5f4b5453 	svcpl	0x004b5453
    551c:	4c525443 	cfldrdmi	mvd5, [r2], {67}	; 0x43
    5520:	4444415f 	strbmi	r4, [r4], #-351	; 0xfffffea1
    5524:	53534552 	cmppl	r3, #343932928	; 0x14800000
    5528:	70630029 	rsbvc	r0, r3, r9, lsr #32
    552c:	69745f75 	ldmdbvs	r4!, {r0, r2, r4, r5, r6, r8, r9, sl, fp, ip, lr}^
    5530:	5f72656d 	svcpl	0x0072656d
    5534:	5f746567 	svcpl	0x00746567
    5538:	71657266 	cmnvc	r5, r6, ror #4
    553c:	636e6575 	cmnvs	lr, #490733568	; 0x1d400000
    5540:	69740079 	ldmdbvs	r4!, {r0, r3, r4, r5, r6}^
    5544:	665f6b63 	ldrbvs	r6, [pc], -r3, ror #22
    5548:	00716572 	rsbseq	r6, r1, r2, ror r5
    554c:	50435f5f 	subpl	r5, r3, pc, asr pc
    5550:	50435f55 	subpl	r5, r3, r5, asr pc
    5554:	49545f55 	ldmdbmi	r4, {r0, r2, r4, r6, r8, r9, sl, fp, ip, lr}^
    5558:	5f52454d 	svcpl	0x0052454d
    555c:	5f4d5241 	svcpl	0x004d5241
    5560:	54524f43 	ldrbpl	r4, [r2], #-3907	; 0xfffff0bd
    5564:	4d5f5845 	ldclmi	8, cr5, [pc, #-276]	; 5458 <SCB_AIRCR_PRIGROUP_MASK+0x4d58>
    5568:	45445f34 	strbmi	r5, [r4, #-3892]	; 0xfffff0cc
    556c:	5f485f46 	svcpl	0x00485f46
    5570:	5300205f 	movwpl	r2, #95	; 0x5f
    5574:	435f4b54 	cmpmi	pc, #84, 22	; 0x15000
    5578:	5f4c5254 	svcpl	0x004c5254
    557c:	30204e45 	eorcc	r4, r0, r5, asr #28
    5580:	30303078 	eorscc	r3, r0, r8, ror r0
    5584:	30303030 	eorscc	r3, r0, r0, lsr r0
    5588:	6d740031 	ldclvs	0, cr0, [r4, #-196]!	; 0xffffff3c
    558c:	61765f70 	cmnvs	r6, r0, ror pc
    5590:	5f5f006c 	svcpl	0x005f006c
    5594:	5f555043 	svcpl	0x00555043
    5598:	5f555043 	svcpl	0x00555043
    559c:	454d4954 	strbmi	r4, [sp, #-2388]	; 0xfffff6ac
    55a0:	5f485f52 	svcpl	0x00485f52
    55a4:	6300205f 	movwvs	r2, #95	; 0x5f
    55a8:	745f7570 	ldrbvc	r7, [pc], #-1392	; 55b0 <SCB_AIRCR_PRIGROUP_MASK+0x4eb0>
    55ac:	72656d69 	rsbvc	r6, r5, #6720	; 0x1a40
    55b0:	7369645f 	cmnvc	r9, #1593835520	; 0x5f000000
    55b4:	656c6261 	strbvs	r6, [ip, #-609]!	; 0xfffffd9f
    55b8:	4b545300 	blmi	151a1c0 <FPU_ENABLE_CPACR_VALUE+0x61a1c0>
    55bc:	5254435f 	subspl	r4, r4, #2080374785	; 0x7c000001
    55c0:	4c435f4c 	mcrrmi	15, 4, r5, r3, cr12
    55c4:	4352534b 	cmpmi	r2, #738197505	; 0x2c000001
    55c8:	4248415f 	submi	r4, r8, #-1073741801	; 0xc0000017
    55cc:	30783020 	rsbscc	r3, r8, r0, lsr #32
    55d0:	30303030 	eorscc	r3, r0, r0, lsr r0
    55d4:	00343030 	eorseq	r3, r4, r0, lsr r0
    55d8:	5f757063 	svcpl	0x00757063
    55dc:	656d6974 	strbvs	r6, [sp, #-2420]!	; 0xfffff68c
    55e0:	6e655f72 	mcrvs	15, 3, r5, cr5, cr2, {3}
    55e4:	656c6261 	strbvs	r6, [ip, #-609]!	; 0xfffffd9f
    55e8:	4b545300 	blmi	151a1f0 <FPU_ENABLE_CPACR_VALUE+0x61a1f0>
    55ec:	4c41435f 	mcrrmi	3, 5, r4, r1, cr15
    55f0:	45525f49 	ldrbmi	r5, [r2, #-3913]	; 0xfffff0b7
    55f4:	54534947 	ldrbpl	r4, [r3], #-2375	; 0xfffff6b9
    55f8:	28205245 	stmdacs	r0!, {r0, r2, r6, r9, ip, lr}
    55fc:	6c6f7628 	stclvs	6, cr7, [pc], #-160	; 5564 <SCB_AIRCR_PRIGROUP_MASK+0x4e64>
    5600:	6c697461 	cfstrdvs	mvd7, [r9], #-388	; 0xfffffe7c
    5604:	69752065 	ldmdbvs	r5!, {r0, r2, r5, r6, sp}^
    5608:	3233746e 	eorscc	r7, r3, #1845493760	; 0x6e000000
    560c:	292a745f 	stmdbcs	sl!, {r0, r1, r2, r3, r4, r6, sl, ip, sp, lr}
    5610:	5f4b5453 	svcpl	0x004b5453
    5614:	494c4143 	stmdbmi	ip, {r0, r1, r6, r8, lr}^
    5618:	4444415f 	strbmi	r4, [r4], #-351	; 0xfffffea1
    561c:	53534552 	cmppl	r3, #343932928	; 0x14800000
    5620:	5f5f0029 	svcpl	0x005f0029
    5624:	52414f42 	subpl	r4, r1, #264	; 0x108
    5628:	4c435f44 	mcrrmi	15, 4, r5, r3, cr4
    562c:	534b434f 	movtpl	r4, #45903	; 0xb34f
    5630:	5f5f485f 	svcpl	0x005f485f
    5634:	6e690020 	cdpvs	0, 6, cr0, cr9, cr0, {1}
    5638:	6e655f74 	mcrvs	15, 3, r5, cr5, cr4, {3}
    563c:	656c6261 	strbvs	r6, [ip, #-609]!	; 0xfffffd9f
    5640:	4b545300 	blmi	151a248 <FPU_ENABLE_CPACR_VALUE+0x61a248>
    5644:	5254435f 	subspl	r4, r4, #2080374785	; 0x7c000001
    5648:	44415f4c 	strbmi	r5, [r1], #-3916	; 0xfffff0b4
    564c:	53455244 	movtpl	r5, #21060	; 0x5244
    5650:	78302053 	ldmdavc	r0!, {r0, r1, r4, r6, sp}
    5654:	30303045 	eorscc	r3, r0, r5, asr #32
    5658:	30313045 	eorscc	r3, r1, r5, asr #32
    565c:	4b545300 	blmi	151a264 <FPU_ENABLE_CPACR_VALUE+0x61a264>
    5660:	4c41435f 	mcrrmi	3, 5, r4, r1, cr15
    5664:	44415f49 	strbmi	r5, [r1], #-3913	; 0xfffff0b7
    5668:	53455244 	movtpl	r5, #21060	; 0x5244
    566c:	78302053 	ldmdavc	r0!, {r0, r1, r4, r6, sp}
    5670:	30303045 	eorscc	r3, r0, r5, asr #32
    5674:	43313045 	teqmi	r1, #69	; 0x45
    5678:	4b545300 	blmi	151a280 <FPU_ENABLE_CPACR_VALUE+0x61a280>
    567c:	414f4c5f 	cmpmi	pc, pc, asr ip	; <UNPREDICTABLE>
    5680:	44415f44 	strbmi	r5, [r1], #-3908	; 0xfffff0bc
    5684:	53455244 	movtpl	r5, #21060	; 0x5244
    5688:	78302053 	ldmdavc	r0!, {r0, r1, r4, r6, sp}
    568c:	30303045 	eorscc	r3, r0, r5, asr #32
    5690:	34313045 	ldrtcc	r3, [r1], #-69	; 0xffffffbb
    5694:	4b545300 	blmi	151a29c <FPU_ENABLE_CPACR_VALUE+0x61a29c>
    5698:	5254435f 	subspl	r4, r4, #2080374785	; 0x7c000001
    569c:	49545f4c 	ldmdbmi	r4, {r2, r3, r6, r8, r9, sl, fp, ip, lr}^
    56a0:	4e494b43 	vmlsmi.f64	d20, d9, d3
    56a4:	78302054 	ldmdavc	r0!, {r2, r4, r6, sp}
    56a8:	30303030 	eorscc	r3, r0, r0, lsr r0
    56ac:	32303030 	eorscc	r3, r0, #48	; 0x30
    56b0:	6e6d2f00 	cdpvs	15, 6, cr2, cr13, cr0, {0}
    56b4:	2f632f74 	svccs	0x00632f74
    56b8:	72657355 	rsbvc	r7, r5, #1409286145	; 0x54000001
    56bc:	6c412f73 	mcrrvs	15, 7, r2, r1, cr3
    56c0:	2f797865 	svccs	0x00797865
    56c4:	75636f44 	strbvc	r6, [r3, #-3908]!	; 0xfffff0bc
    56c8:	746e656d 	strbtvc	r6, [lr], #-1389	; 0xfffffa93
    56cc:	554c2f73 	strbpl	r2, [ip, #-3955]	; 0xfffff08d
    56d0:	4b2f6b54 	blmi	be0428 <FPU_CPACR_CP10+0x8e0428>
    56d4:	656e7265 	strbvs	r7, [lr, #-613]!	; 0xfffffd9b
    56d8:	6f532f6c 	svcvs	0x00532f6c
    56dc:	65637275 	strbvs	r7, [r3, #-629]!	; 0xfffffd8b
    56e0:	72612f73 	rsbvc	r2, r1, #460	; 0x1cc
    56e4:	632f6863 			; <UNDEFINED> instruction: 0x632f6863
    56e8:	612f7570 			; <UNDEFINED> instruction: 0x612f7570
    56ec:	632f6d72 			; <UNDEFINED> instruction: 0x632f6d72
    56f0:	6574726f 	ldrbvs	r7, [r4, #-623]!	; 0xfffffd91
    56f4:	346d5f78 	strbtcc	r5, [sp], #-3960	; 0xfffff088
    56f8:	4b545300 	blmi	151a300 <FPU_ENABLE_CPACR_VALUE+0x61a300>
    56fc:	4c41565f 	mcrrmi	6, 5, r5, r1, cr15
    5700:	4444415f 	strbmi	r4, [r4], #-351	; 0xfffffea1
    5704:	53534552 	cmppl	r3, #343932928	; 0x14800000
    5708:	45783020 	ldrbmi	r3, [r8, #-32]!	; 0xffffffe0
    570c:	45303030 	ldrmi	r3, [r0, #-48]!	; 0xffffffd0
    5710:	00383130 	eorseq	r3, r8, r0, lsr r1
    5714:	5f4b5453 	svcpl	0x004b5453
    5718:	4c525443 	cfldrdmi	mvd5, [r2], {67}	; 0x43
    571c:	4b4c435f 	blmi	13164a0 <FPU_ENABLE_CPACR_VALUE+0x4164a0>
    5720:	5f435253 	svcpl	0x00435253
    5724:	5f424841 	svcpl	0x00424841
    5728:	78302038 	ldmdavc	r0!, {r3, r4, r5, sp}
    572c:	30303030 	eorscc	r3, r0, r0, lsr r0
    5730:	30303030 	eorscc	r3, r0, r0, lsr r0
    5734:	4b545300 	blmi	151a33c <FPU_ENABLE_CPACR_VALUE+0x61a33c>
    5738:	414f4c5f 	cmpmi	pc, pc, asr ip	; <UNPREDICTABLE>
    573c:	45525f44 	ldrbmi	r5, [r2, #-3908]	; 0xfffff0bc
    5740:	54534947 	ldrbpl	r4, [r3], #-2375	; 0xfffff6b9
    5744:	28205245 	stmdacs	r0!, {r0, r2, r6, r9, ip, lr}
    5748:	6c6f7628 	stclvs	6, cr7, [pc], #-160	; 56b0 <SCB_AIRCR_PRIGROUP_MASK+0x4fb0>
    574c:	6c697461 	cfstrdvs	mvd7, [r9], #-388	; 0xfffffe7c
    5750:	69752065 	ldmdbvs	r5!, {r0, r2, r5, r6, sp}^
    5754:	3233746e 	eorscc	r7, r3, #1845493760	; 0x6e000000
    5758:	292a745f 	stmdbcs	sl!, {r0, r1, r2, r3, r4, r6, sl, ip, sp, lr}
    575c:	5f4b5453 	svcpl	0x004b5453
    5760:	44414f4c 	strbmi	r4, [r1], #-3916	; 0xfffff0b4
    5764:	4444415f 	strbmi	r4, [r4], #-351	; 0xfffffea1
    5768:	53534552 	cmppl	r3, #343932928	; 0x14800000
    576c:	54530029 	ldrbpl	r0, [r3], #-41	; 0xffffffd7
    5770:	4f4c5f4b 	svcmi	0x004c5f4b
    5774:	4d5f4441 	cfldrdmi	mvd4, [pc, #-260]	; 5678 <SCB_AIRCR_PRIGROUP_MASK+0x4f78>
    5778:	565f5841 	ldrbpl	r5, [pc], -r1, asr #16
    577c:	45554c41 	ldrbmi	r4, [r5, #-3137]	; 0xfffff3bf
    5780:	30783020 	rsbscc	r3, r8, r0, lsr #32
    5784:	46464630 			; <UNDEFINED> instruction: 0x46464630
    5788:	00464646 	subeq	r4, r6, r6, asr #12
    578c:	5f4b5453 	svcpl	0x004b5453
    5790:	5f4c4156 	svcpl	0x004c4156
    5794:	49474552 	stmdbmi	r7, {r1, r4, r6, r8, sl, lr}^
    5798:	52455453 	subpl	r5, r5, #1392508928	; 0x53000000
    579c:	76282820 	strtvc	r2, [r8], -r0, lsr #16
    57a0:	74616c6f 	strbtvc	r6, [r1], #-3183	; 0xfffff391
    57a4:	20656c69 	rsbcs	r6, r5, r9, ror #24
    57a8:	746e6975 	strbtvc	r6, [lr], #-2421	; 0xfffff68b
    57ac:	745f3233 	ldrbvc	r3, [pc], #-563	; 57b4 <SCB_AIRCR_PRIGROUP_MASK+0x50b4>
    57b0:	5453292a 	ldrbpl	r2, [r3], #-2346	; 0xfffff6d6
    57b4:	41565f4b 	cmpmi	r6, fp, asr #30
    57b8:	44415f4c 	strbmi	r5, [r1], #-3916	; 0xfffff0b4
    57bc:	53455244 	movtpl	r5, #21060	; 0x5244
    57c0:	63002953 	movwvs	r2, #2387	; 0x953
    57c4:	745f7570 	ldrbvc	r7, [pc], #-1392	; 57cc <SCB_AIRCR_PRIGROUP_MASK+0x50cc>
    57c8:	72656d69 	rsbvc	r6, r5, #6720	; 0x1a40
    57cc:	7465735f 	strbtvc	r7, [r5], #-863	; 0xfffffca1
    57d0:	6572665f 	ldrbvs	r6, [r2, #-1631]!	; 0xfffff9a1
    57d4:	6e657571 	mcrvs	5, 3, r7, cr5, cr1, {3}
    57d8:	73007963 	movwvc	r7, #2403	; 0x963
    57dc:	632f6372 			; <UNDEFINED> instruction: 0x632f6372
    57e0:	745f7570 	ldrbvc	r7, [pc], #-1392	; 57e8 <SCB_AIRCR_PRIGROUP_MASK+0x50e8>
    57e4:	72656d69 	rsbvc	r6, r5, #6720	; 0x1a40
    57e8:	7300632e 	movwvc	r6, #814	; 0x32e
    57ec:	702f6372 	eorvc	r6, pc, r2, ror r3	; <UNPREDICTABLE>
    57f0:	63696e61 	cmnvs	r9, #1552	; 0x610
    57f4:	5f00632e 	svcpl	0x0000632e
    57f8:	5550435f 	ldrbpl	r4, [r0, #-863]	; 0xfffffca1
    57fc:	4e41505f 	mcrmi	0, 2, r5, cr1, cr15, {2}
    5800:	485f4349 	ldmdami	pc, {r0, r3, r6, r8, r9, lr}^	; <UNPREDICTABLE>
    5804:	00205f5f 	eoreq	r5, r0, pc, asr pc
    5808:	6e72656b 	cdpvs	5, 7, cr6, cr2, cr11, {3}
    580c:	705f6c65 	subsvc	r6, pc, r5, ror #24
    5810:	63696e61 	cmnvs	r9, #1552	; 0x610
    5814:	61657200 	cmnvs	r5, r0, lsl #4
    5818:	006e6f73 	rsbeq	r6, lr, r3, ror pc
    581c:	746e6d2f 	strbtvc	r6, [lr], #-3375	; 0xfffff2d1
    5820:	552f632f 	strpl	r6, [pc, #-815]!	; 54f9 <SCB_AIRCR_PRIGROUP_MASK+0x4df9>
    5824:	73726573 	cmnvc	r2, #482344960	; 0x1cc00000
    5828:	656c412f 	strbvs	r4, [ip, #-303]!	; 0xfffffed1
    582c:	442f7978 	strtmi	r7, [pc], #-2424	; 5834 <SCB_AIRCR_PRIGROUP_MASK+0x5134>
    5830:	6d75636f 	ldclvs	3, cr6, [r5, #-444]!	; 0xfffffe44
    5834:	73746e65 	cmnvc	r4, #1616	; 0x650
    5838:	54554c2f 	ldrbpl	r4, [r5], #-3119	; 0xfffff3d1
    583c:	654b2f6b 	strbvs	r2, [fp, #-3947]	; 0xfffff095
    5840:	6c656e72 	stclvs	14, cr6, [r5], #-456	; 0xfffffe38
    5844:	756f532f 	strbvc	r5, [pc, #-815]!	; 551d <SCB_AIRCR_PRIGROUP_MASK+0x4e1d>
    5848:	73656372 	cmnvc	r5, #-939524095	; 0xc8000001
    584c:	726f632f 	rsbvc	r6, pc, #-1140850688	; 0xbc000000
    5850:	65730065 	ldrbvs	r0, [r3, #-101]!	; 0xffffff9b
    5854:	65735f72 	ldrbvs	r5, [r3, #-3954]!	; 0xfffff08e
    5858:	6e697474 	mcrvs	4, 3, r7, cr9, cr4, {3}
    585c:	6b007367 	blvs	22600 <SCB_VECTKEYSTAT_INV_MASK+0x12601>
    5860:	656e7265 	strbvs	r7, [lr, #-613]!	; 0xfffffd9b
    5864:	696b5f6c 	stmdbvs	fp!, {r2, r3, r5, r6, r8, r9, sl, fp, ip, lr}^
    5868:	74736b63 	ldrbtvc	r6, [r3], #-2915	; 0xfffff49d
    586c:	00747261 	rsbseq	r7, r4, r1, ror #4
    5870:	47474f4c 	strbmi	r4, [r7, -ip, asr #30]
    5874:	535f5245 	cmppl	pc, #1342177284	; 0x50000004
    5878:	49545445 	ldmdbmi	r4, {r0, r2, r6, sl, ip, lr}^
    587c:	5f53474e 	svcpl	0x0053474e
    5880:	72730054 	rsbsvc	r0, r3, #84	; 0x54
    5884:	656b2f63 	strbvs	r2, [fp, #-3939]!	; 0xfffff09d
    5888:	6c656e72 	stclvs	14, cr6, [r5], #-456	; 0xfffffe38
    588c:	746e655f 	strbtvc	r6, [lr], #-1375	; 0xfffffaa1
    5890:	632e7972 			; <UNDEFINED> instruction: 0x632e7972
    5894:	676f6c00 	strbvs	r6, [pc, -r0, lsl #24]!
    5898:	7465735f 	strbtvc	r7, [r5], #-863	; 0xfffffca1
    589c:	676e6974 			; <UNDEFINED> instruction: 0x676e6974
    58a0:	6f6c0073 	svcvs	0x006c0073
    58a4:	72656767 	rsbvc	r6, r5, #27000832	; 0x19c0000
    58a8:	6675625f 			; <UNDEFINED> instruction: 0x6675625f
    58ac:	5f726566 	svcpl	0x00726566
    58b0:	74697277 	strbtvc	r7, [r9], #-631	; 0xfffffd89
    58b4:	4f4c0065 	svcmi	0x004c0065
    58b8:	52454747 	subpl	r4, r5, #18612224	; 0x11c0000
    58bc:	5445535f 	strbpl	r5, [r5], #-863	; 0xfffffca1
    58c0:	474e4954 	smlsldmi	r4, lr, r4, r9
    58c4:	61650053 	qdsubvs	r0, r3, r5
    58c8:	5f796c72 	svcpl	0x00796c72
    58cc:	74696e69 	strbtvc	r6, [r9], #-3689	; 0xfffff197
    58d0:	63727300 	cmnvs	r2, #0, 6
    58d4:	746e692f 	strbtvc	r6, [lr], #-2351	; 0xfffff6d1
    58d8:	75727265 	ldrbvc	r7, [r2, #-613]!	; 0xfffffd9b
    58dc:	2e737470 	mrccs	4, 3, r7, cr3, cr0, {3}
    58e0:	6e690063 	cdpvs	0, 6, cr0, cr9, cr3, {3}
    58e4:	756e5f74 	strbvc	r5, [lr, #-3956]!	; 0xfffff08c
    58e8:	7265626d 	rsbvc	r6, r5, #-805306362	; 0xd0000006
    58ec:	72656b00 	rsbvc	r6, r5, #0, 22
    58f0:	5f6c656e 	svcpl	0x006c656e
    58f4:	626f6c67 	rsbvs	r6, pc, #26368	; 0x6700
    58f8:	695f6c61 	ldmdbvs	pc, {r0, r5, r6, sl, fp, sp, lr}^	; <UNPREDICTABLE>
    58fc:	7265746e 	rsbvc	r7, r5, #1845493760	; 0x6e000000
    5900:	74707572 	ldrbtvc	r7, [r0], #-1394	; 0xfffffa8e
    5904:	6e61685f 	mcrvs	8, 3, r6, cr1, cr15, {2}
    5908:	72656c64 	rsbvc	r6, r5, #100, 24	; 0x6400
    590c:	61747300 	cmnvs	r4, r0, lsl #6
    5910:	75006b63 	strvc	r6, [r0, #-2915]	; 0xfffff49d
    5914:	70746e69 	rsbsvc	r6, r4, r9, ror #28
    5918:	745f7274 	ldrbvc	r7, [pc], #-628	; 5920 <SCB_AIRCR_PRIGROUP_MASK+0x5220>
    591c:	75706300 	ldrbvc	r6, [r0, #-768]!	; 0xfffffd00
    5920:	6174735f 	cmnvs	r4, pc, asr r3
    5924:	6c006574 	cfstr32vs	mvfx6, [r0], {116}	; 0x74
    5928:	6567676f 	strbvs	r6, [r7, #-1903]!	; 0xfffff891
    592c:	6f6c5f72 	svcvs	0x006c5f72
    5930:	74730067 	ldrbtvc	r0, [r3], #-103	; 0xffffff99
    5934:	5f657461 	svcpl	0x00657461
    5938:	735f6f74 	cmpvc	pc, #116, 30	; 0x1d0
    593c:	73007274 	movwvc	r7, #628	; 0x274
    5940:	656c7274 	strbvs	r7, [ip, #-628]!	; 0xfffffd8c
    5944:	7962006e 	stmdbvc	r2!, {r1, r2, r3, r5, r6}^
    5948:	745f6574 	ldrbvc	r6, [pc], #-1396	; 5950 <SCB_AIRCR_PRIGROUP_MASK+0x5250>
    594c:	74735f6f 	ldrbtvc	r5, [r3], #-3951	; 0xfffff091
    5950:	6d2f0072 	stcvs	0, cr0, [pc, #-456]!	; 5790 <SCB_AIRCR_PRIGROUP_MASK+0x5090>
    5954:	632f746e 			; <UNDEFINED> instruction: 0x632f746e
    5958:	6573552f 	ldrbvs	r5, [r3, #-1327]!	; 0xfffffad1
    595c:	412f7372 			; <UNDEFINED> instruction: 0x412f7372
    5960:	7978656c 	ldmdbvc	r8!, {r2, r3, r5, r6, r8, sl, sp, lr}^
    5964:	636f442f 	cmnvs	pc, #788529152	; 0x2f000000
    5968:	6e656d75 	mcrvs	13, 3, r6, cr5, cr5, {3}
    596c:	4c2f7374 	stcmi	3, cr7, [pc], #-464	; 57a4 <SCB_AIRCR_PRIGROUP_MASK+0x50a4>
    5970:	2f6b5455 	svccs	0x006b5455
    5974:	6e72654b 	cdpvs	5, 7, cr6, cr2, cr11, {2}
    5978:	532f6c65 			; <UNDEFINED> instruction: 0x532f6c65
    597c:	6372756f 	cmnvs	r2, #465567744	; 0x1bc00000
    5980:	692f7365 	stmdbvs	pc!, {r0, r2, r5, r6, r8, r9, ip, sp, lr}	; <UNPREDICTABLE>
    5984:	7562006f 	strbvc	r0, [r2, #-111]!	; 0xffffff91
    5988:	64006666 	strvs	r6, [r0], #-1638	; 0xfffff99a
    598c:	5f617461 	svcpl	0x00617461
    5990:	657a6973 	ldrbvs	r6, [sl, #-2419]!	; 0xfffff68d
    5994:	74616400 	strbtvc	r6, [r1], #-1024	; 0xfffffc00
    5998:	454b0061 	strbmi	r0, [fp, #-97]	; 0xffffff9f
    599c:	4c454e52 	mcrrmi	14, 5, r4, r5, cr2
    59a0:	474f4c5f 	smlsldmi	r4, pc, pc, ip	; <UNPREDICTABLE>
    59a4:	5252455f 	subspl	r4, r2, #398458880	; 0x17c00000
    59a8:	6800524f 	stmdavs	r0, {r0, r1, r2, r3, r6, r9, ip, lr}
    59ac:	745f7865 	ldrbvc	r7, [pc], #-2149	; 59b4 <SCB_AIRCR_PRIGROUP_MASK+0x52b4>
    59b0:	656c6261 	strbvs	r6, [ip, #-609]!	; 0xfffffd9f
    59b4:	676f6c00 	strbvs	r6, [pc, -r0, lsl #24]!
    59b8:	5f726567 	svcpl	0x00726567
    59bc:	74696e69 	strbtvc	r6, [r9], #-3689	; 0xfffff197
    59c0:	6174735f 	cmnvs	r4, pc, asr r3
    59c4:	4b006574 	blmi	1ef9c <SCB_VECTKEYSTAT_INV_MASK+0xef9d>
    59c8:	454e5245 	strbmi	r5, [lr, #-581]	; 0xfffffdbb
    59cc:	4f4c5f4c 	svcmi	0x004c5f4c
    59d0:	4e495f47 	cdpmi	15, 4, cr5, cr9, cr7, {2}
    59d4:	4b004f46 	blmi	196f4 <SCB_VECTKEYSTAT_INV_MASK+0x96f5>
    59d8:	454e5245 	strbmi	r5, [lr, #-581]	; 0xfffffdbb
    59dc:	4f4c5f4c 	svcmi	0x004c5f4c
    59e0:	41575f47 	cmpmi	r7, r7, asr #30
    59e4:	4e494e52 	mcrmi	14, 2, r4, cr9, cr2, {2}
    59e8:	6f6c0047 	svcvs	0x006c0047
    59ec:	72656767 	rsbvc	r6, r5, #27000832	; 0x19c0000
    59f0:	7465735f 	strbtvc	r7, [r5], #-863	; 0xfffffca1
    59f4:	676e6974 			; <UNDEFINED> instruction: 0x676e6974
    59f8:	6f6c0073 	svcvs	0x006c0073
    59fc:	72656767 	rsbvc	r6, r5, #27000832	; 0x19c0000
    5a00:	696e695f 	stmdbvs	lr!, {r0, r1, r2, r3, r4, r6, r8, fp, sp, lr}^
    5a04:	72730074 	rsbsvc	r0, r3, #116	; 0x74
    5a08:	6f6c2f63 	svcvs	0x006c2f63
    5a0c:	72656767 	rsbvc	r6, r5, #27000832	; 0x19c0000
    5a10:	Address 0x0000000000005a10 is out of bounds.


Disassembly of section .comment:

00000000 <.comment>:
   0:	3a434347 	bcc	10d0d24 <FPU_ENABLE_CPACR_VALUE+0x1d0d24>
   4:	35312820 	ldrcc	r2, [r1, #-2080]!	; 0xfffff7e0
   8:	332e363a 			; <UNDEFINED> instruction: 0x332e363a
   c:	732b312e 			; <UNDEFINED> instruction: 0x732b312e
  10:	35326e76 	ldrcc	r6, [r2, #-3702]!	; 0xfffff18a
  14:	39333033 	ldmdbcc	r3!, {r0, r1, r4, r5, ip, sp}
  18:	7562312d 	strbvc	r3, [r2, #-301]!	; 0xfffffed3
  1c:	31646c69 	cmncc	r4, r9, ror #24
  20:	2e362029 	cdpcs	0, 3, cr2, cr6, cr9, {1}
  24:	20312e33 	eorscs	r2, r1, r3, lsr lr
  28:	37313032 			; <UNDEFINED> instruction: 0x37313032
  2c:	30323630 	eorscc	r3, r2, r0, lsr r6
	...

Disassembly of section .ARM.attributes:

00000000 <.ARM.attributes>:
   0:	00003641 	andeq	r3, r0, r1, asr #12
   4:	61656100 	cmnvs	r5, r0, lsl #2
   8:	01006962 	tsteq	r0, r2, ror #18
   c:	0000002c 	andeq	r0, r0, ip, lsr #32
  10:	726f4305 	rsbvc	r4, pc, #335544320	; 0x14000000
  14:	2d786574 	cfldr64cs	mvdx6, [r8, #-464]!	; 0xfffffe30
  18:	0600344d 	streq	r3, [r0], -sp, asr #8
  1c:	094d070d 	stmdbeq	sp, {r0, r2, r3, r8, r9, sl}^
  20:	12060a02 	andne	r0, r6, #8192	; 0x2000
  24:	15011404 	strne	r1, [r1, #-1028]	; 0xfffffbfc
  28:	18031701 	stmdane	r3, {r0, r8, r9, sl, ip}
  2c:	1b011a01 	blne	46838 <SCB_VECTKEYSTAT_INV_MASK+0x36839>
  30:	1e011c01 	cdpne	12, 0, cr1, cr1, cr1, {0}
  34:	Address 0x0000000000000034 is out of bounds.


Disassembly of section .debug_frame:

00000000 <.debug_frame>:
   0:	0000000c 	andeq	r0, r0, ip
   4:	ffffffff 			; <UNDEFINED> instruction: 0xffffffff
   8:	7c020001 	stcvc	0, cr0, [r2], {1}
   c:	000d0c0e 	andeq	r0, sp, lr, lsl #24
  10:	0000001c 	andeq	r0, r0, ip, lsl r0
  14:	00000000 	andeq	r0, r0, r0
  18:	08000210 	stmdaeq	r0, {r4, r9}
  1c:	00000010 	andeq	r0, r0, r0, lsl r0
  20:	87040e41 	strhi	r0, [r4, -r1, asr #28]
  24:	070d4101 	streq	r4, [sp, -r1, lsl #2]
  28:	420d0d43 	andmi	r0, sp, #4288	; 0x10c0
  2c:	00000ec7 	andeq	r0, r0, r7, asr #29
  30:	0000000c 	andeq	r0, r0, ip
  34:	ffffffff 			; <UNDEFINED> instruction: 0xffffffff
  38:	7c020001 	stcvc	0, cr0, [r2], {1}
  3c:	000d0c0e 	andeq	r0, sp, lr, lsl #24
  40:	0000001c 	andeq	r0, r0, ip, lsl r0
  44:	00000030 	andeq	r0, r0, r0, lsr r0
  48:	0800022c 	stmdaeq	r0, {r2, r3, r5, r9}
  4c:	00000030 	andeq	r0, r0, r0, lsr r0
  50:	87040e41 	strhi	r0, [r4, -r1, asr #28]
  54:	070d4101 	streq	r4, [sp, -r1, lsl #2]
  58:	420d0d51 	andmi	r0, sp, #5184	; 0x1440
  5c:	00000ec7 	andeq	r0, r0, r7, asr #29
  60:	0000001c 	andeq	r0, r0, ip, lsl r0
  64:	00000030 	andeq	r0, r0, r0, lsr r0
  68:	0800025c 	stmdaeq	r0, {r2, r3, r4, r6, r9}
  6c:	00000050 	andeq	r0, r0, r0, asr r0
  70:	87040e41 	strhi	r0, [r4, -r1, asr #28]
  74:	070d4101 	streq	r4, [sp, -r1, lsl #2]
  78:	420d0d5b 	andmi	r0, sp, #5824	; 0x16c0
  7c:	00000ec7 	andeq	r0, r0, r7, asr #29
  80:	0000001c 	andeq	r0, r0, ip, lsl r0
  84:	00000030 	andeq	r0, r0, r0, lsr r0
  88:	080002ac 	stmdaeq	r0, {r2, r3, r5, r7, r9}
  8c:	0000004c 	andeq	r0, r0, ip, asr #32
  90:	87040e41 	strhi	r0, [r4, -r1, asr #28]
  94:	070d4101 	streq	r4, [sp, -r1, lsl #2]
  98:	420d0d5f 	andmi	r0, sp, #6080	; 0x17c0
  9c:	00000ec7 	andeq	r0, r0, r7, asr #29
  a0:	00000024 	andeq	r0, r0, r4, lsr #32
  a4:	00000030 	andeq	r0, r0, r0, lsr r0
  a8:	080002f8 	stmdaeq	r0, {r3, r4, r5, r6, r7, r9}
  ac:	0000006c 	andeq	r0, r0, ip, rrx
  b0:	87040e41 	strhi	r0, [r4, -r1, asr #28]
  b4:	100e4101 	andne	r4, lr, r1, lsl #2
  b8:	6a070d41 	bvs	1c35c4 <SCB_VECTKEYSTAT_INV_MASK+0x1b35c5>
  bc:	0d41040e 	cfstrdeq	mvd0, [r1, #-56]	; 0xffffffc8
  c0:	0ec7420d 	cdpeq	2, 12, cr4, cr7, cr13, {0}
  c4:	00000000 	andeq	r0, r0, r0
  c8:	00000020 	andeq	r0, r0, r0, lsr #32
  cc:	00000030 	andeq	r0, r0, r0, lsr r0
  d0:	08000364 	stmdaeq	r0, {r2, r5, r6, r8, r9}
  d4:	000000ac 	andeq	r0, r0, ip, lsr #1
  d8:	87080e41 	strhi	r0, [r8, -r1, asr #28]
  dc:	41018e02 	tstmi	r1, r2, lsl #28
  e0:	0d41180e 	stcleq	8, cr1, [r1, #-56]	; 0xffffffc8
  e4:	0e4a0207 	cdpeq	2, 4, cr0, cr10, cr7, {0}
  e8:	0d0d4108 	stfeqs	f4, [sp, #-32]	; 0xffffffe0
  ec:	00000020 	andeq	r0, r0, r0, lsr #32
  f0:	00000030 	andeq	r0, r0, r0, lsr r0
  f4:	08000410 	stmdaeq	r0, {r4, sl}
  f8:	000000ac 	andeq	r0, r0, ip, lsr #1
  fc:	87080e41 	strhi	r0, [r8, -r1, asr #28]
 100:	41018e02 	tstmi	r1, r2, lsl #28
 104:	0d41180e 	stcleq	8, cr1, [r1, #-56]	; 0xffffffc8
 108:	0e490207 	cdpeq	2, 4, cr0, cr9, cr7, {0}
 10c:	0d0d4108 	stfeqs	f4, [sp, #-32]	; 0xffffffe0
 110:	00000020 	andeq	r0, r0, r0, lsr #32
 114:	00000030 	andeq	r0, r0, r0, lsr r0
 118:	080004bc 	stmdaeq	r0, {r2, r3, r4, r5, r7, sl}
 11c:	000000e0 	andeq	r0, r0, r0, ror #1
 120:	87080e41 	strhi	r0, [r8, -r1, asr #28]
 124:	41018e02 	tstmi	r1, r2, lsl #28
 128:	0d41100e 	stcleq	0, cr1, [r1, #-56]	; 0xffffffc8
 12c:	0e610207 	cdpeq	2, 6, cr0, cr1, cr7, {0}
 130:	0d0d4108 	stfeqs	f4, [sp, #-32]	; 0xffffffe0
 134:	00000020 	andeq	r0, r0, r0, lsr #32
 138:	00000030 	andeq	r0, r0, r0, lsr r0
 13c:	0800059c 	stmdaeq	r0, {r2, r3, r4, r7, r8, sl}
 140:	0000013c 	andeq	r0, r0, ip, lsr r1
 144:	87080e41 	strhi	r0, [r8, -r1, asr #28]
 148:	41018e02 	tstmi	r1, r2, lsl #28
 14c:	0d41180e 	stcleq	8, cr1, [r1, #-56]	; 0xffffffc8
 150:	0e8f0207 	cdpeq	2, 8, cr0, cr15, cr7, {0}
 154:	0d0d4108 	stfeqs	f4, [sp, #-32]	; 0xffffffe0
 158:	00000020 	andeq	r0, r0, r0, lsr #32
 15c:	00000030 	andeq	r0, r0, r0, lsr r0
 160:	080006d8 	stmdaeq	r0, {r3, r4, r6, r7, r9, sl}
 164:	0000003c 	andeq	r0, r0, ip, lsr r0
 168:	87080e41 	strhi	r0, [r8, -r1, asr #28]
 16c:	41018e02 	tstmi	r1, r2, lsl #28
 170:	0d41100e 	stcleq	0, cr1, [r1, #-56]	; 0xffffffc8
 174:	080e5607 	stmdaeq	lr, {r0, r1, r2, r9, sl, ip, lr}
 178:	000d0d41 	andeq	r0, sp, r1, asr #26
 17c:	0000000c 	andeq	r0, r0, ip
 180:	ffffffff 			; <UNDEFINED> instruction: 0xffffffff
 184:	7c020001 	stcvc	0, cr0, [r2], {1}
 188:	000d0c0e 	andeq	r0, sp, lr, lsl #24
 18c:	00000018 	andeq	r0, r0, r8, lsl r0
 190:	0000017c 	andeq	r0, r0, ip, ror r1
 194:	08000714 	stmdaeq	r0, {r2, r4, r8, r9, sl}
 198:	0000001c 	andeq	r0, r0, ip, lsl r0
 19c:	87080e41 	strhi	r0, [r8, -r1, asr #28]
 1a0:	41018e02 	tstmi	r1, r2, lsl #28
 1a4:	0000070d 	andeq	r0, r0, sp, lsl #14
 1a8:	00000018 	andeq	r0, r0, r8, lsl r0
 1ac:	0000017c 	andeq	r0, r0, ip, ror r1
 1b0:	08000730 	stmdaeq	r0, {r4, r5, r8, r9, sl}
 1b4:	0000001c 	andeq	r0, r0, ip, lsl r0
 1b8:	87080e41 	strhi	r0, [r8, -r1, asr #28]
 1bc:	41018e02 	tstmi	r1, r2, lsl #28
 1c0:	0000070d 	andeq	r0, r0, sp, lsl #14
 1c4:	00000020 	andeq	r0, r0, r0, lsr #32
 1c8:	0000017c 	andeq	r0, r0, ip, ror r1
 1cc:	0800074c 	stmdaeq	r0, {r2, r3, r6, r8, r9, sl}
 1d0:	00000048 	andeq	r0, r0, r8, asr #32
 1d4:	87080e41 	strhi	r0, [r8, -r1, asr #28]
 1d8:	41018e02 	tstmi	r1, r2, lsl #28
 1dc:	0d41100e 	stcleq	0, cr1, [r1, #-56]	; 0xffffffc8
 1e0:	080e5b07 	stmdaeq	lr, {r0, r1, r2, r8, r9, fp, ip, lr}
 1e4:	000d0d41 	andeq	r0, sp, r1, asr #26
 1e8:	0000000c 	andeq	r0, r0, ip
 1ec:	ffffffff 			; <UNDEFINED> instruction: 0xffffffff
 1f0:	7c020001 	stcvc	0, cr0, [r2], {1}
 1f4:	000d0c0e 	andeq	r0, sp, lr, lsl #24
 1f8:	00000024 	andeq	r0, r0, r4, lsr #32
 1fc:	000001e8 	andeq	r0, r0, r8, ror #3
 200:	08000794 	stmdaeq	r0, {r2, r4, r7, r8, r9, sl}
 204:	00000278 	andeq	r0, r0, r8, ror r2
 208:	87080e41 	strhi	r0, [r8, -r1, asr #28]
 20c:	41018e02 	tstmi	r1, r2, lsl #28
 210:	0d41200e 	stcleq	0, cr2, [r1, #-56]	; 0xffffffc8
 214:	012c0307 			; <UNDEFINED> instruction: 0x012c0307
 218:	0d41080e 	stcleq	8, cr0, [r1, #-56]	; 0xffffffc8
 21c:	0000000d 	andeq	r0, r0, sp
 220:	0000000c 	andeq	r0, r0, ip
 224:	ffffffff 			; <UNDEFINED> instruction: 0xffffffff
 228:	7c020001 	stcvc	0, cr0, [r2], {1}
 22c:	000d0c0e 	andeq	r0, sp, lr, lsl #24
 230:	00000020 	andeq	r0, r0, r0, lsr #32
 234:	00000220 	andeq	r0, r0, r0, lsr #4
 238:	08000a1c 	stmdaeq	r0, {r2, r3, r4, r9, fp}
 23c:	0000001a 	andeq	r0, r0, sl, lsl r0
 240:	87080e41 	strhi	r0, [r8, -r1, asr #28]
 244:	41018e02 	tstmi	r1, r2, lsl #28
 248:	0d41100e 	stcleq	0, cr1, [r1, #-56]	; 0xffffffc8
 24c:	080e4807 	stmdaeq	lr, {r0, r1, r2, fp, lr}
 250:	000d0d41 	andeq	r0, sp, r1, asr #26
 254:	0000000c 	andeq	r0, r0, ip
 258:	ffffffff 			; <UNDEFINED> instruction: 0xffffffff
 25c:	7c020001 	stcvc	0, cr0, [r2], {1}
 260:	000d0c0e 	andeq	r0, sp, lr, lsl #24
 264:	00000020 	andeq	r0, r0, r0, lsr #32
 268:	00000254 	andeq	r0, r0, r4, asr r2
 26c:	08000a38 	stmdaeq	r0, {r3, r4, r5, r9, fp}
 270:	00000048 	andeq	r0, r0, r8, asr #32
 274:	87080e41 	strhi	r0, [r8, -r1, asr #28]
 278:	41018e02 	tstmi	r1, r2, lsl #28
 27c:	0d41100e 	stcleq	0, cr1, [r1, #-56]	; 0xffffffc8
 280:	080e5b07 	stmdaeq	lr, {r0, r1, r2, r8, r9, fp, ip, lr}
 284:	000d0d41 	andeq	r0, sp, r1, asr #26
 288:	0000000c 	andeq	r0, r0, ip
 28c:	ffffffff 			; <UNDEFINED> instruction: 0xffffffff
 290:	7c020001 	stcvc	0, cr0, [r2], {1}
 294:	000d0c0e 	andeq	r0, sp, lr, lsl #24
 298:	00000030 	andeq	r0, r0, r0, lsr r0
 29c:	00000288 	andeq	r0, r0, r8, lsl #5
 2a0:	08000a80 	stmdaeq	r0, {r7, r9, fp}
 2a4:	000003e8 	andeq	r0, r0, r8, ror #7
 2a8:	84240e42 	strthi	r0, [r4], #-3650	; 0xfffff1be
 2ac:	86088509 	strhi	r8, [r8], -r9, lsl #10
 2b0:	88068707 	stmdahi	r6, {r0, r1, r2, r8, r9, sl, pc}
 2b4:	8a048905 	bhi	1226d0 <SCB_VECTKEYSTAT_INV_MASK+0x1126d1>
 2b8:	8e028b03 	vmlahi.f64	d8, d2, d3
 2bc:	980e4101 	stmdals	lr, {r0, r8, lr}
 2c0:	070d4101 	streq	r4, [sp, -r1, lsl #2]
 2c4:	0e01ed03 	cdpeq	13, 0, cr14, cr1, cr3, {0}
 2c8:	0d0d4124 	stfeqs	f4, [sp, #-144]	; 0xffffff70
 2cc:	00000024 	andeq	r0, r0, r4, lsr #32
 2d0:	00000288 	andeq	r0, r0, r8, lsl #5
 2d4:	08000e68 	stmdaeq	r0, {r3, r5, r6, r9, sl, fp}
 2d8:	0000005c 	andeq	r0, r0, ip, asr r0
 2dc:	87040e41 	strhi	r0, [r4, -r1, asr #28]
 2e0:	100e4101 	andne	r4, lr, r1, lsl #2
 2e4:	60070d41 	andvs	r0, r7, r1, asr #26
 2e8:	0d41040e 	cfstrdeq	mvd0, [r1, #-56]	; 0xffffffc8
 2ec:	0ec7420d 	cdpeq	2, 12, cr4, cr7, cr13, {0}
 2f0:	00000000 	andeq	r0, r0, r0
 2f4:	00000024 	andeq	r0, r0, r4, lsr #32
 2f8:	00000288 	andeq	r0, r0, r8, lsl #5
 2fc:	08000ec4 	stmdaeq	r0, {r2, r6, r7, r9, sl, fp}
 300:	0000005c 	andeq	r0, r0, ip, asr r0
 304:	87040e41 	strhi	r0, [r4, -r1, asr #28]
 308:	100e4101 	andne	r4, lr, r1, lsl #2
 30c:	60070d41 	andvs	r0, r7, r1, asr #26
 310:	0d41040e 	cfstrdeq	mvd0, [r1, #-56]	; 0xffffffc8
 314:	0ec7420d 	cdpeq	2, 12, cr4, cr7, cr13, {0}
 318:	00000000 	andeq	r0, r0, r0
 31c:	00000020 	andeq	r0, r0, r0, lsr #32
 320:	00000288 	andeq	r0, r0, r8, lsl #5
 324:	08000f20 	stmdaeq	r0, {r5, r8, r9, sl, fp}
 328:	000001cc 	andeq	r0, r0, ip, asr #3
 32c:	87080e41 	strhi	r0, [r8, -r1, asr #28]
 330:	41018e02 	tstmi	r1, r2, lsl #28
 334:	0d41180e 	stcleq	8, cr1, [r1, #-56]	; 0xffffffc8
 338:	0ecf0207 	cdpeq	2, 12, cr0, cr15, cr7, {0}
 33c:	0d0d4108 	stfeqs	f4, [sp, #-32]	; 0xffffffe0
 340:	00000024 	andeq	r0, r0, r4, lsr #32
 344:	00000288 	andeq	r0, r0, r8, lsl #5
 348:	080010ec 	stmdaeq	r0, {r2, r3, r5, r6, r7, ip}
 34c:	00000060 	andeq	r0, r0, r0, rrx
 350:	87040e41 	strhi	r0, [r4, -r1, asr #28]
 354:	180e4101 	stmdane	lr, {r0, r8, lr}
 358:	62070d41 	andvs	r0, r7, #4160	; 0x1040
 35c:	0d41040e 	cfstrdeq	mvd0, [r1, #-56]	; 0xffffffc8
 360:	0ec7420d 	cdpeq	2, 12, cr4, cr7, cr13, {0}
 364:	00000000 	andeq	r0, r0, r0
 368:	0000000c 	andeq	r0, r0, ip
 36c:	ffffffff 			; <UNDEFINED> instruction: 0xffffffff
 370:	7c020001 	stcvc	0, cr0, [r2], {1}
 374:	000d0c0e 	andeq	r0, sp, lr, lsl #24
 378:	00000024 	andeq	r0, r0, r4, lsr #32
 37c:	00000368 	andeq	r0, r0, r8, ror #6
 380:	0800114c 	stmdaeq	r0, {r2, r3, r6, r8, ip}
 384:	00000038 	andeq	r0, r0, r8, lsr r0
 388:	87040e41 	strhi	r0, [r4, -r1, asr #28]
 38c:	100e4101 	andne	r4, lr, r1, lsl #2
 390:	52070d41 	andpl	r0, r7, #4160	; 0x1040
 394:	0d41040e 	cfstrdeq	mvd0, [r1, #-56]	; 0xffffffc8
 398:	0ec7420d 	cdpeq	2, 12, cr4, cr7, cr13, {0}
 39c:	00000000 	andeq	r0, r0, r0
 3a0:	0000001c 	andeq	r0, r0, ip, lsl r0
 3a4:	00000368 	andeq	r0, r0, r8, ror #6
 3a8:	08001184 	stmdaeq	r0, {r2, r7, r8, ip}
 3ac:	00000020 	andeq	r0, r0, r0, lsr #32
 3b0:	87040e41 	strhi	r0, [r4, -r1, asr #28]
 3b4:	070d4101 	streq	r4, [sp, -r1, lsl #2]
 3b8:	420d0d49 	andmi	r0, sp, #4672	; 0x1240
 3bc:	00000ec7 	andeq	r0, r0, r7, asr #29
 3c0:	00000020 	andeq	r0, r0, r0, lsr #32
 3c4:	00000368 	andeq	r0, r0, r8, ror #6
 3c8:	080011a4 	stmdaeq	r0, {r2, r5, r7, r8, ip}
 3cc:	0000006c 	andeq	r0, r0, ip, rrx
 3d0:	87080e41 	strhi	r0, [r8, -r1, asr #28]
 3d4:	41018e02 	tstmi	r1, r2, lsl #28
 3d8:	0d41180e 	stcleq	8, cr1, [r1, #-56]	; 0xffffffc8
 3dc:	080e6b07 	stmdaeq	lr, {r0, r1, r2, r8, r9, fp, sp, lr}
 3e0:	000d0d41 	andeq	r0, sp, r1, asr #26
 3e4:	00000024 	andeq	r0, r0, r4, lsr #32
 3e8:	00000368 	andeq	r0, r0, r8, ror #6
 3ec:	08001210 	stmdaeq	r0, {r4, r9, ip}
 3f0:	0000002c 	andeq	r0, r0, ip, lsr #32
 3f4:	87040e41 	strhi	r0, [r4, -r1, asr #28]
 3f8:	100e4101 	andne	r4, lr, r1, lsl #2
 3fc:	4d070d41 	stcmi	13, cr0, [r7, #-260]	; 0xfffffefc
 400:	0d41040e 	cfstrdeq	mvd0, [r1, #-56]	; 0xffffffc8
 404:	0ec7420d 	cdpeq	2, 12, cr4, cr7, cr13, {0}
 408:	00000000 	andeq	r0, r0, r0
 40c:	0000000c 	andeq	r0, r0, ip
 410:	ffffffff 			; <UNDEFINED> instruction: 0xffffffff
 414:	7c020001 	stcvc	0, cr0, [r2], {1}
 418:	000d0c0e 	andeq	r0, sp, lr, lsl #24
 41c:	00000018 	andeq	r0, r0, r8, lsl r0
 420:	0000040c 	andeq	r0, r0, ip, lsl #8
 424:	080012e8 	stmdaeq	r0, {r3, r5, r6, r7, r9, ip}
 428:	0000000c 	andeq	r0, r0, ip
 42c:	87040e41 	strhi	r0, [r4, -r1, asr #28]
 430:	100e4101 	andne	r4, lr, r1, lsl #2
 434:	00070d41 	andeq	r0, r7, r1, asr #26
 438:	0000000c 	andeq	r0, r0, ip
 43c:	ffffffff 			; <UNDEFINED> instruction: 0xffffffff
 440:	7c020001 	stcvc	0, cr0, [r2], {1}
 444:	000d0c0e 	andeq	r0, sp, lr, lsl #24
 448:	00000020 	andeq	r0, r0, r0, lsr #32
 44c:	00000438 	andeq	r0, r0, r8, lsr r4
 450:	080012f4 	stmdaeq	r0, {r2, r4, r5, r6, r7, r9, ip}
 454:	0000007c 	andeq	r0, r0, ip, ror r0
 458:	87080e41 	strhi	r0, [r8, -r1, asr #28]
 45c:	41018e02 	tstmi	r1, r2, lsl #28
 460:	0d41180e 	stcleq	8, cr1, [r1, #-56]	; 0xffffffc8
 464:	080e7107 	stmdaeq	lr, {r0, r1, r2, r8, ip, sp, lr}
 468:	000d0d41 	andeq	r0, sp, r1, asr #26
 46c:	0000001c 	andeq	r0, r0, ip, lsl r0
 470:	00000438 	andeq	r0, r0, r8, lsr r4
 474:	08001370 	stmdaeq	r0, {r4, r5, r6, r8, r9, ip}
 478:	00000068 	andeq	r0, r0, r8, rrx
 47c:	87080e41 	strhi	r0, [r8, -r1, asr #28]
 480:	41018e02 	tstmi	r1, r2, lsl #28
 484:	0d41100e 	stcleq	0, cr1, [r1, #-56]	; 0xffffffc8
 488:	00000007 	andeq	r0, r0, r7
 48c:	0000000c 	andeq	r0, r0, ip
 490:	ffffffff 			; <UNDEFINED> instruction: 0xffffffff
 494:	7c020001 	stcvc	0, cr0, [r2], {1}
 498:	000d0c0e 	andeq	r0, sp, lr, lsl #24
 49c:	00000024 	andeq	r0, r0, r4, lsr #32
 4a0:	0000048c 	andeq	r0, r0, ip, lsl #9
 4a4:	080013d8 	stmdaeq	r0, {r3, r4, r6, r7, r8, r9, ip}
 4a8:	00000018 	andeq	r0, r0, r8, lsl r0
 4ac:	87040e41 	strhi	r0, [r4, -r1, asr #28]
 4b0:	180e4101 	stmdane	lr, {r0, r8, lr}
 4b4:	45070d41 	strmi	r0, [r7, #-3393]	; 0xfffff2bf
 4b8:	0d41040e 	cfstrdeq	mvd0, [r1, #-56]	; 0xffffffc8
 4bc:	0ec7420d 	cdpeq	2, 12, cr4, cr7, cr13, {0}
 4c0:	00000000 	andeq	r0, r0, r0
 4c4:	0000000c 	andeq	r0, r0, ip
 4c8:	ffffffff 			; <UNDEFINED> instruction: 0xffffffff
 4cc:	7c020001 	stcvc	0, cr0, [r2], {1}
 4d0:	000d0c0e 	andeq	r0, sp, lr, lsl #24
 4d4:	00000024 	andeq	r0, r0, r4, lsr #32
 4d8:	000004c4 	andeq	r0, r0, r4, asr #9
 4dc:	080013f0 	stmdaeq	r0, {r4, r5, r6, r7, r8, r9, ip}
 4e0:	00000034 	andeq	r0, r0, r4, lsr r0
 4e4:	87040e41 	strhi	r0, [r4, -r1, asr #28]
 4e8:	100e4101 	andne	r4, lr, r1, lsl #2
 4ec:	50070d41 	andpl	r0, r7, r1, asr #26
 4f0:	0d41040e 	cfstrdeq	mvd0, [r1, #-56]	; 0xffffffc8
 4f4:	0ec7420d 	cdpeq	2, 12, cr4, cr7, cr13, {0}
 4f8:	00000000 	andeq	r0, r0, r0
 4fc:	00000024 	andeq	r0, r0, r4, lsr #32
 500:	000004c4 	andeq	r0, r0, r4, asr #9
 504:	08001424 	stmdaeq	r0, {r2, r5, sl, ip}
 508:	00000064 	andeq	r0, r0, r4, rrx
 50c:	87040e41 	strhi	r0, [r4, -r1, asr #28]
 510:	180e4101 	stmdane	lr, {r0, r8, lr}
 514:	69070d41 	stmdbvs	r7, {r0, r6, r8, sl, fp}
 518:	0d41040e 	cfstrdeq	mvd0, [r1, #-56]	; 0xffffffc8
 51c:	0ec7420d 	cdpeq	2, 12, cr4, cr7, cr13, {0}
 520:	00000000 	andeq	r0, r0, r0
 524:	00000024 	andeq	r0, r0, r4, lsr #32
 528:	000004c4 	andeq	r0, r0, r4, asr #9
 52c:	08001488 	stmdaeq	r0, {r3, r7, sl, ip}
 530:	0000002e 	andeq	r0, r0, lr, lsr #32
 534:	87040e41 	strhi	r0, [r4, -r1, asr #28]
 538:	180e4101 	stmdane	lr, {r0, r8, lr}
 53c:	50070d41 	andpl	r0, r7, r1, asr #26
 540:	0d41040e 	cfstrdeq	mvd0, [r1, #-56]	; 0xffffffc8
 544:	0ec7420d 	cdpeq	2, 12, cr4, cr7, cr13, {0}
 548:	00000000 	andeq	r0, r0, r0
 54c:	00000024 	andeq	r0, r0, r4, lsr #32
 550:	000004c4 	andeq	r0, r0, r4, asr #9
 554:	080014b6 	stmdaeq	r0, {r1, r2, r4, r5, r7, sl, ip}
 558:	000000ba 	strheq	r0, [r0], -sl
 55c:	840c0e41 	strhi	r0, [ip], #-3649	; 0xfffff1bf
 560:	8e028703 	cdphi	7, 0, cr8, cr2, cr3, {0}
 564:	280e4101 	stmdacs	lr, {r0, r8, lr}
 568:	02070d41 	andeq	r0, r7, #4160	; 0x1040
 56c:	410c0e50 	tstmi	ip, r0, asr lr
 570:	00000d0d 	andeq	r0, r0, sp, lsl #26
 574:	00000024 	andeq	r0, r0, r4, lsr #32
 578:	000004c4 	andeq	r0, r0, r4, asr #9
 57c:	08001570 	stmdaeq	r0, {r4, r5, r6, r8, sl, ip}
 580:	00000038 	andeq	r0, r0, r8, lsr r0
 584:	87040e41 	strhi	r0, [r4, -r1, asr #28]
 588:	100e4101 	andne	r4, lr, r1, lsl #2
 58c:	50070d41 	andpl	r0, r7, r1, asr #26
 590:	0d41040e 	cfstrdeq	mvd0, [r1, #-56]	; 0xffffffc8
 594:	0ec7420d 	cdpeq	2, 12, cr4, cr7, cr13, {0}
 598:	00000000 	andeq	r0, r0, r0
 59c:	00000020 	andeq	r0, r0, r0, lsr #32
 5a0:	000004c4 	andeq	r0, r0, r4, asr #9
 5a4:	080015a8 	stmdaeq	r0, {r3, r5, r7, r8, sl, ip}
 5a8:	00000040 	andeq	r0, r0, r0, asr #32
 5ac:	87080e41 	strhi	r0, [r8, -r1, asr #28]
 5b0:	41018e02 	tstmi	r1, r2, lsl #28
 5b4:	0d41180e 	stcleq	8, cr1, [r1, #-56]	; 0xffffffc8
 5b8:	080e5507 	stmdaeq	lr, {r0, r1, r2, r8, sl, ip, lr}
 5bc:	000d0d41 	andeq	r0, sp, r1, asr #26
 5c0:	00000020 	andeq	r0, r0, r0, lsr #32
 5c4:	000004c4 	andeq	r0, r0, r4, asr #9
 5c8:	080015e8 	stmdaeq	r0, {r3, r5, r6, r7, r8, sl, ip}
 5cc:	00000040 	andeq	r0, r0, r0, asr #32
 5d0:	87080e41 	strhi	r0, [r8, -r1, asr #28]
 5d4:	41018e02 	tstmi	r1, r2, lsl #28
 5d8:	0d41180e 	stcleq	8, cr1, [r1, #-56]	; 0xffffffc8
 5dc:	080e5507 	stmdaeq	lr, {r0, r1, r2, r8, sl, ip, lr}
 5e0:	000d0d41 	andeq	r0, sp, r1, asr #26
 5e4:	00000020 	andeq	r0, r0, r0, lsr #32
 5e8:	000004c4 	andeq	r0, r0, r4, asr #9
 5ec:	08001628 	stmdaeq	r0, {r3, r5, r9, sl, ip}
 5f0:	00000040 	andeq	r0, r0, r0, asr #32
 5f4:	87080e41 	strhi	r0, [r8, -r1, asr #28]
 5f8:	41018e02 	tstmi	r1, r2, lsl #28
 5fc:	0d41180e 	stcleq	8, cr1, [r1, #-56]	; 0xffffffc8
 600:	080e5507 	stmdaeq	lr, {r0, r1, r2, r8, sl, ip, lr}
 604:	000d0d41 	andeq	r0, sp, r1, asr #26

Disassembly of section .debug_ranges:

00000000 <.debug_ranges>:
   0:	ffffffff 			; <UNDEFINED> instruction: 0xffffffff
   4:	00000000 	andeq	r0, r0, r0
   8:	08001668 	stmdaeq	r0, {r3, r5, r6, r9, sl, ip}
   c:	08001702 	stmdaeq	r0, {r1, r8, r9, sl, ip}
  10:	08001702 	stmdaeq	r0, {r1, r8, r9, sl, ip}
  14:	0800175e 	stmdaeq	r0, {r1, r2, r3, r4, r6, r8, r9, sl, ip}
	...
