
build/lutk.elf:     file format elf32-littlearm


Disassembly of section .startup:

08000000 <__rst_vector>:
 8000000:	20018000 	andcs	r8, r1, r0
 8000004:	08000191 	stmdaeq	r0, {r0, r4, r7, r8}
 8000008:	0800126d 	stmdaeq	r0, {r0, r2, r3, r5, r6, r9, ip}
 800000c:	08001273 	stmdaeq	r0, {r0, r1, r4, r5, r6, r9, ip}
 8000010:	08001279 	stmdaeq	r0, {r0, r3, r4, r5, r6, r9, ip}
 8000014:	0800127f 	stmdaeq	r0, {r0, r1, r2, r3, r4, r5, r6, r9, ip}
 8000018:	08001285 	stmdaeq	r0, {r0, r2, r7, r9, ip}
 800001c:	08001261 	stmdaeq	r0, {r0, r5, r6, r9, ip}
 8000020:	08001261 	stmdaeq	r0, {r0, r5, r6, r9, ip}
 8000024:	08001261 	stmdaeq	r0, {r0, r5, r6, r9, ip}
 8000028:	08001261 	stmdaeq	r0, {r0, r5, r6, r9, ip}
 800002c:	08001285 	stmdaeq	r0, {r0, r2, r7, r9, ip}
 8000030:	0800128f 	stmdaeq	r0, {r0, r1, r2, r3, r7, r9, ip}
 8000034:	08001261 	stmdaeq	r0, {r0, r5, r6, r9, ip}
 8000038:	0800128f 	stmdaeq	r0, {r0, r1, r2, r3, r7, r9, ip}
 800003c:	0800128f 	stmdaeq	r0, {r0, r1, r2, r3, r7, r9, ip}
 8000040:	08001294 	stmdaeq	r0, {r2, r4, r7, r9, ip}
 8000044:	08001294 	stmdaeq	r0, {r2, r4, r7, r9, ip}
 8000048:	08001294 	stmdaeq	r0, {r2, r4, r7, r9, ip}
 800004c:	08001294 	stmdaeq	r0, {r2, r4, r7, r9, ip}
 8000050:	08001294 	stmdaeq	r0, {r2, r4, r7, r9, ip}
 8000054:	08001294 	stmdaeq	r0, {r2, r4, r7, r9, ip}
 8000058:	08001294 	stmdaeq	r0, {r2, r4, r7, r9, ip}
 800005c:	08001294 	stmdaeq	r0, {r2, r4, r7, r9, ip}
 8000060:	08001294 	stmdaeq	r0, {r2, r4, r7, r9, ip}
 8000064:	08001294 	stmdaeq	r0, {r2, r4, r7, r9, ip}
 8000068:	08001294 	stmdaeq	r0, {r2, r4, r7, r9, ip}
 800006c:	08001294 	stmdaeq	r0, {r2, r4, r7, r9, ip}
 8000070:	08001294 	stmdaeq	r0, {r2, r4, r7, r9, ip}
 8000074:	08001294 	stmdaeq	r0, {r2, r4, r7, r9, ip}
 8000078:	08001294 	stmdaeq	r0, {r2, r4, r7, r9, ip}
 800007c:	08001294 	stmdaeq	r0, {r2, r4, r7, r9, ip}
 8000080:	08001294 	stmdaeq	r0, {r2, r4, r7, r9, ip}
 8000084:	08001294 	stmdaeq	r0, {r2, r4, r7, r9, ip}
 8000088:	08001294 	stmdaeq	r0, {r2, r4, r7, r9, ip}
 800008c:	08001294 	stmdaeq	r0, {r2, r4, r7, r9, ip}
 8000090:	08001294 	stmdaeq	r0, {r2, r4, r7, r9, ip}
 8000094:	08001294 	stmdaeq	r0, {r2, r4, r7, r9, ip}
 8000098:	08001294 	stmdaeq	r0, {r2, r4, r7, r9, ip}
 800009c:	08001294 	stmdaeq	r0, {r2, r4, r7, r9, ip}
 80000a0:	08001294 	stmdaeq	r0, {r2, r4, r7, r9, ip}
 80000a4:	08001294 	stmdaeq	r0, {r2, r4, r7, r9, ip}
 80000a8:	08001294 	stmdaeq	r0, {r2, r4, r7, r9, ip}
 80000ac:	08001294 	stmdaeq	r0, {r2, r4, r7, r9, ip}
 80000b0:	08001294 	stmdaeq	r0, {r2, r4, r7, r9, ip}
 80000b4:	08001294 	stmdaeq	r0, {r2, r4, r7, r9, ip}
 80000b8:	08001294 	stmdaeq	r0, {r2, r4, r7, r9, ip}
 80000bc:	08001294 	stmdaeq	r0, {r2, r4, r7, r9, ip}
 80000c0:	08001294 	stmdaeq	r0, {r2, r4, r7, r9, ip}
 80000c4:	08001294 	stmdaeq	r0, {r2, r4, r7, r9, ip}
 80000c8:	08001294 	stmdaeq	r0, {r2, r4, r7, r9, ip}
 80000cc:	08001294 	stmdaeq	r0, {r2, r4, r7, r9, ip}
 80000d0:	08001294 	stmdaeq	r0, {r2, r4, r7, r9, ip}
 80000d4:	08001294 	stmdaeq	r0, {r2, r4, r7, r9, ip}
 80000d8:	08001294 	stmdaeq	r0, {r2, r4, r7, r9, ip}
 80000dc:	08001294 	stmdaeq	r0, {r2, r4, r7, r9, ip}
 80000e0:	08001294 	stmdaeq	r0, {r2, r4, r7, r9, ip}
 80000e4:	08001294 	stmdaeq	r0, {r2, r4, r7, r9, ip}
 80000e8:	08001294 	stmdaeq	r0, {r2, r4, r7, r9, ip}
 80000ec:	08001294 	stmdaeq	r0, {r2, r4, r7, r9, ip}
 80000f0:	08001294 	stmdaeq	r0, {r2, r4, r7, r9, ip}
 80000f4:	08001294 	stmdaeq	r0, {r2, r4, r7, r9, ip}
 80000f8:	08001294 	stmdaeq	r0, {r2, r4, r7, r9, ip}
 80000fc:	08001294 	stmdaeq	r0, {r2, r4, r7, r9, ip}
 8000100:	08001294 	stmdaeq	r0, {r2, r4, r7, r9, ip}
 8000104:	08001294 	stmdaeq	r0, {r2, r4, r7, r9, ip}
 8000108:	08001294 	stmdaeq	r0, {r2, r4, r7, r9, ip}
 800010c:	08001294 	stmdaeq	r0, {r2, r4, r7, r9, ip}
 8000110:	08001294 	stmdaeq	r0, {r2, r4, r7, r9, ip}
 8000114:	08001294 	stmdaeq	r0, {r2, r4, r7, r9, ip}
 8000118:	08001294 	stmdaeq	r0, {r2, r4, r7, r9, ip}
 800011c:	08001294 	stmdaeq	r0, {r2, r4, r7, r9, ip}
 8000120:	08001294 	stmdaeq	r0, {r2, r4, r7, r9, ip}
 8000124:	08001294 	stmdaeq	r0, {r2, r4, r7, r9, ip}
 8000128:	08001294 	stmdaeq	r0, {r2, r4, r7, r9, ip}
 800012c:	08001294 	stmdaeq	r0, {r2, r4, r7, r9, ip}
 8000130:	08001294 	stmdaeq	r0, {r2, r4, r7, r9, ip}
 8000134:	08001294 	stmdaeq	r0, {r2, r4, r7, r9, ip}
 8000138:	08001294 	stmdaeq	r0, {r2, r4, r7, r9, ip}
 800013c:	08001294 	stmdaeq	r0, {r2, r4, r7, r9, ip}
 8000140:	08001294 	stmdaeq	r0, {r2, r4, r7, r9, ip}
 8000144:	08001294 	stmdaeq	r0, {r2, r4, r7, r9, ip}
 8000148:	08001294 	stmdaeq	r0, {r2, r4, r7, r9, ip}
 800014c:	08001294 	stmdaeq	r0, {r2, r4, r7, r9, ip}
 8000150:	08001294 	stmdaeq	r0, {r2, r4, r7, r9, ip}
 8000154:	08001294 	stmdaeq	r0, {r2, r4, r7, r9, ip}
 8000158:	08001294 	stmdaeq	r0, {r2, r4, r7, r9, ip}
 800015c:	08001294 	stmdaeq	r0, {r2, r4, r7, r9, ip}
 8000160:	08001294 	stmdaeq	r0, {r2, r4, r7, r9, ip}
 8000164:	08001294 	stmdaeq	r0, {r2, r4, r7, r9, ip}
 8000168:	08001294 	stmdaeq	r0, {r2, r4, r7, r9, ip}
 800016c:	08001294 	stmdaeq	r0, {r2, r4, r7, r9, ip}
 8000170:	08001294 	stmdaeq	r0, {r2, r4, r7, r9, ip}
 8000174:	08001294 	stmdaeq	r0, {r2, r4, r7, r9, ip}
 8000178:	08001294 	stmdaeq	r0, {r2, r4, r7, r9, ip}
 800017c:	08001294 	stmdaeq	r0, {r2, r4, r7, r9, ip}
 8000180:	08001294 	stmdaeq	r0, {r2, r4, r7, r9, ip}
 8000184:	08001294 	stmdaeq	r0, {r2, r4, r7, r9, ip}
 8000188:	08001294 	stmdaeq	r0, {r2, r4, r7, r9, ip}
 800018c:	08001294 	stmdaeq	r0, {r2, r4, r7, r9, ip}

08000190 <__rst_handler>:
 8000190:	f000 b800 	b.w	8000194 <__kernel_init>

08000194 <__kernel_init>:
 8000194:	ea80 0000 	eor.w	r0, r0, r0
 8000198:	ea81 0101 	eor.w	r1, r1, r1
 800019c:	ea82 0202 	eor.w	r2, r2, r2
 80001a0:	ea83 0303 	eor.w	r3, r3, r3
 80001a4:	ea84 0404 	eor.w	r4, r4, r4
 80001a8:	ea85 0505 	eor.w	r5, r5, r5
 80001ac:	ea86 0606 	eor.w	r6, r6, r6
 80001b0:	ea87 0707 	eor.w	r7, r7, r7
 80001b4:	4810      	ldr	r0, [pc, #64]	; (80001f8 <__kernel_data_init_end+0x14>)
 80001b6:	4685      	mov	sp, r0
 80001b8:	4810      	ldr	r0, [pc, #64]	; (80001fc <__kernel_data_init_end+0x18>)
 80001ba:	4911      	ldr	r1, [pc, #68]	; (8000200 <__kernel_data_init_end+0x1c>)
 80001bc:	ea82 0202 	eor.w	r2, r2, r2

080001c0 <__kernel_bss_init>:
 80001c0:	4288      	cmp	r0, r1
 80001c2:	d003      	beq.n	80001cc <__kernel_bss_init_end>
 80001c4:	6002      	str	r2, [r0, #0]
 80001c6:	f100 0004 	add.w	r0, r0, #4
 80001ca:	e7f9      	b.n	80001c0 <__kernel_bss_init>

080001cc <__kernel_bss_init_end>:
 80001cc:	480d      	ldr	r0, [pc, #52]	; (8000204 <__kernel_data_init_end+0x20>)
 80001ce:	490e      	ldr	r1, [pc, #56]	; (8000208 <__kernel_data_init_end+0x24>)
 80001d0:	4a0e      	ldr	r2, [pc, #56]	; (800020c <__kernel_data_init_end+0x28>)

080001d2 <__kernel_data_init>:
 80001d2:	4288      	cmp	r0, r1
 80001d4:	d006      	beq.n	80001e4 <__kernel_data_init_end>
 80001d6:	6813      	ldr	r3, [r2, #0]
 80001d8:	6003      	str	r3, [r0, #0]
 80001da:	f100 0004 	add.w	r0, r0, #4
 80001de:	f102 0204 	add.w	r2, r2, #4
 80001e2:	e7f6      	b.n	80001d2 <__kernel_data_init>

080001e4 <__kernel_data_init_end>:
 80001e4:	f001 f82a 	bl	800123c <__fpu_init>
 80001e8:	f001 f856 	bl	8001298 <__nvic_init>
 80001ec:	f000 fc0e 	bl	8000a0c <__bsp_init>
 80001f0:	f001 f8be 	bl	8001370 <kernel_kickstart>
 80001f4:	f001 b878 	b.w	80012e8 <kernel_panic>
 80001f8:	20018000 	andcs	r8, r1, r0
 80001fc:	20000000 	andcs	r0, r0, r0
 8000200:	20000010 	andcs	r0, r0, r0, lsl r0
 8000204:	20000000 	andcs	r0, r0, r0
 8000208:	20000000 	andcs	r0, r0, r0
 800020c:	08001abc 	stmdaeq	r0, {r2, r3, r4, r5, r7, r9, fp, ip}

Disassembly of section .text:

08000210 <user_main>:
 8000210:	b480      	push	{r7}
 8000212:	af00      	add	r7, sp, #0
 8000214:	2300      	movs	r3, #0
 8000216:	4618      	mov	r0, r3
 8000218:	46bd      	mov	sp, r7
 800021a:	f85d 7b04 	ldr.w	r7, [sp], #4
 800021e:	4770      	bx	lr

08000220 <cpu_mem_barrier>:
 8000220:	f3bf 8f4f 	dsb	sy
 8000224:	f3bf 8f6f 	isb	sy
 8000228:	4770      	bx	lr
	...

0800022c <bsp_clk_base_sys_init>:
 800022c:	b480      	push	{r7}
 800022e:	af00      	add	r7, sp, #0
 8000230:	4a09      	ldr	r2, [pc, #36]	; (8000258 <bsp_clk_base_sys_init+0x2c>)
 8000232:	4b09      	ldr	r3, [pc, #36]	; (8000258 <bsp_clk_base_sys_init+0x2c>)
 8000234:	681b      	ldr	r3, [r3, #0]
 8000236:	f023 03f9 	bic.w	r3, r3, #249	; 0xf9
 800023a:	f043 0381 	orr.w	r3, r3, #129	; 0x81
 800023e:	6013      	str	r3, [r2, #0]
 8000240:	bf00      	nop
 8000242:	4b05      	ldr	r3, [pc, #20]	; (8000258 <bsp_clk_base_sys_init+0x2c>)
 8000244:	681b      	ldr	r3, [r3, #0]
 8000246:	f003 0302 	and.w	r3, r3, #2
 800024a:	2b00      	cmp	r3, #0
 800024c:	d0f9      	beq.n	8000242 <bsp_clk_base_sys_init+0x16>
 800024e:	bf00      	nop
 8000250:	46bd      	mov	sp, r7
 8000252:	f85d 7b04 	ldr.w	r7, [sp], #4
 8000256:	4770      	bx	lr
 8000258:	40023800 	andmi	r3, r2, r0, lsl #16

0800025c <bsp_clk_pll_init>:
 800025c:	b480      	push	{r7}
 800025e:	af00      	add	r7, sp, #0
 8000260:	490e      	ldr	r1, [pc, #56]	; (800029c <bsp_clk_pll_init+0x40>)
 8000262:	4b0e      	ldr	r3, [pc, #56]	; (800029c <bsp_clk_pll_init+0x40>)
 8000264:	681a      	ldr	r2, [r3, #0]
 8000266:	4b0e      	ldr	r3, [pc, #56]	; (80002a0 <bsp_clk_pll_init+0x44>)
 8000268:	4013      	ands	r3, r2
 800026a:	600b      	str	r3, [r1, #0]
 800026c:	490b      	ldr	r1, [pc, #44]	; (800029c <bsp_clk_pll_init+0x40>)
 800026e:	4b0b      	ldr	r3, [pc, #44]	; (800029c <bsp_clk_pll_init+0x40>)
 8000270:	681a      	ldr	r2, [r3, #0]
 8000272:	4b0c      	ldr	r3, [pc, #48]	; (80002a4 <bsp_clk_pll_init+0x48>)
 8000274:	4313      	orrs	r3, r2
 8000276:	600b      	str	r3, [r1, #0]
 8000278:	4a0b      	ldr	r2, [pc, #44]	; (80002a8 <bsp_clk_pll_init+0x4c>)
 800027a:	4b0b      	ldr	r3, [pc, #44]	; (80002a8 <bsp_clk_pll_init+0x4c>)
 800027c:	681b      	ldr	r3, [r3, #0]
 800027e:	f043 7380 	orr.w	r3, r3, #16777216	; 0x1000000
 8000282:	6013      	str	r3, [r2, #0]
 8000284:	bf00      	nop
 8000286:	4b08      	ldr	r3, [pc, #32]	; (80002a8 <bsp_clk_pll_init+0x4c>)
 8000288:	681b      	ldr	r3, [r3, #0]
 800028a:	f003 7300 	and.w	r3, r3, #33554432	; 0x2000000
 800028e:	2b00      	cmp	r3, #0
 8000290:	d0f9      	beq.n	8000286 <bsp_clk_pll_init+0x2a>
 8000292:	bf00      	nop
 8000294:	46bd      	mov	sp, r7
 8000296:	f85d 7b04 	ldr.w	r7, [sp], #4
 800029a:	4770      	bx	lr
 800029c:	40023804 	andmi	r3, r2, r4, lsl #16
 80002a0:	f0bc8000 			; <UNDEFINED> instruction: 0xf0bc8000
 80002a4:	08015410 	stmdaeq	r1, {r4, sl, ip, lr}
 80002a8:	40023800 	andmi	r3, r2, r0, lsl #16

080002ac <bsp_clk_switch_to_pll>:
 80002ac:	b480      	push	{r7}
 80002ae:	af00      	add	r7, sp, #0
 80002b0:	4a10      	ldr	r2, [pc, #64]	; (80002f4 <bsp_clk_switch_to_pll+0x48>)
 80002b2:	4b10      	ldr	r3, [pc, #64]	; (80002f4 <bsp_clk_switch_to_pll+0x48>)
 80002b4:	681b      	ldr	r3, [r3, #0]
 80002b6:	f423 437c 	bic.w	r3, r3, #64512	; 0xfc00
 80002ba:	f023 03f0 	bic.w	r3, r3, #240	; 0xf0
 80002be:	6013      	str	r3, [r2, #0]
 80002c0:	4a0c      	ldr	r2, [pc, #48]	; (80002f4 <bsp_clk_switch_to_pll+0x48>)
 80002c2:	4b0c      	ldr	r3, [pc, #48]	; (80002f4 <bsp_clk_switch_to_pll+0x48>)
 80002c4:	681b      	ldr	r3, [r3, #0]
 80002c6:	f443 5380 	orr.w	r3, r3, #4096	; 0x1000
 80002ca:	6013      	str	r3, [r2, #0]
 80002cc:	4a09      	ldr	r2, [pc, #36]	; (80002f4 <bsp_clk_switch_to_pll+0x48>)
 80002ce:	4b09      	ldr	r3, [pc, #36]	; (80002f4 <bsp_clk_switch_to_pll+0x48>)
 80002d0:	681b      	ldr	r3, [r3, #0]
 80002d2:	f023 0303 	bic.w	r3, r3, #3
 80002d6:	f043 0302 	orr.w	r3, r3, #2
 80002da:	6013      	str	r3, [r2, #0]
 80002dc:	bf00      	nop
 80002de:	4b05      	ldr	r3, [pc, #20]	; (80002f4 <bsp_clk_switch_to_pll+0x48>)
 80002e0:	681b      	ldr	r3, [r3, #0]
 80002e2:	f003 030c 	and.w	r3, r3, #12
 80002e6:	2b08      	cmp	r3, #8
 80002e8:	d1f9      	bne.n	80002de <bsp_clk_switch_to_pll+0x32>
 80002ea:	bf00      	nop
 80002ec:	46bd      	mov	sp, r7
 80002ee:	f85d 7b04 	ldr.w	r7, [sp], #4
 80002f2:	4770      	bx	lr
 80002f4:	40023808 	andmi	r3, r2, r8, lsl #16

080002f8 <bsp_clock_get_pll_freq>:
 80002f8:	b480      	push	{r7}
 80002fa:	b083      	sub	sp, #12
 80002fc:	af00      	add	r7, sp, #0
 80002fe:	4b17      	ldr	r3, [pc, #92]	; (800035c <bsp_clock_get_pll_freq+0x64>)
 8000300:	681b      	ldr	r3, [r3, #0]
 8000302:	f403 0380 	and.w	r3, r3, #4194304	; 0x400000
 8000306:	2b00      	cmp	r3, #0
 8000308:	d102      	bne.n	8000310 <bsp_clock_get_pll_freq+0x18>
 800030a:	4b15      	ldr	r3, [pc, #84]	; (8000360 <bsp_clock_get_pll_freq+0x68>)
 800030c:	607b      	str	r3, [r7, #4]
 800030e:	e001      	b.n	8000314 <bsp_clock_get_pll_freq+0x1c>
 8000310:	2300      	movs	r3, #0
 8000312:	607b      	str	r3, [r7, #4]
 8000314:	4b11      	ldr	r3, [pc, #68]	; (800035c <bsp_clock_get_pll_freq+0x64>)
 8000316:	681b      	ldr	r3, [r3, #0]
 8000318:	f003 033f 	and.w	r3, r3, #63	; 0x3f
 800031c:	687a      	ldr	r2, [r7, #4]
 800031e:	fbb2 f3f3 	udiv	r3, r2, r3
 8000322:	607b      	str	r3, [r7, #4]
 8000324:	4b0d      	ldr	r3, [pc, #52]	; (800035c <bsp_clock_get_pll_freq+0x64>)
 8000326:	681b      	ldr	r3, [r3, #0]
 8000328:	099b      	lsrs	r3, r3, #6
 800032a:	f3c3 0208 	ubfx	r2, r3, #0, #9
 800032e:	687b      	ldr	r3, [r7, #4]
 8000330:	fb02 f303 	mul.w	r3, r2, r3
 8000334:	607b      	str	r3, [r7, #4]
 8000336:	4b09      	ldr	r3, [pc, #36]	; (800035c <bsp_clock_get_pll_freq+0x64>)
 8000338:	681b      	ldr	r3, [r3, #0]
 800033a:	0c1b      	lsrs	r3, r3, #16
 800033c:	f003 0303 	and.w	r3, r3, #3
 8000340:	3301      	adds	r3, #1
 8000342:	005b      	lsls	r3, r3, #1
 8000344:	687a      	ldr	r2, [r7, #4]
 8000346:	fbb2 f3f3 	udiv	r3, r2, r3
 800034a:	607b      	str	r3, [r7, #4]
 800034c:	687b      	ldr	r3, [r7, #4]
 800034e:	4618      	mov	r0, r3
 8000350:	370c      	adds	r7, #12
 8000352:	46bd      	mov	sp, r7
 8000354:	f85d 7b04 	ldr.w	r7, [sp], #4
 8000358:	4770      	bx	lr
 800035a:	bf00      	nop
 800035c:	40023804 	andmi	r3, r2, r4, lsl #16
 8000360:	00f42400 	rscseq	r2, r4, r0, lsl #8

08000364 <bsp_clk_gpio_enable>:
 8000364:	b580      	push	{r7, lr}
 8000366:	b084      	sub	sp, #16
 8000368:	af00      	add	r7, sp, #0
 800036a:	4603      	mov	r3, r0
 800036c:	71fb      	strb	r3, [r7, #7]
 800036e:	79fb      	ldrb	r3, [r7, #7]
 8000370:	2b05      	cmp	r3, #5
 8000372:	d821      	bhi.n	80003b8 <bsp_clk_gpio_enable+0x54>
 8000374:	a201      	add	r2, pc, #4	; (adr r2, 800037c <bsp_clk_gpio_enable+0x18>)
 8000376:	f852 f023 	ldr.w	pc, [r2, r3, lsl #2]
 800037a:	bf00      	nop
 800037c:	08000395 	stmdaeq	r0, {r0, r2, r4, r7, r8, r9}
 8000380:	0800039b 	stmdaeq	r0, {r0, r1, r3, r4, r7, r8, r9}
 8000384:	080003a1 	stmdaeq	r0, {r0, r5, r7, r8, r9}
 8000388:	080003a7 	stmdaeq	r0, {r0, r1, r2, r5, r7, r8, r9}
 800038c:	080003ad 	stmdaeq	r0, {r0, r2, r3, r5, r7, r8, r9}
 8000390:	080003b3 	stmdaeq	r0, {r0, r1, r4, r5, r7, r8, r9}
 8000394:	2301      	movs	r3, #1
 8000396:	60fb      	str	r3, [r7, #12]
 8000398:	e010      	b.n	80003bc <bsp_clk_gpio_enable+0x58>
 800039a:	2302      	movs	r3, #2
 800039c:	60fb      	str	r3, [r7, #12]
 800039e:	e00d      	b.n	80003bc <bsp_clk_gpio_enable+0x58>
 80003a0:	2304      	movs	r3, #4
 80003a2:	60fb      	str	r3, [r7, #12]
 80003a4:	e00a      	b.n	80003bc <bsp_clk_gpio_enable+0x58>
 80003a6:	2308      	movs	r3, #8
 80003a8:	60fb      	str	r3, [r7, #12]
 80003aa:	e007      	b.n	80003bc <bsp_clk_gpio_enable+0x58>
 80003ac:	2310      	movs	r3, #16
 80003ae:	60fb      	str	r3, [r7, #12]
 80003b0:	e004      	b.n	80003bc <bsp_clk_gpio_enable+0x58>
 80003b2:	2380      	movs	r3, #128	; 0x80
 80003b4:	60fb      	str	r3, [r7, #12]
 80003b6:	e001      	b.n	80003bc <bsp_clk_gpio_enable+0x58>
 80003b8:	2300      	movs	r3, #0
 80003ba:	60fb      	str	r3, [r7, #12]
 80003bc:	68fb      	ldr	r3, [r7, #12]
 80003be:	2b00      	cmp	r3, #0
 80003c0:	d107      	bne.n	80003d2 <bsp_clk_gpio_enable+0x6e>
 80003c2:	1df9      	adds	r1, r7, #7
 80003c4:	2301      	movs	r3, #1
 80003c6:	2201      	movs	r2, #1
 80003c8:	480e      	ldr	r0, [pc, #56]	; (8000404 <bsp_clk_gpio_enable+0xa0>)
 80003ca:	f001 f92d 	bl	8001628 <KERNEL_LOG_ERROR>
 80003ce:	2301      	movs	r3, #1
 80003d0:	e013      	b.n	80003fa <bsp_clk_gpio_enable+0x96>
 80003d2:	490d      	ldr	r1, [pc, #52]	; (8000408 <bsp_clk_gpio_enable+0xa4>)
 80003d4:	4b0c      	ldr	r3, [pc, #48]	; (8000408 <bsp_clk_gpio_enable+0xa4>)
 80003d6:	681a      	ldr	r2, [r3, #0]
 80003d8:	68fb      	ldr	r3, [r7, #12]
 80003da:	4313      	orrs	r3, r2
 80003dc:	600b      	str	r3, [r1, #0]
 80003de:	bf00      	nop
 80003e0:	4b09      	ldr	r3, [pc, #36]	; (8000408 <bsp_clk_gpio_enable+0xa4>)
 80003e2:	681a      	ldr	r2, [r3, #0]
 80003e4:	68fb      	ldr	r3, [r7, #12]
 80003e6:	4013      	ands	r3, r2
 80003e8:	2b00      	cmp	r3, #0
 80003ea:	d0f9      	beq.n	80003e0 <bsp_clk_gpio_enable+0x7c>
 80003ec:	1df9      	adds	r1, r7, #7
 80003ee:	2300      	movs	r3, #0
 80003f0:	2201      	movs	r2, #1
 80003f2:	4806      	ldr	r0, [pc, #24]	; (800040c <bsp_clk_gpio_enable+0xa8>)
 80003f4:	f001 f8d8 	bl	80015a8 <KERNEL_LOG_INFO>
 80003f8:	2300      	movs	r3, #0
 80003fa:	4618      	mov	r0, r3
 80003fc:	3710      	adds	r7, #16
 80003fe:	46bd      	mov	sp, r7
 8000400:	bd80      	pop	{r7, pc}
 8000402:	bf00      	nop
 8000404:	08001774 	stmdaeq	r0, {r2, r4, r5, r6, r8, r9, sl, ip}
 8000408:	40023830 	andmi	r3, r2, r0, lsr r8
 800040c:	0800178c 	stmdaeq	r0, {r2, r3, r7, r8, r9, sl, ip}

08000410 <bsp_clk_usart_enable>:
 8000410:	b580      	push	{r7, lr}
 8000412:	b084      	sub	sp, #16
 8000414:	af00      	add	r7, sp, #0
 8000416:	4603      	mov	r3, r0
 8000418:	71fb      	strb	r3, [r7, #7]
 800041a:	2300      	movs	r3, #0
 800041c:	73fb      	strb	r3, [r7, #15]
 800041e:	79fb      	ldrb	r3, [r7, #7]
 8000420:	2b01      	cmp	r3, #1
 8000422:	d011      	beq.n	8000448 <bsp_clk_usart_enable+0x38>
 8000424:	2b03      	cmp	r3, #3
 8000426:	d01d      	beq.n	8000464 <bsp_clk_usart_enable+0x54>
 8000428:	2b00      	cmp	r3, #0
 800042a:	d129      	bne.n	8000480 <bsp_clk_usart_enable+0x70>
 800042c:	4a1f      	ldr	r2, [pc, #124]	; (80004ac <bsp_clk_usart_enable+0x9c>)
 800042e:	4b1f      	ldr	r3, [pc, #124]	; (80004ac <bsp_clk_usart_enable+0x9c>)
 8000430:	681b      	ldr	r3, [r3, #0]
 8000432:	f043 0310 	orr.w	r3, r3, #16
 8000436:	6013      	str	r3, [r2, #0]
 8000438:	bf00      	nop
 800043a:	4b1c      	ldr	r3, [pc, #112]	; (80004ac <bsp_clk_usart_enable+0x9c>)
 800043c:	681b      	ldr	r3, [r3, #0]
 800043e:	f003 0310 	and.w	r3, r3, #16
 8000442:	2b00      	cmp	r3, #0
 8000444:	d0f9      	beq.n	800043a <bsp_clk_usart_enable+0x2a>
 8000446:	e023      	b.n	8000490 <bsp_clk_usart_enable+0x80>
 8000448:	4a19      	ldr	r2, [pc, #100]	; (80004b0 <bsp_clk_usart_enable+0xa0>)
 800044a:	4b19      	ldr	r3, [pc, #100]	; (80004b0 <bsp_clk_usart_enable+0xa0>)
 800044c:	681b      	ldr	r3, [r3, #0]
 800044e:	f443 3300 	orr.w	r3, r3, #131072	; 0x20000
 8000452:	6013      	str	r3, [r2, #0]
 8000454:	bf00      	nop
 8000456:	4b16      	ldr	r3, [pc, #88]	; (80004b0 <bsp_clk_usart_enable+0xa0>)
 8000458:	681b      	ldr	r3, [r3, #0]
 800045a:	f403 3300 	and.w	r3, r3, #131072	; 0x20000
 800045e:	2b00      	cmp	r3, #0
 8000460:	d0f9      	beq.n	8000456 <bsp_clk_usart_enable+0x46>
 8000462:	e015      	b.n	8000490 <bsp_clk_usart_enable+0x80>
 8000464:	4a11      	ldr	r2, [pc, #68]	; (80004ac <bsp_clk_usart_enable+0x9c>)
 8000466:	4b11      	ldr	r3, [pc, #68]	; (80004ac <bsp_clk_usart_enable+0x9c>)
 8000468:	681b      	ldr	r3, [r3, #0]
 800046a:	f043 0320 	orr.w	r3, r3, #32
 800046e:	6013      	str	r3, [r2, #0]
 8000470:	bf00      	nop
 8000472:	4b0e      	ldr	r3, [pc, #56]	; (80004ac <bsp_clk_usart_enable+0x9c>)
 8000474:	681b      	ldr	r3, [r3, #0]
 8000476:	f003 0320 	and.w	r3, r3, #32
 800047a:	2b00      	cmp	r3, #0
 800047c:	d0f9      	beq.n	8000472 <bsp_clk_usart_enable+0x62>
 800047e:	e007      	b.n	8000490 <bsp_clk_usart_enable+0x80>
 8000480:	1df9      	adds	r1, r7, #7
 8000482:	2301      	movs	r3, #1
 8000484:	2201      	movs	r2, #1
 8000486:	480b      	ldr	r0, [pc, #44]	; (80004b4 <bsp_clk_usart_enable+0xa4>)
 8000488:	f001 f8ce 	bl	8001628 <KERNEL_LOG_ERROR>
 800048c:	2301      	movs	r3, #1
 800048e:	73fb      	strb	r3, [r7, #15]
 8000490:	7bfb      	ldrb	r3, [r7, #15]
 8000492:	2b00      	cmp	r3, #0
 8000494:	d105      	bne.n	80004a2 <bsp_clk_usart_enable+0x92>
 8000496:	1df9      	adds	r1, r7, #7
 8000498:	2300      	movs	r3, #0
 800049a:	2201      	movs	r2, #1
 800049c:	4806      	ldr	r0, [pc, #24]	; (80004b8 <bsp_clk_usart_enable+0xa8>)
 800049e:	f001 f883 	bl	80015a8 <KERNEL_LOG_INFO>
 80004a2:	7bfb      	ldrb	r3, [r7, #15]
 80004a4:	4618      	mov	r0, r3
 80004a6:	3710      	adds	r7, #16
 80004a8:	46bd      	mov	sp, r7
 80004aa:	bd80      	pop	{r7, pc}
 80004ac:	40023844 	andmi	r3, r2, r4, asr #16
 80004b0:	40023840 	andmi	r3, r2, r0, asr #16
 80004b4:	080017a0 	stmdaeq	r0, {r5, r7, r8, r9, sl, ip}
 80004b8:	080017b8 	stmdaeq	r0, {r3, r4, r5, r7, r8, r9, sl, ip}

080004bc <bsp_clk_sys_init>:
 80004bc:	b580      	push	{r7, lr}
 80004be:	b082      	sub	sp, #8
 80004c0:	af00      	add	r7, sp, #0
 80004c2:	4b31      	ldr	r3, [pc, #196]	; (8000588 <bsp_clk_sys_init+0xcc>)
 80004c4:	781b      	ldrb	r3, [r3, #0]
 80004c6:	2b00      	cmp	r3, #0
 80004c8:	d007      	beq.n	80004da <bsp_clk_sys_init+0x1e>
 80004ca:	2302      	movs	r3, #2
 80004cc:	2200      	movs	r2, #0
 80004ce:	2100      	movs	r1, #0
 80004d0:	482e      	ldr	r0, [pc, #184]	; (800058c <bsp_clk_sys_init+0xd0>)
 80004d2:	f001 f8a9 	bl	8001628 <KERNEL_LOG_ERROR>
 80004d6:	2302      	movs	r3, #2
 80004d8:	e052      	b.n	8000580 <bsp_clk_sys_init+0xc4>
 80004da:	4a2d      	ldr	r2, [pc, #180]	; (8000590 <bsp_clk_sys_init+0xd4>)
 80004dc:	4b2c      	ldr	r3, [pc, #176]	; (8000590 <bsp_clk_sys_init+0xd4>)
 80004de:	681b      	ldr	r3, [r3, #0]
 80004e0:	f043 5380 	orr.w	r3, r3, #268435456	; 0x10000000
 80004e4:	6013      	str	r3, [r2, #0]
 80004e6:	bf00      	nop
 80004e8:	4b29      	ldr	r3, [pc, #164]	; (8000590 <bsp_clk_sys_init+0xd4>)
 80004ea:	681b      	ldr	r3, [r3, #0]
 80004ec:	f003 5380 	and.w	r3, r3, #268435456	; 0x10000000
 80004f0:	2b00      	cmp	r3, #0
 80004f2:	d0f9      	beq.n	80004e8 <bsp_clk_sys_init+0x2c>
 80004f4:	4a27      	ldr	r2, [pc, #156]	; (8000594 <bsp_clk_sys_init+0xd8>)
 80004f6:	4b27      	ldr	r3, [pc, #156]	; (8000594 <bsp_clk_sys_init+0xd8>)
 80004f8:	681b      	ldr	r3, [r3, #0]
 80004fa:	f443 4380 	orr.w	r3, r3, #16384	; 0x4000
 80004fe:	6013      	str	r3, [r2, #0]
 8000500:	bf00      	nop
 8000502:	4b24      	ldr	r3, [pc, #144]	; (8000594 <bsp_clk_sys_init+0xd8>)
 8000504:	681b      	ldr	r3, [r3, #0]
 8000506:	f403 4380 	and.w	r3, r3, #16384	; 0x4000
 800050a:	2b00      	cmp	r3, #0
 800050c:	d0f9      	beq.n	8000502 <bsp_clk_sys_init+0x46>
 800050e:	f44f 4000 	mov.w	r0, #32768	; 0x8000
 8000512:	f000 fa91 	bl	8000a38 <bsp_pwr_set_scaling>
 8000516:	4603      	mov	r3, r0
 8000518:	71fb      	strb	r3, [r7, #7]
 800051a:	79fb      	ldrb	r3, [r7, #7]
 800051c:	2b00      	cmp	r3, #0
 800051e:	d001      	beq.n	8000524 <bsp_clk_sys_init+0x68>
 8000520:	79fb      	ldrb	r3, [r7, #7]
 8000522:	e02d      	b.n	8000580 <bsp_clk_sys_init+0xc4>
 8000524:	2002      	movs	r0, #2
 8000526:	f000 f911 	bl	800074c <bsp_flash_set_latency>
 800052a:	4603      	mov	r3, r0
 800052c:	71fb      	strb	r3, [r7, #7]
 800052e:	79fb      	ldrb	r3, [r7, #7]
 8000530:	2b00      	cmp	r3, #0
 8000532:	d001      	beq.n	8000538 <bsp_clk_sys_init+0x7c>
 8000534:	79fb      	ldrb	r3, [r7, #7]
 8000536:	e023      	b.n	8000580 <bsp_clk_sys_init+0xc4>
 8000538:	f7ff fe78 	bl	800022c <bsp_clk_base_sys_init>
 800053c:	f7ff fe8e 	bl	800025c <bsp_clk_pll_init>
 8000540:	f7ff feb4 	bl	80002ac <bsp_clk_switch_to_pll>
 8000544:	2000      	movs	r0, #0
 8000546:	f7ff ff0d 	bl	8000364 <bsp_clk_gpio_enable>
 800054a:	4603      	mov	r3, r0
 800054c:	71fb      	strb	r3, [r7, #7]
 800054e:	79fb      	ldrb	r3, [r7, #7]
 8000550:	2b00      	cmp	r3, #0
 8000552:	d001      	beq.n	8000558 <bsp_clk_sys_init+0x9c>
 8000554:	79fb      	ldrb	r3, [r7, #7]
 8000556:	e013      	b.n	8000580 <bsp_clk_sys_init+0xc4>
 8000558:	2001      	movs	r0, #1
 800055a:	f7ff ff59 	bl	8000410 <bsp_clk_usart_enable>
 800055e:	4603      	mov	r3, r0
 8000560:	71fb      	strb	r3, [r7, #7]
 8000562:	79fb      	ldrb	r3, [r7, #7]
 8000564:	2b00      	cmp	r3, #0
 8000566:	d001      	beq.n	800056c <bsp_clk_sys_init+0xb0>
 8000568:	79fb      	ldrb	r3, [r7, #7]
 800056a:	e009      	b.n	8000580 <bsp_clk_sys_init+0xc4>
 800056c:	2300      	movs	r3, #0
 800056e:	2200      	movs	r2, #0
 8000570:	2100      	movs	r1, #0
 8000572:	4809      	ldr	r0, [pc, #36]	; (8000598 <bsp_clk_sys_init+0xdc>)
 8000574:	f001 f818 	bl	80015a8 <KERNEL_LOG_INFO>
 8000578:	4b03      	ldr	r3, [pc, #12]	; (8000588 <bsp_clk_sys_init+0xcc>)
 800057a:	2201      	movs	r2, #1
 800057c:	701a      	strb	r2, [r3, #0]
 800057e:	2300      	movs	r3, #0
 8000580:	4618      	mov	r0, r3
 8000582:	3708      	adds	r7, #8
 8000584:	46bd      	mov	sp, r7
 8000586:	bd80      	pop	{r7, pc}
 8000588:	20000004 	andcs	r0, r0, r4
 800058c:	080017cc 	stmdaeq	r0, {r2, r3, r6, r7, r8, r9, sl, ip}
 8000590:	40023840 	andmi	r3, r2, r0, asr #16
 8000594:	40023844 	andmi	r3, r2, r4, asr #16
 8000598:	080017f0 	stmdaeq	r0, {r4, r5, r6, r7, r8, r9, sl, ip}

0800059c <bsp_clocks_get_freq>:
 800059c:	b580      	push	{r7, lr}
 800059e:	b084      	sub	sp, #16
 80005a0:	af00      	add	r7, sp, #0
 80005a2:	4603      	mov	r3, r0
 80005a4:	71fb      	strb	r3, [r7, #7]
 80005a6:	4b47      	ldr	r3, [pc, #284]	; (80006c4 <bsp_clocks_get_freq+0x128>)
 80005a8:	681b      	ldr	r3, [r3, #0]
 80005aa:	f003 030c 	and.w	r3, r3, #12
 80005ae:	2b08      	cmp	r3, #8
 80005b0:	d104      	bne.n	80005bc <bsp_clocks_get_freq+0x20>
 80005b2:	f7ff fea1 	bl	80002f8 <bsp_clock_get_pll_freq>
 80005b6:	4603      	mov	r3, r0
 80005b8:	60bb      	str	r3, [r7, #8]
 80005ba:	e013      	b.n	80005e4 <bsp_clocks_get_freq+0x48>
 80005bc:	4b41      	ldr	r3, [pc, #260]	; (80006c4 <bsp_clocks_get_freq+0x128>)
 80005be:	681b      	ldr	r3, [r3, #0]
 80005c0:	f003 030c 	and.w	r3, r3, #12
 80005c4:	2b00      	cmp	r3, #0
 80005c6:	d102      	bne.n	80005ce <bsp_clocks_get_freq+0x32>
 80005c8:	4b3f      	ldr	r3, [pc, #252]	; (80006c8 <bsp_clocks_get_freq+0x12c>)
 80005ca:	60bb      	str	r3, [r7, #8]
 80005cc:	e00a      	b.n	80005e4 <bsp_clocks_get_freq+0x48>
 80005ce:	4b3d      	ldr	r3, [pc, #244]	; (80006c4 <bsp_clocks_get_freq+0x128>)
 80005d0:	681b      	ldr	r3, [r3, #0]
 80005d2:	f003 030c 	and.w	r3, r3, #12
 80005d6:	2b04      	cmp	r3, #4
 80005d8:	d102      	bne.n	80005e0 <bsp_clocks_get_freq+0x44>
 80005da:	2300      	movs	r3, #0
 80005dc:	60bb      	str	r3, [r7, #8]
 80005de:	e001      	b.n	80005e4 <bsp_clocks_get_freq+0x48>
 80005e0:	2300      	movs	r3, #0
 80005e2:	e06b      	b.n	80006bc <bsp_clocks_get_freq+0x120>
 80005e4:	4b37      	ldr	r3, [pc, #220]	; (80006c4 <bsp_clocks_get_freq+0x128>)
 80005e6:	681b      	ldr	r3, [r3, #0]
 80005e8:	f003 0380 	and.w	r3, r3, #128	; 0x80
 80005ec:	2b00      	cmp	r3, #0
 80005ee:	d00d      	beq.n	800060c <bsp_clocks_get_freq+0x70>
 80005f0:	4b34      	ldr	r3, [pc, #208]	; (80006c4 <bsp_clocks_get_freq+0x128>)
 80005f2:	681b      	ldr	r3, [r3, #0]
 80005f4:	091b      	lsrs	r3, r3, #4
 80005f6:	f003 0307 	and.w	r3, r3, #7
 80005fa:	60fb      	str	r3, [r7, #12]
 80005fc:	68bb      	ldr	r3, [r7, #8]
 80005fe:	4933      	ldr	r1, [pc, #204]	; (80006cc <bsp_clocks_get_freq+0x130>)
 8000600:	68fa      	ldr	r2, [r7, #12]
 8000602:	f831 2012 	ldrh.w	r2, [r1, r2, lsl #1]
 8000606:	fbb3 f3f2 	udiv	r3, r3, r2
 800060a:	60bb      	str	r3, [r7, #8]
 800060c:	79fb      	ldrb	r3, [r7, #7]
 800060e:	2b01      	cmp	r3, #1
 8000610:	d002      	beq.n	8000618 <bsp_clocks_get_freq+0x7c>
 8000612:	79fb      	ldrb	r3, [r7, #7]
 8000614:	2b02      	cmp	r3, #2
 8000616:	d101      	bne.n	800061c <bsp_clocks_get_freq+0x80>
 8000618:	68bb      	ldr	r3, [r7, #8]
 800061a:	e04f      	b.n	80006bc <bsp_clocks_get_freq+0x120>
 800061c:	79fb      	ldrb	r3, [r7, #7]
 800061e:	2b03      	cmp	r3, #3
 8000620:	d002      	beq.n	8000628 <bsp_clocks_get_freq+0x8c>
 8000622:	79fb      	ldrb	r3, [r7, #7]
 8000624:	2b05      	cmp	r3, #5
 8000626:	d11a      	bne.n	800065e <bsp_clocks_get_freq+0xc2>
 8000628:	4b26      	ldr	r3, [pc, #152]	; (80006c4 <bsp_clocks_get_freq+0x128>)
 800062a:	681b      	ldr	r3, [r3, #0]
 800062c:	f403 5380 	and.w	r3, r3, #4096	; 0x1000
 8000630:	2b00      	cmp	r3, #0
 8000632:	d038      	beq.n	80006a6 <bsp_clocks_get_freq+0x10a>
 8000634:	4b23      	ldr	r3, [pc, #140]	; (80006c4 <bsp_clocks_get_freq+0x128>)
 8000636:	681b      	ldr	r3, [r3, #0]
 8000638:	0a9b      	lsrs	r3, r3, #10
 800063a:	f003 0303 	and.w	r3, r3, #3
 800063e:	60fb      	str	r3, [r7, #12]
 8000640:	68bb      	ldr	r3, [r7, #8]
 8000642:	4923      	ldr	r1, [pc, #140]	; (80006d0 <bsp_clocks_get_freq+0x134>)
 8000644:	68fa      	ldr	r2, [r7, #12]
 8000646:	440a      	add	r2, r1
 8000648:	7812      	ldrb	r2, [r2, #0]
 800064a:	fbb3 f3f2 	udiv	r3, r3, r2
 800064e:	60bb      	str	r3, [r7, #8]
 8000650:	79fb      	ldrb	r3, [r7, #7]
 8000652:	2b05      	cmp	r3, #5
 8000654:	d127      	bne.n	80006a6 <bsp_clocks_get_freq+0x10a>
 8000656:	68bb      	ldr	r3, [r7, #8]
 8000658:	005b      	lsls	r3, r3, #1
 800065a:	60bb      	str	r3, [r7, #8]
 800065c:	e023      	b.n	80006a6 <bsp_clocks_get_freq+0x10a>
 800065e:	79fb      	ldrb	r3, [r7, #7]
 8000660:	2b04      	cmp	r3, #4
 8000662:	d002      	beq.n	800066a <bsp_clocks_get_freq+0xce>
 8000664:	79fb      	ldrb	r3, [r7, #7]
 8000666:	2b06      	cmp	r3, #6
 8000668:	d11a      	bne.n	80006a0 <bsp_clocks_get_freq+0x104>
 800066a:	4b16      	ldr	r3, [pc, #88]	; (80006c4 <bsp_clocks_get_freq+0x128>)
 800066c:	681b      	ldr	r3, [r3, #0]
 800066e:	f403 4300 	and.w	r3, r3, #32768	; 0x8000
 8000672:	2b00      	cmp	r3, #0
 8000674:	d019      	beq.n	80006aa <bsp_clocks_get_freq+0x10e>
 8000676:	4b13      	ldr	r3, [pc, #76]	; (80006c4 <bsp_clocks_get_freq+0x128>)
 8000678:	681b      	ldr	r3, [r3, #0]
 800067a:	0b5b      	lsrs	r3, r3, #13
 800067c:	f003 0303 	and.w	r3, r3, #3
 8000680:	60fb      	str	r3, [r7, #12]
 8000682:	68bb      	ldr	r3, [r7, #8]
 8000684:	4912      	ldr	r1, [pc, #72]	; (80006d0 <bsp_clocks_get_freq+0x134>)
 8000686:	68fa      	ldr	r2, [r7, #12]
 8000688:	440a      	add	r2, r1
 800068a:	7812      	ldrb	r2, [r2, #0]
 800068c:	fbb3 f3f2 	udiv	r3, r3, r2
 8000690:	60bb      	str	r3, [r7, #8]
 8000692:	79fb      	ldrb	r3, [r7, #7]
 8000694:	2b06      	cmp	r3, #6
 8000696:	d108      	bne.n	80006aa <bsp_clocks_get_freq+0x10e>
 8000698:	68bb      	ldr	r3, [r7, #8]
 800069a:	005b      	lsls	r3, r3, #1
 800069c:	60bb      	str	r3, [r7, #8]
 800069e:	e004      	b.n	80006aa <bsp_clocks_get_freq+0x10e>
 80006a0:	2300      	movs	r3, #0
 80006a2:	60bb      	str	r3, [r7, #8]
 80006a4:	e002      	b.n	80006ac <bsp_clocks_get_freq+0x110>
 80006a6:	bf00      	nop
 80006a8:	e000      	b.n	80006ac <bsp_clocks_get_freq+0x110>
 80006aa:	bf00      	nop
 80006ac:	f107 0108 	add.w	r1, r7, #8
 80006b0:	2300      	movs	r3, #0
 80006b2:	2204      	movs	r2, #4
 80006b4:	4807      	ldr	r0, [pc, #28]	; (80006d4 <bsp_clocks_get_freq+0x138>)
 80006b6:	f000 ff77 	bl	80015a8 <KERNEL_LOG_INFO>
 80006ba:	68bb      	ldr	r3, [r7, #8]
 80006bc:	4618      	mov	r0, r3
 80006be:	3710      	adds	r7, #16
 80006c0:	46bd      	mov	sp, r7
 80006c2:	bd80      	pop	{r7, pc}
 80006c4:	40023808 	andmi	r3, r2, r8, lsl #16
 80006c8:	00f42400 	rscseq	r2, r4, r0, lsl #8
 80006cc:	08001760 	stmdaeq	r0, {r5, r6, r8, r9, sl, ip}
 80006d0:	08001770 	stmdaeq	r0, {r4, r5, r6, r8, r9, sl, ip}
 80006d4:	0800180c 	stmdaeq	r0, {r2, r3, fp, ip}

080006d8 <bsp_get_cpu_freq>:
 80006d8:	b580      	push	{r7, lr}
 80006da:	b082      	sub	sp, #8
 80006dc:	af00      	add	r7, sp, #0
 80006de:	6078      	str	r0, [r7, #4]
 80006e0:	2001      	movs	r0, #1
 80006e2:	f7ff ff5b 	bl	800059c <bsp_clocks_get_freq>
 80006e6:	4602      	mov	r2, r0
 80006e8:	687b      	ldr	r3, [r7, #4]
 80006ea:	601a      	str	r2, [r3, #0]
 80006ec:	687b      	ldr	r3, [r7, #4]
 80006ee:	681b      	ldr	r3, [r3, #0]
 80006f0:	2b00      	cmp	r3, #0
 80006f2:	d107      	bne.n	8000704 <bsp_get_cpu_freq+0x2c>
 80006f4:	2306      	movs	r3, #6
 80006f6:	2200      	movs	r2, #0
 80006f8:	2100      	movs	r1, #0
 80006fa:	4805      	ldr	r0, [pc, #20]	; (8000710 <bsp_get_cpu_freq+0x38>)
 80006fc:	f000 ff94 	bl	8001628 <KERNEL_LOG_ERROR>
 8000700:	2306      	movs	r3, #6
 8000702:	e000      	b.n	8000706 <bsp_get_cpu_freq+0x2e>
 8000704:	2300      	movs	r3, #0
 8000706:	4618      	mov	r0, r3
 8000708:	3708      	adds	r7, #8
 800070a:	46bd      	mov	sp, r7
 800070c:	bd80      	pop	{r7, pc}
 800070e:	bf00      	nop
 8000710:	08001830 	stmdaeq	r0, {r4, r5, fp, ip}

08000714 <bsp_flash_cache_enable>:
 8000714:	b580      	push	{r7, lr}
 8000716:	af00      	add	r7, sp, #0
 8000718:	4a04      	ldr	r2, [pc, #16]	; (800072c <bsp_flash_cache_enable+0x18>)
 800071a:	4b04      	ldr	r3, [pc, #16]	; (800072c <bsp_flash_cache_enable+0x18>)
 800071c:	681b      	ldr	r3, [r3, #0]
 800071e:	f443 63c0 	orr.w	r3, r3, #1536	; 0x600
 8000722:	6013      	str	r3, [r2, #0]
 8000724:	f7ff fd7c 	bl	8000220 <cpu_mem_barrier>
 8000728:	bf00      	nop
 800072a:	bd80      	pop	{r7, pc}
 800072c:	40023c00 	andmi	r3, r2, r0, lsl #24

08000730 <bsp_flash_prefetch_enable>:
 8000730:	b580      	push	{r7, lr}
 8000732:	af00      	add	r7, sp, #0
 8000734:	4a04      	ldr	r2, [pc, #16]	; (8000748 <bsp_flash_prefetch_enable+0x18>)
 8000736:	4b04      	ldr	r3, [pc, #16]	; (8000748 <bsp_flash_prefetch_enable+0x18>)
 8000738:	681b      	ldr	r3, [r3, #0]
 800073a:	f443 7380 	orr.w	r3, r3, #256	; 0x100
 800073e:	6013      	str	r3, [r2, #0]
 8000740:	f7ff fd6e 	bl	8000220 <cpu_mem_barrier>
 8000744:	bf00      	nop
 8000746:	bd80      	pop	{r7, pc}
 8000748:	40023c00 	andmi	r3, r2, r0, lsl #24

0800074c <bsp_flash_set_latency>:
 800074c:	b580      	push	{r7, lr}
 800074e:	b082      	sub	sp, #8
 8000750:	af00      	add	r7, sp, #0
 8000752:	4603      	mov	r3, r0
 8000754:	71fb      	strb	r3, [r7, #7]
 8000756:	4a0d      	ldr	r2, [pc, #52]	; (800078c <bsp_flash_set_latency+0x40>)
 8000758:	4b0c      	ldr	r3, [pc, #48]	; (800078c <bsp_flash_set_latency+0x40>)
 800075a:	681b      	ldr	r3, [r3, #0]
 800075c:	f023 030f 	bic.w	r3, r3, #15
 8000760:	79f9      	ldrb	r1, [r7, #7]
 8000762:	430b      	orrs	r3, r1
 8000764:	6013      	str	r3, [r2, #0]
 8000766:	bf00      	nop
 8000768:	4b08      	ldr	r3, [pc, #32]	; (800078c <bsp_flash_set_latency+0x40>)
 800076a:	681b      	ldr	r3, [r3, #0]
 800076c:	f003 030f 	and.w	r3, r3, #15
 8000770:	79fa      	ldrb	r2, [r7, #7]
 8000772:	4293      	cmp	r3, r2
 8000774:	d1f8      	bne.n	8000768 <bsp_flash_set_latency+0x1c>
 8000776:	1df9      	adds	r1, r7, #7
 8000778:	2300      	movs	r3, #0
 800077a:	2201      	movs	r2, #1
 800077c:	4804      	ldr	r0, [pc, #16]	; (8000790 <bsp_flash_set_latency+0x44>)
 800077e:	f000 ff13 	bl	80015a8 <KERNEL_LOG_INFO>
 8000782:	2300      	movs	r3, #0
 8000784:	4618      	mov	r0, r3
 8000786:	3708      	adds	r7, #8
 8000788:	46bd      	mov	sp, r7
 800078a:	bd80      	pop	{r7, pc}
 800078c:	40023c00 	andmi	r3, r2, r0, lsl #24
 8000790:	08001850 	stmdaeq	r0, {r4, r6, fp, ip}

08000794 <bsp_gpio_init>:
 8000794:	b580      	push	{r7, lr}
 8000796:	b086      	sub	sp, #24
 8000798:	af00      	add	r7, sp, #0
 800079a:	4603      	mov	r3, r0
 800079c:	6039      	str	r1, [r7, #0]
 800079e:	71fb      	strb	r3, [r7, #7]
 80007a0:	683b      	ldr	r3, [r7, #0]
 80007a2:	2b00      	cmp	r3, #0
 80007a4:	d107      	bne.n	80007b6 <bsp_gpio_init+0x22>
 80007a6:	2304      	movs	r3, #4
 80007a8:	2200      	movs	r2, #0
 80007aa:	2100      	movs	r1, #0
 80007ac:	4892      	ldr	r0, [pc, #584]	; (80009f8 <bsp_gpio_init+0x264>)
 80007ae:	f000 ff3b 	bl	8001628 <KERNEL_LOG_ERROR>
 80007b2:	2304      	movs	r3, #4
 80007b4:	e11b      	b.n	80009ee <bsp_gpio_init+0x25a>
 80007b6:	683b      	ldr	r3, [r7, #0]
 80007b8:	789b      	ldrb	r3, [r3, #2]
 80007ba:	f003 0303 	and.w	r3, r3, #3
 80007be:	60fb      	str	r3, [r7, #12]
 80007c0:	68fb      	ldr	r3, [r7, #12]
 80007c2:	2b03      	cmp	r3, #3
 80007c4:	d011      	beq.n	80007ea <bsp_gpio_init+0x56>
 80007c6:	68fb      	ldr	r3, [r7, #12]
 80007c8:	2b02      	cmp	r3, #2
 80007ca:	d00e      	beq.n	80007ea <bsp_gpio_init+0x56>
 80007cc:	68fb      	ldr	r3, [r7, #12]
 80007ce:	2b01      	cmp	r3, #1
 80007d0:	d00b      	beq.n	80007ea <bsp_gpio_init+0x56>
 80007d2:	68fb      	ldr	r3, [r7, #12]
 80007d4:	2b00      	cmp	r3, #0
 80007d6:	d008      	beq.n	80007ea <bsp_gpio_init+0x56>
 80007d8:	683b      	ldr	r3, [r7, #0]
 80007da:	1c99      	adds	r1, r3, #2
 80007dc:	2301      	movs	r3, #1
 80007de:	2201      	movs	r2, #1
 80007e0:	4886      	ldr	r0, [pc, #536]	; (80009fc <bsp_gpio_init+0x268>)
 80007e2:	f000 ff21 	bl	8001628 <KERNEL_LOG_ERROR>
 80007e6:	2301      	movs	r3, #1
 80007e8:	e101      	b.n	80009ee <bsp_gpio_init+0x25a>
 80007ea:	683b      	ldr	r3, [r7, #0]
 80007ec:	789b      	ldrb	r3, [r3, #2]
 80007ee:	f003 0304 	and.w	r3, r3, #4
 80007f2:	60fb      	str	r3, [r7, #12]
 80007f4:	68fb      	ldr	r3, [r7, #12]
 80007f6:	2b04      	cmp	r3, #4
 80007f8:	d00b      	beq.n	8000812 <bsp_gpio_init+0x7e>
 80007fa:	68fb      	ldr	r3, [r7, #12]
 80007fc:	2b00      	cmp	r3, #0
 80007fe:	d008      	beq.n	8000812 <bsp_gpio_init+0x7e>
 8000800:	683b      	ldr	r3, [r7, #0]
 8000802:	1c99      	adds	r1, r3, #2
 8000804:	2301      	movs	r3, #1
 8000806:	2201      	movs	r2, #1
 8000808:	487c      	ldr	r0, [pc, #496]	; (80009fc <bsp_gpio_init+0x268>)
 800080a:	f000 ff0d 	bl	8001628 <KERNEL_LOG_ERROR>
 800080e:	2301      	movs	r3, #1
 8000810:	e0ed      	b.n	80009ee <bsp_gpio_init+0x25a>
 8000812:	683b      	ldr	r3, [r7, #0]
 8000814:	789b      	ldrb	r3, [r3, #2]
 8000816:	f003 0318 	and.w	r3, r3, #24
 800081a:	60fb      	str	r3, [r7, #12]
 800081c:	68fb      	ldr	r3, [r7, #12]
 800081e:	2b10      	cmp	r3, #16
 8000820:	d00e      	beq.n	8000840 <bsp_gpio_init+0xac>
 8000822:	68fb      	ldr	r3, [r7, #12]
 8000824:	2b08      	cmp	r3, #8
 8000826:	d00b      	beq.n	8000840 <bsp_gpio_init+0xac>
 8000828:	68fb      	ldr	r3, [r7, #12]
 800082a:	2b00      	cmp	r3, #0
 800082c:	d008      	beq.n	8000840 <bsp_gpio_init+0xac>
 800082e:	683b      	ldr	r3, [r7, #0]
 8000830:	1c99      	adds	r1, r3, #2
 8000832:	2301      	movs	r3, #1
 8000834:	2201      	movs	r2, #1
 8000836:	4871      	ldr	r0, [pc, #452]	; (80009fc <bsp_gpio_init+0x268>)
 8000838:	f000 fef6 	bl	8001628 <KERNEL_LOG_ERROR>
 800083c:	2301      	movs	r3, #1
 800083e:	e0d6      	b.n	80009ee <bsp_gpio_init+0x25a>
 8000840:	683b      	ldr	r3, [r7, #0]
 8000842:	78db      	ldrb	r3, [r3, #3]
 8000844:	2b03      	cmp	r3, #3
 8000846:	d908      	bls.n	800085a <bsp_gpio_init+0xc6>
 8000848:	683b      	ldr	r3, [r7, #0]
 800084a:	1cd9      	adds	r1, r3, #3
 800084c:	2301      	movs	r3, #1
 800084e:	2201      	movs	r2, #1
 8000850:	486b      	ldr	r0, [pc, #428]	; (8000a00 <bsp_gpio_init+0x26c>)
 8000852:	f000 fee9 	bl	8001628 <KERNEL_LOG_ERROR>
 8000856:	2301      	movs	r3, #1
 8000858:	e0c9      	b.n	80009ee <bsp_gpio_init+0x25a>
 800085a:	683b      	ldr	r3, [r7, #0]
 800085c:	791b      	ldrb	r3, [r3, #4]
 800085e:	2b0f      	cmp	r3, #15
 8000860:	d908      	bls.n	8000874 <bsp_gpio_init+0xe0>
 8000862:	683b      	ldr	r3, [r7, #0]
 8000864:	1d19      	adds	r1, r3, #4
 8000866:	2301      	movs	r3, #1
 8000868:	2201      	movs	r2, #1
 800086a:	4866      	ldr	r0, [pc, #408]	; (8000a04 <bsp_gpio_init+0x270>)
 800086c:	f000 fedc 	bl	8001628 <KERNEL_LOG_ERROR>
 8000870:	2301      	movs	r3, #1
 8000872:	e0bc      	b.n	80009ee <bsp_gpio_init+0x25a>
 8000874:	2300      	movs	r3, #0
 8000876:	74fb      	strb	r3, [r7, #19]
 8000878:	e0ae      	b.n	80009d8 <bsp_gpio_init+0x244>
 800087a:	683b      	ldr	r3, [r7, #0]
 800087c:	881b      	ldrh	r3, [r3, #0]
 800087e:	461a      	mov	r2, r3
 8000880:	7cfb      	ldrb	r3, [r7, #19]
 8000882:	fa42 f303 	asr.w	r3, r2, r3
 8000886:	f003 0301 	and.w	r3, r3, #1
 800088a:	2b00      	cmp	r3, #0
 800088c:	f000 80a1 	beq.w	80009d2 <bsp_gpio_init+0x23e>
 8000890:	683b      	ldr	r3, [r7, #0]
 8000892:	789b      	ldrb	r3, [r3, #2]
 8000894:	f003 0303 	and.w	r3, r3, #3
 8000898:	2b01      	cmp	r3, #1
 800089a:	d005      	beq.n	80008a8 <bsp_gpio_init+0x114>
 800089c:	683b      	ldr	r3, [r7, #0]
 800089e:	789b      	ldrb	r3, [r3, #2]
 80008a0:	f003 0303 	and.w	r3, r3, #3
 80008a4:	2b02      	cmp	r3, #2
 80008a6:	d132      	bne.n	800090e <bsp_gpio_init+0x17a>
 80008a8:	79fb      	ldrb	r3, [r7, #7]
 80008aa:	f503 1380 	add.w	r3, r3, #1048576	; 0x100000
 80008ae:	3380      	adds	r3, #128	; 0x80
 80008b0:	029b      	lsls	r3, r3, #10
 80008b2:	3304      	adds	r3, #4
 80008b4:	617b      	str	r3, [r7, #20]
 80008b6:	697b      	ldr	r3, [r7, #20]
 80008b8:	681b      	ldr	r3, [r3, #0]
 80008ba:	7cfa      	ldrb	r2, [r7, #19]
 80008bc:	2101      	movs	r1, #1
 80008be:	fa01 f202 	lsl.w	r2, r1, r2
 80008c2:	43d2      	mvns	r2, r2
 80008c4:	4013      	ands	r3, r2
 80008c6:	683a      	ldr	r2, [r7, #0]
 80008c8:	7892      	ldrb	r2, [r2, #2]
 80008ca:	f002 0103 	and.w	r1, r2, #3
 80008ce:	7cfa      	ldrb	r2, [r7, #19]
 80008d0:	fa01 f202 	lsl.w	r2, r1, r2
 80008d4:	431a      	orrs	r2, r3
 80008d6:	697b      	ldr	r3, [r7, #20]
 80008d8:	601a      	str	r2, [r3, #0]
 80008da:	79fb      	ldrb	r3, [r7, #7]
 80008dc:	f503 1380 	add.w	r3, r3, #1048576	; 0x100000
 80008e0:	3380      	adds	r3, #128	; 0x80
 80008e2:	029b      	lsls	r3, r3, #10
 80008e4:	3308      	adds	r3, #8
 80008e6:	617b      	str	r3, [r7, #20]
 80008e8:	697b      	ldr	r3, [r7, #20]
 80008ea:	681b      	ldr	r3, [r3, #0]
 80008ec:	7cfa      	ldrb	r2, [r7, #19]
 80008ee:	0052      	lsls	r2, r2, #1
 80008f0:	2101      	movs	r1, #1
 80008f2:	fa01 f202 	lsl.w	r2, r1, r2
 80008f6:	43d2      	mvns	r2, r2
 80008f8:	4013      	ands	r3, r2
 80008fa:	683a      	ldr	r2, [r7, #0]
 80008fc:	78d2      	ldrb	r2, [r2, #3]
 80008fe:	4611      	mov	r1, r2
 8000900:	7cfa      	ldrb	r2, [r7, #19]
 8000902:	0052      	lsls	r2, r2, #1
 8000904:	fa01 f202 	lsl.w	r2, r1, r2
 8000908:	431a      	orrs	r2, r3
 800090a:	697b      	ldr	r3, [r7, #20]
 800090c:	601a      	str	r2, [r3, #0]
 800090e:	683b      	ldr	r3, [r7, #0]
 8000910:	789b      	ldrb	r3, [r3, #2]
 8000912:	f003 0303 	and.w	r3, r3, #3
 8000916:	2b02      	cmp	r3, #2
 8000918:	d126      	bne.n	8000968 <bsp_gpio_init+0x1d4>
 800091a:	7cfb      	ldrb	r3, [r7, #19]
 800091c:	2b07      	cmp	r3, #7
 800091e:	d907      	bls.n	8000930 <bsp_gpio_init+0x19c>
 8000920:	79fb      	ldrb	r3, [r7, #7]
 8000922:	f503 1380 	add.w	r3, r3, #1048576	; 0x100000
 8000926:	3380      	adds	r3, #128	; 0x80
 8000928:	029b      	lsls	r3, r3, #10
 800092a:	3324      	adds	r3, #36	; 0x24
 800092c:	617b      	str	r3, [r7, #20]
 800092e:	e006      	b.n	800093e <bsp_gpio_init+0x1aa>
 8000930:	79fb      	ldrb	r3, [r7, #7]
 8000932:	f503 1380 	add.w	r3, r3, #1048576	; 0x100000
 8000936:	3380      	adds	r3, #128	; 0x80
 8000938:	029b      	lsls	r3, r3, #10
 800093a:	3320      	adds	r3, #32
 800093c:	617b      	str	r3, [r7, #20]
 800093e:	697b      	ldr	r3, [r7, #20]
 8000940:	681b      	ldr	r3, [r3, #0]
 8000942:	7cfa      	ldrb	r2, [r7, #19]
 8000944:	0092      	lsls	r2, r2, #2
 8000946:	2101      	movs	r1, #1
 8000948:	fa01 f202 	lsl.w	r2, r1, r2
 800094c:	43d2      	mvns	r2, r2
 800094e:	4013      	ands	r3, r2
 8000950:	683a      	ldr	r2, [r7, #0]
 8000952:	7912      	ldrb	r2, [r2, #4]
 8000954:	4611      	mov	r1, r2
 8000956:	7cfa      	ldrb	r2, [r7, #19]
 8000958:	f002 0207 	and.w	r2, r2, #7
 800095c:	0092      	lsls	r2, r2, #2
 800095e:	fa01 f202 	lsl.w	r2, r1, r2
 8000962:	431a      	orrs	r2, r3
 8000964:	697b      	ldr	r3, [r7, #20]
 8000966:	601a      	str	r2, [r3, #0]
 8000968:	79fb      	ldrb	r3, [r7, #7]
 800096a:	f503 1380 	add.w	r3, r3, #1048576	; 0x100000
 800096e:	3380      	adds	r3, #128	; 0x80
 8000970:	029b      	lsls	r3, r3, #10
 8000972:	617b      	str	r3, [r7, #20]
 8000974:	697b      	ldr	r3, [r7, #20]
 8000976:	681b      	ldr	r3, [r3, #0]
 8000978:	7cfa      	ldrb	r2, [r7, #19]
 800097a:	0052      	lsls	r2, r2, #1
 800097c:	2101      	movs	r1, #1
 800097e:	fa01 f202 	lsl.w	r2, r1, r2
 8000982:	43d2      	mvns	r2, r2
 8000984:	4013      	ands	r3, r2
 8000986:	683a      	ldr	r2, [r7, #0]
 8000988:	7892      	ldrb	r2, [r2, #2]
 800098a:	4611      	mov	r1, r2
 800098c:	7cfa      	ldrb	r2, [r7, #19]
 800098e:	0052      	lsls	r2, r2, #1
 8000990:	fa01 f202 	lsl.w	r2, r1, r2
 8000994:	431a      	orrs	r2, r3
 8000996:	697b      	ldr	r3, [r7, #20]
 8000998:	601a      	str	r2, [r3, #0]
 800099a:	79fb      	ldrb	r3, [r7, #7]
 800099c:	f503 1380 	add.w	r3, r3, #1048576	; 0x100000
 80009a0:	3380      	adds	r3, #128	; 0x80
 80009a2:	029b      	lsls	r3, r3, #10
 80009a4:	330c      	adds	r3, #12
 80009a6:	617b      	str	r3, [r7, #20]
 80009a8:	697b      	ldr	r3, [r7, #20]
 80009aa:	681b      	ldr	r3, [r3, #0]
 80009ac:	7cfa      	ldrb	r2, [r7, #19]
 80009ae:	0052      	lsls	r2, r2, #1
 80009b0:	2101      	movs	r1, #1
 80009b2:	fa01 f202 	lsl.w	r2, r1, r2
 80009b6:	43d2      	mvns	r2, r2
 80009b8:	4013      	ands	r3, r2
 80009ba:	683a      	ldr	r2, [r7, #0]
 80009bc:	7892      	ldrb	r2, [r2, #2]
 80009be:	10d2      	asrs	r2, r2, #3
 80009c0:	f002 0103 	and.w	r1, r2, #3
 80009c4:	7cfa      	ldrb	r2, [r7, #19]
 80009c6:	0052      	lsls	r2, r2, #1
 80009c8:	fa01 f202 	lsl.w	r2, r1, r2
 80009cc:	431a      	orrs	r2, r3
 80009ce:	697b      	ldr	r3, [r7, #20]
 80009d0:	601a      	str	r2, [r3, #0]
 80009d2:	7cfb      	ldrb	r3, [r7, #19]
 80009d4:	3301      	adds	r3, #1
 80009d6:	74fb      	strb	r3, [r7, #19]
 80009d8:	7cfb      	ldrb	r3, [r7, #19]
 80009da:	2b0e      	cmp	r3, #14
 80009dc:	f67f af4d 	bls.w	800087a <bsp_gpio_init+0xe6>
 80009e0:	1df9      	adds	r1, r7, #7
 80009e2:	2300      	movs	r3, #0
 80009e4:	2201      	movs	r2, #1
 80009e6:	4808      	ldr	r0, [pc, #32]	; (8000a08 <bsp_gpio_init+0x274>)
 80009e8:	f000 fdde 	bl	80015a8 <KERNEL_LOG_INFO>
 80009ec:	2300      	movs	r3, #0
 80009ee:	4618      	mov	r0, r3
 80009f0:	3718      	adds	r7, #24
 80009f2:	46bd      	mov	sp, r7
 80009f4:	bd80      	pop	{r7, pc}
 80009f6:	bf00      	nop
 80009f8:	08001868 	stmdaeq	r0, {r3, r5, r6, fp, ip}
 80009fc:	08001888 	stmdaeq	r0, {r3, r7, fp, ip}
 8000a00:	080018a0 	stmdaeq	r0, {r5, r7, fp, ip}
 8000a04:	080018b4 	stmdaeq	r0, {r2, r4, r5, r7, fp, ip}
 8000a08:	080018d8 	stmdaeq	r0, {r3, r4, r6, r7, fp, ip}

08000a0c <__bsp_init>:
 8000a0c:	b500      	push	{lr}
 8000a0e:	f7ff fe81 	bl	8000714 <bsp_flash_cache_enable>
 8000a12:	f7ff fe8d 	bl	8000730 <bsp_flash_prefetch_enable>
 8000a16:	f7ff fd51 	bl	80004bc <bsp_clk_sys_init>
 8000a1a:	bd00      	pop	{pc}

08000a1c <bsp_logger_write_hook>:
 8000a1c:	b580      	push	{r7, lr}
 8000a1e:	b082      	sub	sp, #8
 8000a20:	af00      	add	r7, sp, #0
 8000a22:	6078      	str	r0, [r7, #4]
 8000a24:	6039      	str	r1, [r7, #0]
 8000a26:	6839      	ldr	r1, [r7, #0]
 8000a28:	6878      	ldr	r0, [r7, #4]
 8000a2a:	f000 fb5f 	bl	80010ec <serial_write>
 8000a2e:	bf00      	nop
 8000a30:	3708      	adds	r7, #8
 8000a32:	46bd      	mov	sp, r7
 8000a34:	bd80      	pop	{r7, pc}
	...

08000a38 <bsp_pwr_set_scaling>:
 8000a38:	b580      	push	{r7, lr}
 8000a3a:	b082      	sub	sp, #8
 8000a3c:	af00      	add	r7, sp, #0
 8000a3e:	4603      	mov	r3, r0
 8000a40:	80fb      	strh	r3, [r7, #6]
 8000a42:	4a0d      	ldr	r2, [pc, #52]	; (8000a78 <bsp_pwr_set_scaling+0x40>)
 8000a44:	4b0c      	ldr	r3, [pc, #48]	; (8000a78 <bsp_pwr_set_scaling+0x40>)
 8000a46:	681b      	ldr	r3, [r3, #0]
 8000a48:	f423 4340 	bic.w	r3, r3, #49152	; 0xc000
 8000a4c:	88f9      	ldrh	r1, [r7, #6]
 8000a4e:	430b      	orrs	r3, r1
 8000a50:	6013      	str	r3, [r2, #0]
 8000a52:	bf00      	nop
 8000a54:	4b08      	ldr	r3, [pc, #32]	; (8000a78 <bsp_pwr_set_scaling+0x40>)
 8000a56:	681b      	ldr	r3, [r3, #0]
 8000a58:	f403 4340 	and.w	r3, r3, #49152	; 0xc000
 8000a5c:	88fa      	ldrh	r2, [r7, #6]
 8000a5e:	4293      	cmp	r3, r2
 8000a60:	d1f8      	bne.n	8000a54 <bsp_pwr_set_scaling+0x1c>
 8000a62:	1db9      	adds	r1, r7, #6
 8000a64:	2300      	movs	r3, #0
 8000a66:	2202      	movs	r2, #2
 8000a68:	4804      	ldr	r0, [pc, #16]	; (8000a7c <bsp_pwr_set_scaling+0x44>)
 8000a6a:	f000 fd9d 	bl	80015a8 <KERNEL_LOG_INFO>
 8000a6e:	2300      	movs	r3, #0
 8000a70:	4618      	mov	r0, r3
 8000a72:	3708      	adds	r7, #8
 8000a74:	46bd      	mov	sp, r7
 8000a76:	bd80      	pop	{r7, pc}
 8000a78:	40007000 	andmi	r7, r0, r0
 8000a7c:	080018ec 	stmdaeq	r0, {r2, r3, r5, r6, r7, fp, ip}

08000a80 <bsp_uart_init>:
 8000a80:	e92d 4ff0 	stmdb	sp!, {r4, r5, r6, r7, r8, r9, sl, fp, lr}
 8000a84:	b09d      	sub	sp, #116	; 0x74
 8000a86:	af00      	add	r7, sp, #0
 8000a88:	4603      	mov	r3, r0
 8000a8a:	64b9      	str	r1, [r7, #72]	; 0x48
 8000a8c:	f887 304f 	strb.w	r3, [r7, #79]	; 0x4f
 8000a90:	f897 304f 	ldrb.w	r3, [r7, #79]	; 0x4f
 8000a94:	2b01      	cmp	r3, #1
 8000a96:	d00d      	beq.n	8000ab4 <bsp_uart_init+0x34>
 8000a98:	2b03      	cmp	r3, #3
 8000a9a:	d014      	beq.n	8000ac6 <bsp_uart_init+0x46>
 8000a9c:	2b00      	cmp	r3, #0
 8000a9e:	d000      	beq.n	8000aa2 <bsp_uart_init+0x22>
 8000aa0:	e1de      	b.n	8000e60 <bsp_uart_init+0x3e0>
 8000aa2:	4b50      	ldr	r3, [pc, #320]	; (8000be4 <bsp_uart_init+0x164>)
 8000aa4:	66fb      	str	r3, [r7, #108]	; 0x6c
 8000aa6:	4b50      	ldr	r3, [pc, #320]	; (8000be8 <bsp_uart_init+0x168>)
 8000aa8:	66bb      	str	r3, [r7, #104]	; 0x68
 8000aaa:	4b50      	ldr	r3, [pc, #320]	; (8000bec <bsp_uart_init+0x16c>)
 8000aac:	667b      	str	r3, [r7, #100]	; 0x64
 8000aae:	4b50      	ldr	r3, [pc, #320]	; (8000bf0 <bsp_uart_init+0x170>)
 8000ab0:	663b      	str	r3, [r7, #96]	; 0x60
 8000ab2:	e011      	b.n	8000ad8 <bsp_uart_init+0x58>
 8000ab4:	4b4f      	ldr	r3, [pc, #316]	; (8000bf4 <bsp_uart_init+0x174>)
 8000ab6:	66fb      	str	r3, [r7, #108]	; 0x6c
 8000ab8:	4b4f      	ldr	r3, [pc, #316]	; (8000bf8 <bsp_uart_init+0x178>)
 8000aba:	66bb      	str	r3, [r7, #104]	; 0x68
 8000abc:	4b4f      	ldr	r3, [pc, #316]	; (8000bfc <bsp_uart_init+0x17c>)
 8000abe:	667b      	str	r3, [r7, #100]	; 0x64
 8000ac0:	4b4f      	ldr	r3, [pc, #316]	; (8000c00 <bsp_uart_init+0x180>)
 8000ac2:	663b      	str	r3, [r7, #96]	; 0x60
 8000ac4:	e008      	b.n	8000ad8 <bsp_uart_init+0x58>
 8000ac6:	4b4f      	ldr	r3, [pc, #316]	; (8000c04 <bsp_uart_init+0x184>)
 8000ac8:	66fb      	str	r3, [r7, #108]	; 0x6c
 8000aca:	4b4f      	ldr	r3, [pc, #316]	; (8000c08 <bsp_uart_init+0x188>)
 8000acc:	66bb      	str	r3, [r7, #104]	; 0x68
 8000ace:	4b4f      	ldr	r3, [pc, #316]	; (8000c0c <bsp_uart_init+0x18c>)
 8000ad0:	667b      	str	r3, [r7, #100]	; 0x64
 8000ad2:	4b4f      	ldr	r3, [pc, #316]	; (8000c10 <bsp_uart_init+0x190>)
 8000ad4:	663b      	str	r3, [r7, #96]	; 0x60
 8000ad6:	bf00      	nop
 8000ad8:	6efb      	ldr	r3, [r7, #108]	; 0x6c
 8000ada:	681b      	ldr	r3, [r3, #0]
 8000adc:	f423 421f 	bic.w	r2, r3, #40704	; 0x9f00
 8000ae0:	f022 02ff 	bic.w	r2, r2, #255	; 0xff
 8000ae4:	6efb      	ldr	r3, [r7, #108]	; 0x6c
 8000ae6:	601a      	str	r2, [r3, #0]
 8000ae8:	6efb      	ldr	r3, [r7, #108]	; 0x6c
 8000aea:	681a      	ldr	r2, [r3, #0]
 8000aec:	6cbb      	ldr	r3, [r7, #72]	; 0x48
 8000aee:	791b      	ldrb	r3, [r3, #4]
 8000af0:	2b08      	cmp	r3, #8
 8000af2:	d101      	bne.n	8000af8 <bsp_uart_init+0x78>
 8000af4:	2300      	movs	r3, #0
 8000af6:	e001      	b.n	8000afc <bsp_uart_init+0x7c>
 8000af8:	f44f 5380 	mov.w	r3, #4096	; 0x1000
 8000afc:	431a      	orrs	r2, r3
 8000afe:	6cbb      	ldr	r3, [r7, #72]	; 0x48
 8000b00:	799b      	ldrb	r3, [r3, #6]
 8000b02:	2b02      	cmp	r3, #2
 8000b04:	d003      	beq.n	8000b0e <bsp_uart_init+0x8e>
 8000b06:	6cbb      	ldr	r3, [r7, #72]	; 0x48
 8000b08:	799b      	ldrb	r3, [r3, #6]
 8000b0a:	2b00      	cmp	r3, #0
 8000b0c:	d101      	bne.n	8000b12 <bsp_uart_init+0x92>
 8000b0e:	2300      	movs	r3, #0
 8000b10:	e001      	b.n	8000b16 <bsp_uart_init+0x96>
 8000b12:	f44f 7300 	mov.w	r3, #512	; 0x200
 8000b16:	431a      	orrs	r2, r3
 8000b18:	6cbb      	ldr	r3, [r7, #72]	; 0x48
 8000b1a:	799b      	ldrb	r3, [r3, #6]
 8000b1c:	2b00      	cmp	r3, #0
 8000b1e:	d101      	bne.n	8000b24 <bsp_uart_init+0xa4>
 8000b20:	2300      	movs	r3, #0
 8000b22:	e001      	b.n	8000b28 <bsp_uart_init+0xa8>
 8000b24:	f44f 6380 	mov.w	r3, #1024	; 0x400
 8000b28:	4313      	orrs	r3, r2
 8000b2a:	f043 020c 	orr.w	r2, r3, #12
 8000b2e:	6efb      	ldr	r3, [r7, #108]	; 0x6c
 8000b30:	601a      	str	r2, [r3, #0]
 8000b32:	6ebb      	ldr	r3, [r7, #104]	; 0x68
 8000b34:	681b      	ldr	r3, [r3, #0]
 8000b36:	f423 42fe 	bic.w	r2, r3, #32512	; 0x7f00
 8000b3a:	f022 026f 	bic.w	r2, r2, #111	; 0x6f
 8000b3e:	6ebb      	ldr	r3, [r7, #104]	; 0x68
 8000b40:	601a      	str	r2, [r3, #0]
 8000b42:	6cbb      	ldr	r3, [r7, #72]	; 0x48
 8000b44:	795b      	ldrb	r3, [r3, #5]
 8000b46:	2b02      	cmp	r3, #2
 8000b48:	d00b      	beq.n	8000b62 <bsp_uart_init+0xe2>
 8000b4a:	2b03      	cmp	r3, #3
 8000b4c:	d010      	beq.n	8000b70 <bsp_uart_init+0xf0>
 8000b4e:	2b00      	cmp	r3, #0
 8000b50:	d000      	beq.n	8000b54 <bsp_uart_init+0xd4>
 8000b52:	e014      	b.n	8000b7e <bsp_uart_init+0xfe>
 8000b54:	6ebb      	ldr	r3, [r7, #104]	; 0x68
 8000b56:	681b      	ldr	r3, [r3, #0]
 8000b58:	f443 5280 	orr.w	r2, r3, #4096	; 0x1000
 8000b5c:	6ebb      	ldr	r3, [r7, #104]	; 0x68
 8000b5e:	601a      	str	r2, [r3, #0]
 8000b60:	e00d      	b.n	8000b7e <bsp_uart_init+0xfe>
 8000b62:	6ebb      	ldr	r3, [r7, #104]	; 0x68
 8000b64:	681b      	ldr	r3, [r3, #0]
 8000b66:	f443 5240 	orr.w	r2, r3, #12288	; 0x3000
 8000b6a:	6ebb      	ldr	r3, [r7, #104]	; 0x68
 8000b6c:	601a      	str	r2, [r3, #0]
 8000b6e:	e006      	b.n	8000b7e <bsp_uart_init+0xfe>
 8000b70:	6ebb      	ldr	r3, [r7, #104]	; 0x68
 8000b72:	681b      	ldr	r3, [r3, #0]
 8000b74:	f443 5200 	orr.w	r2, r3, #8192	; 0x2000
 8000b78:	6ebb      	ldr	r3, [r7, #104]	; 0x68
 8000b7a:	601a      	str	r2, [r3, #0]
 8000b7c:	bf00      	nop
 8000b7e:	6e7b      	ldr	r3, [r7, #100]	; 0x64
 8000b80:	681b      	ldr	r3, [r3, #0]
 8000b82:	f423 627f 	bic.w	r2, r3, #4080	; 0xff0
 8000b86:	f022 020f 	bic.w	r2, r2, #15
 8000b8a:	6e7b      	ldr	r3, [r7, #100]	; 0x64
 8000b8c:	601a      	str	r2, [r3, #0]
 8000b8e:	6cbb      	ldr	r3, [r7, #72]	; 0x48
 8000b90:	79db      	ldrb	r3, [r3, #7]
 8000b92:	2b03      	cmp	r3, #3
 8000b94:	d00b      	beq.n	8000bae <bsp_uart_init+0x12e>
 8000b96:	2b04      	cmp	r3, #4
 8000b98:	d010      	beq.n	8000bbc <bsp_uart_init+0x13c>
 8000b9a:	2b02      	cmp	r3, #2
 8000b9c:	d000      	beq.n	8000ba0 <bsp_uart_init+0x120>
 8000b9e:	e014      	b.n	8000bca <bsp_uart_init+0x14a>
 8000ba0:	6e7b      	ldr	r3, [r7, #100]	; 0x64
 8000ba2:	681b      	ldr	r3, [r3, #0]
 8000ba4:	f443 7200 	orr.w	r2, r3, #512	; 0x200
 8000ba8:	6e7b      	ldr	r3, [r7, #100]	; 0x64
 8000baa:	601a      	str	r2, [r3, #0]
 8000bac:	e00d      	b.n	8000bca <bsp_uart_init+0x14a>
 8000bae:	6e7b      	ldr	r3, [r7, #100]	; 0x64
 8000bb0:	681b      	ldr	r3, [r3, #0]
 8000bb2:	f443 7280 	orr.w	r2, r3, #256	; 0x100
 8000bb6:	6e7b      	ldr	r3, [r7, #100]	; 0x64
 8000bb8:	601a      	str	r2, [r3, #0]
 8000bba:	e006      	b.n	8000bca <bsp_uart_init+0x14a>
 8000bbc:	6e7b      	ldr	r3, [r7, #100]	; 0x64
 8000bbe:	681b      	ldr	r3, [r3, #0]
 8000bc0:	f443 7240 	orr.w	r2, r3, #768	; 0x300
 8000bc4:	6e7b      	ldr	r3, [r7, #100]	; 0x64
 8000bc6:	601a      	str	r2, [r3, #0]
 8000bc8:	bf00      	nop
 8000bca:	f897 304f 	ldrb.w	r3, [r7, #79]	; 0x4f
 8000bce:	2b00      	cmp	r3, #0
 8000bd0:	d003      	beq.n	8000bda <bsp_uart_init+0x15a>
 8000bd2:	f897 304f 	ldrb.w	r3, [r7, #79]	; 0x4f
 8000bd6:	2b03      	cmp	r3, #3
 8000bd8:	d11c      	bne.n	8000c14 <bsp_uart_init+0x194>
 8000bda:	2004      	movs	r0, #4
 8000bdc:	f7ff fcde 	bl	800059c <bsp_clocks_get_freq>
 8000be0:	65f8      	str	r0, [r7, #92]	; 0x5c
 8000be2:	e01b      	b.n	8000c1c <bsp_uart_init+0x19c>
 8000be4:	4001100c 	andmi	r1, r1, ip
 8000be8:	40011010 	andmi	r1, r1, r0, lsl r0
 8000bec:	40011014 	andmi	r1, r1, r4, lsl r0
 8000bf0:	40011008 	andmi	r1, r1, r8
 8000bf4:	4000440c 	andmi	r4, r0, ip, lsl #8
 8000bf8:	40004410 	andmi	r4, r0, r0, lsl r4
 8000bfc:	40004414 	andmi	r4, r0, r4, lsl r4
 8000c00:	40004408 	andmi	r4, r0, r8, lsl #8
 8000c04:	4001140c 	andmi	r1, r1, ip, lsl #8
 8000c08:	40011410 	andmi	r1, r1, r0, lsl r4
 8000c0c:	40011414 	andmi	r1, r1, r4, lsl r4
 8000c10:	40011408 	andmi	r1, r1, r8, lsl #8
 8000c14:	2003      	movs	r0, #3
 8000c16:	f7ff fcc1 	bl	800059c <bsp_clocks_get_freq>
 8000c1a:	65f8      	str	r0, [r7, #92]	; 0x5c
 8000c1c:	6dfb      	ldr	r3, [r7, #92]	; 0x5c
 8000c1e:	4618      	mov	r0, r3
 8000c20:	f04f 0100 	mov.w	r1, #0
 8000c24:	6cbb      	ldr	r3, [r7, #72]	; 0x48
 8000c26:	681b      	ldr	r3, [r3, #0]
 8000c28:	f04f 0400 	mov.w	r4, #0
 8000c2c:	ea4f 1904 	mov.w	r9, r4, lsl #4
 8000c30:	ea49 7913 	orr.w	r9, r9, r3, lsr #28
 8000c34:	ea4f 1803 	mov.w	r8, r3, lsl #4
 8000c38:	4642      	mov	r2, r8
 8000c3a:	464b      	mov	r3, r9
 8000c3c:	f000 fd14 	bl	8001668 <__aeabi_uldivmod>
 8000c40:	4603      	mov	r3, r0
 8000c42:	460c      	mov	r4, r1
 8000c44:	65bb      	str	r3, [r7, #88]	; 0x58
 8000c46:	6dfb      	ldr	r3, [r7, #92]	; 0x5c
 8000c48:	4619      	mov	r1, r3
 8000c4a:	f04f 0200 	mov.w	r2, #0
 8000c4e:	460b      	mov	r3, r1
 8000c50:	4614      	mov	r4, r2
 8000c52:	18db      	adds	r3, r3, r3
 8000c54:	eb44 0404 	adc.w	r4, r4, r4
 8000c58:	185b      	adds	r3, r3, r1
 8000c5a:	eb44 0402 	adc.w	r4, r4, r2
 8000c5e:	0166      	lsls	r6, r4, #5
 8000c60:	ea46 66d3 	orr.w	r6, r6, r3, lsr #27
 8000c64:	015d      	lsls	r5, r3, #5
 8000c66:	195b      	adds	r3, r3, r5
 8000c68:	eb44 0406 	adc.w	r4, r4, r6
 8000c6c:	185d      	adds	r5, r3, r1
 8000c6e:	eb44 0602 	adc.w	r6, r4, r2
 8000c72:	4628      	mov	r0, r5
 8000c74:	4631      	mov	r1, r6
 8000c76:	6cbb      	ldr	r3, [r7, #72]	; 0x48
 8000c78:	681b      	ldr	r3, [r3, #0]
 8000c7a:	f04f 0400 	mov.w	r4, #0
 8000c7e:	0122      	lsls	r2, r4, #4
 8000c80:	647a      	str	r2, [r7, #68]	; 0x44
 8000c82:	6c7a      	ldr	r2, [r7, #68]	; 0x44
 8000c84:	ea42 7213 	orr.w	r2, r2, r3, lsr #28
 8000c88:	647a      	str	r2, [r7, #68]	; 0x44
 8000c8a:	011b      	lsls	r3, r3, #4
 8000c8c:	643b      	str	r3, [r7, #64]	; 0x40
 8000c8e:	e9d7 2310 	ldrd	r2, r3, [r7, #64]	; 0x40
 8000c92:	f000 fce9 	bl	8001668 <__aeabi_uldivmod>
 8000c96:	4603      	mov	r3, r0
 8000c98:	460c      	mov	r4, r1
 8000c9a:	461d      	mov	r5, r3
 8000c9c:	4626      	mov	r6, r4
 8000c9e:	6dfb      	ldr	r3, [r7, #92]	; 0x5c
 8000ca0:	4618      	mov	r0, r3
 8000ca2:	f04f 0100 	mov.w	r1, #0
 8000ca6:	6cbb      	ldr	r3, [r7, #72]	; 0x48
 8000ca8:	681b      	ldr	r3, [r3, #0]
 8000caa:	f04f 0400 	mov.w	r4, #0
 8000cae:	0122      	lsls	r2, r4, #4
 8000cb0:	63fa      	str	r2, [r7, #60]	; 0x3c
 8000cb2:	6bfa      	ldr	r2, [r7, #60]	; 0x3c
 8000cb4:	ea42 7213 	orr.w	r2, r2, r3, lsr #28
 8000cb8:	63fa      	str	r2, [r7, #60]	; 0x3c
 8000cba:	011b      	lsls	r3, r3, #4
 8000cbc:	63bb      	str	r3, [r7, #56]	; 0x38
 8000cbe:	e9d7 230e 	ldrd	r2, r3, [r7, #56]	; 0x38
 8000cc2:	f000 fcd1 	bl	8001668 <__aeabi_uldivmod>
 8000cc6:	4603      	mov	r3, r0
 8000cc8:	460c      	mov	r4, r1
 8000cca:	4619      	mov	r1, r3
 8000ccc:	4622      	mov	r2, r4
 8000cce:	460b      	mov	r3, r1
 8000cd0:	4614      	mov	r4, r2
 8000cd2:	18db      	adds	r3, r3, r3
 8000cd4:	eb44 0404 	adc.w	r4, r4, r4
 8000cd8:	185b      	adds	r3, r3, r1
 8000cda:	eb44 0402 	adc.w	r4, r4, r2
 8000cde:	ea4f 1b44 	mov.w	fp, r4, lsl #5
 8000ce2:	ea4b 6bd3 	orr.w	fp, fp, r3, lsr #27
 8000ce6:	ea4f 1a43 	mov.w	sl, r3, lsl #5
 8000cea:	eb13 030a 	adds.w	r3, r3, sl
 8000cee:	eb44 040b 	adc.w	r4, r4, fp
 8000cf2:	185b      	adds	r3, r3, r1
 8000cf4:	eb44 0402 	adc.w	r4, r4, r2
 8000cf8:	1aeb      	subs	r3, r5, r3
 8000cfa:	eb66 0404 	sbc.w	r4, r6, r4
 8000cfe:	0122      	lsls	r2, r4, #4
 8000d00:	637a      	str	r2, [r7, #52]	; 0x34
 8000d02:	6b7a      	ldr	r2, [r7, #52]	; 0x34
 8000d04:	ea42 7213 	orr.w	r2, r2, r3, lsr #28
 8000d08:	637a      	str	r2, [r7, #52]	; 0x34
 8000d0a:	011b      	lsls	r3, r3, #4
 8000d0c:	633b      	str	r3, [r7, #48]	; 0x30
 8000d0e:	e9d7 010c 	ldrd	r0, r1, [r7, #48]	; 0x30
 8000d12:	3032      	adds	r0, #50	; 0x32
 8000d14:	f141 0100 	adc.w	r1, r1, #0
 8000d18:	f04f 0264 	mov.w	r2, #100	; 0x64
 8000d1c:	f04f 0300 	mov.w	r3, #0
 8000d20:	f000 fca2 	bl	8001668 <__aeabi_uldivmod>
 8000d24:	4603      	mov	r3, r0
 8000d26:	460c      	mov	r4, r1
 8000d28:	657b      	str	r3, [r7, #84]	; 0x54
 8000d2a:	6dfb      	ldr	r3, [r7, #92]	; 0x5c
 8000d2c:	4618      	mov	r0, r3
 8000d2e:	f04f 0100 	mov.w	r1, #0
 8000d32:	6cbb      	ldr	r3, [r7, #72]	; 0x48
 8000d34:	681b      	ldr	r3, [r3, #0]
 8000d36:	f04f 0400 	mov.w	r4, #0
 8000d3a:	0122      	lsls	r2, r4, #4
 8000d3c:	62fa      	str	r2, [r7, #44]	; 0x2c
 8000d3e:	6afa      	ldr	r2, [r7, #44]	; 0x2c
 8000d40:	ea42 7213 	orr.w	r2, r2, r3, lsr #28
 8000d44:	62fa      	str	r2, [r7, #44]	; 0x2c
 8000d46:	011b      	lsls	r3, r3, #4
 8000d48:	62bb      	str	r3, [r7, #40]	; 0x28
 8000d4a:	e9d7 230a 	ldrd	r2, r3, [r7, #40]	; 0x28
 8000d4e:	f000 fc8b 	bl	8001668 <__aeabi_uldivmod>
 8000d52:	4603      	mov	r3, r0
 8000d54:	460c      	mov	r4, r1
 8000d56:	ea4f 1803 	mov.w	r8, r3, lsl #4
 8000d5a:	6dfb      	ldr	r3, [r7, #92]	; 0x5c
 8000d5c:	4619      	mov	r1, r3
 8000d5e:	f04f 0200 	mov.w	r2, #0
 8000d62:	460b      	mov	r3, r1
 8000d64:	4614      	mov	r4, r2
 8000d66:	18db      	adds	r3, r3, r3
 8000d68:	eb44 0404 	adc.w	r4, r4, r4
 8000d6c:	185b      	adds	r3, r3, r1
 8000d6e:	eb44 0402 	adc.w	r4, r4, r2
 8000d72:	0160      	lsls	r0, r4, #5
 8000d74:	60f8      	str	r0, [r7, #12]
 8000d76:	68f8      	ldr	r0, [r7, #12]
 8000d78:	ea40 60d3 	orr.w	r0, r0, r3, lsr #27
 8000d7c:	60f8      	str	r0, [r7, #12]
 8000d7e:	0158      	lsls	r0, r3, #5
 8000d80:	60b8      	str	r0, [r7, #8]
 8000d82:	e9d7 5602 	ldrd	r5, r6, [r7, #8]
 8000d86:	18ed      	adds	r5, r5, r3
 8000d88:	eb46 0604 	adc.w	r6, r6, r4
 8000d8c:	462b      	mov	r3, r5
 8000d8e:	4634      	mov	r4, r6
 8000d90:	185d      	adds	r5, r3, r1
 8000d92:	eb44 0602 	adc.w	r6, r4, r2
 8000d96:	4628      	mov	r0, r5
 8000d98:	4631      	mov	r1, r6
 8000d9a:	6cbb      	ldr	r3, [r7, #72]	; 0x48
 8000d9c:	681b      	ldr	r3, [r3, #0]
 8000d9e:	f04f 0400 	mov.w	r4, #0
 8000da2:	0122      	lsls	r2, r4, #4
 8000da4:	627a      	str	r2, [r7, #36]	; 0x24
 8000da6:	6a7a      	ldr	r2, [r7, #36]	; 0x24
 8000da8:	ea42 7213 	orr.w	r2, r2, r3, lsr #28
 8000dac:	627a      	str	r2, [r7, #36]	; 0x24
 8000dae:	011b      	lsls	r3, r3, #4
 8000db0:	623b      	str	r3, [r7, #32]
 8000db2:	e9d7 2308 	ldrd	r2, r3, [r7, #32]
 8000db6:	f000 fc57 	bl	8001668 <__aeabi_uldivmod>
 8000dba:	4603      	mov	r3, r0
 8000dbc:	460c      	mov	r4, r1
 8000dbe:	461d      	mov	r5, r3
 8000dc0:	4626      	mov	r6, r4
 8000dc2:	6dfb      	ldr	r3, [r7, #92]	; 0x5c
 8000dc4:	4618      	mov	r0, r3
 8000dc6:	f04f 0100 	mov.w	r1, #0
 8000dca:	6cbb      	ldr	r3, [r7, #72]	; 0x48
 8000dcc:	681b      	ldr	r3, [r3, #0]
 8000dce:	f04f 0400 	mov.w	r4, #0
 8000dd2:	0122      	lsls	r2, r4, #4
 8000dd4:	61fa      	str	r2, [r7, #28]
 8000dd6:	69fa      	ldr	r2, [r7, #28]
 8000dd8:	ea42 7213 	orr.w	r2, r2, r3, lsr #28
 8000ddc:	61fa      	str	r2, [r7, #28]
 8000dde:	011b      	lsls	r3, r3, #4
 8000de0:	61bb      	str	r3, [r7, #24]
 8000de2:	e9d7 2306 	ldrd	r2, r3, [r7, #24]
 8000de6:	f000 fc3f 	bl	8001668 <__aeabi_uldivmod>
 8000dea:	4603      	mov	r3, r0
 8000dec:	460c      	mov	r4, r1
 8000dee:	4619      	mov	r1, r3
 8000df0:	4622      	mov	r2, r4
 8000df2:	460b      	mov	r3, r1
 8000df4:	4614      	mov	r4, r2
 8000df6:	18db      	adds	r3, r3, r3
 8000df8:	eb44 0404 	adc.w	r4, r4, r4
 8000dfc:	185b      	adds	r3, r3, r1
 8000dfe:	eb44 0402 	adc.w	r4, r4, r2
 8000e02:	0160      	lsls	r0, r4, #5
 8000e04:	6078      	str	r0, [r7, #4]
 8000e06:	6878      	ldr	r0, [r7, #4]
 8000e08:	ea40 60d3 	orr.w	r0, r0, r3, lsr #27
 8000e0c:	6078      	str	r0, [r7, #4]
 8000e0e:	0158      	lsls	r0, r3, #5
 8000e10:	6038      	str	r0, [r7, #0]
 8000e12:	e9d7 9a00 	ldrd	r9, sl, [r7]
 8000e16:	eb19 0903 	adds.w	r9, r9, r3
 8000e1a:	eb4a 0a04 	adc.w	sl, sl, r4
 8000e1e:	464b      	mov	r3, r9
 8000e20:	4654      	mov	r4, sl
 8000e22:	185b      	adds	r3, r3, r1
 8000e24:	eb44 0402 	adc.w	r4, r4, r2
 8000e28:	1aeb      	subs	r3, r5, r3
 8000e2a:	eb66 0404 	sbc.w	r4, r6, r4
 8000e2e:	0122      	lsls	r2, r4, #4
 8000e30:	617a      	str	r2, [r7, #20]
 8000e32:	697a      	ldr	r2, [r7, #20]
 8000e34:	ea42 7213 	orr.w	r2, r2, r3, lsr #28
 8000e38:	617a      	str	r2, [r7, #20]
 8000e3a:	011b      	lsls	r3, r3, #4
 8000e3c:	613b      	str	r3, [r7, #16]
 8000e3e:	e9d7 0104 	ldrd	r0, r1, [r7, #16]
 8000e42:	3032      	adds	r0, #50	; 0x32
 8000e44:	f141 0100 	adc.w	r1, r1, #0
 8000e48:	f04f 0264 	mov.w	r2, #100	; 0x64
 8000e4c:	f04f 0300 	mov.w	r3, #0
 8000e50:	f000 fc0a 	bl	8001668 <__aeabi_uldivmod>
 8000e54:	4603      	mov	r3, r0
 8000e56:	460c      	mov	r4, r1
 8000e58:	ea48 0203 	orr.w	r2, r8, r3
 8000e5c:	6e3b      	ldr	r3, [r7, #96]	; 0x60
 8000e5e:	601a      	str	r2, [r3, #0]
 8000e60:	3774      	adds	r7, #116	; 0x74
 8000e62:	46bd      	mov	sp, r7
 8000e64:	e8bd 8ff0 	ldmia.w	sp!, {r4, r5, r6, r7, r8, r9, sl, fp, pc}

08000e68 <bsp_usart_disable>:
 8000e68:	b480      	push	{r7}
 8000e6a:	b083      	sub	sp, #12
 8000e6c:	af00      	add	r7, sp, #0
 8000e6e:	4603      	mov	r3, r0
 8000e70:	71fb      	strb	r3, [r7, #7]
 8000e72:	79fb      	ldrb	r3, [r7, #7]
 8000e74:	2b01      	cmp	r3, #1
 8000e76:	d00b      	beq.n	8000e90 <bsp_usart_disable+0x28>
 8000e78:	2b03      	cmp	r3, #3
 8000e7a:	d010      	beq.n	8000e9e <bsp_usart_disable+0x36>
 8000e7c:	2b00      	cmp	r3, #0
 8000e7e:	d000      	beq.n	8000e82 <bsp_usart_disable+0x1a>
 8000e80:	e014      	b.n	8000eac <bsp_usart_disable+0x44>
 8000e82:	4a0d      	ldr	r2, [pc, #52]	; (8000eb8 <bsp_usart_disable+0x50>)
 8000e84:	4b0c      	ldr	r3, [pc, #48]	; (8000eb8 <bsp_usart_disable+0x50>)
 8000e86:	681b      	ldr	r3, [r3, #0]
 8000e88:	f423 5300 	bic.w	r3, r3, #8192	; 0x2000
 8000e8c:	6013      	str	r3, [r2, #0]
 8000e8e:	e00d      	b.n	8000eac <bsp_usart_disable+0x44>
 8000e90:	4a0a      	ldr	r2, [pc, #40]	; (8000ebc <bsp_usart_disable+0x54>)
 8000e92:	4b0a      	ldr	r3, [pc, #40]	; (8000ebc <bsp_usart_disable+0x54>)
 8000e94:	681b      	ldr	r3, [r3, #0]
 8000e96:	f423 5300 	bic.w	r3, r3, #8192	; 0x2000
 8000e9a:	6013      	str	r3, [r2, #0]
 8000e9c:	e006      	b.n	8000eac <bsp_usart_disable+0x44>
 8000e9e:	4a08      	ldr	r2, [pc, #32]	; (8000ec0 <bsp_usart_disable+0x58>)
 8000ea0:	4b07      	ldr	r3, [pc, #28]	; (8000ec0 <bsp_usart_disable+0x58>)
 8000ea2:	681b      	ldr	r3, [r3, #0]
 8000ea4:	f423 5300 	bic.w	r3, r3, #8192	; 0x2000
 8000ea8:	6013      	str	r3, [r2, #0]
 8000eaa:	bf00      	nop
 8000eac:	370c      	adds	r7, #12
 8000eae:	46bd      	mov	sp, r7
 8000eb0:	f85d 7b04 	ldr.w	r7, [sp], #4
 8000eb4:	4770      	bx	lr
 8000eb6:	bf00      	nop
 8000eb8:	4001100c 	andmi	r1, r1, ip
 8000ebc:	4000440c 	andmi	r4, r0, ip, lsl #8
 8000ec0:	4001140c 	andmi	r1, r1, ip, lsl #8

08000ec4 <bsp_usart_enable>:
 8000ec4:	b480      	push	{r7}
 8000ec6:	b083      	sub	sp, #12
 8000ec8:	af00      	add	r7, sp, #0
 8000eca:	4603      	mov	r3, r0
 8000ecc:	71fb      	strb	r3, [r7, #7]
 8000ece:	79fb      	ldrb	r3, [r7, #7]
 8000ed0:	2b01      	cmp	r3, #1
 8000ed2:	d00b      	beq.n	8000eec <bsp_usart_enable+0x28>
 8000ed4:	2b03      	cmp	r3, #3
 8000ed6:	d010      	beq.n	8000efa <bsp_usart_enable+0x36>
 8000ed8:	2b00      	cmp	r3, #0
 8000eda:	d000      	beq.n	8000ede <bsp_usart_enable+0x1a>
 8000edc:	e014      	b.n	8000f08 <bsp_usart_enable+0x44>
 8000ede:	4a0d      	ldr	r2, [pc, #52]	; (8000f14 <bsp_usart_enable+0x50>)
 8000ee0:	4b0c      	ldr	r3, [pc, #48]	; (8000f14 <bsp_usart_enable+0x50>)
 8000ee2:	681b      	ldr	r3, [r3, #0]
 8000ee4:	f443 5300 	orr.w	r3, r3, #8192	; 0x2000
 8000ee8:	6013      	str	r3, [r2, #0]
 8000eea:	e00d      	b.n	8000f08 <bsp_usart_enable+0x44>
 8000eec:	4a0a      	ldr	r2, [pc, #40]	; (8000f18 <bsp_usart_enable+0x54>)
 8000eee:	4b0a      	ldr	r3, [pc, #40]	; (8000f18 <bsp_usart_enable+0x54>)
 8000ef0:	681b      	ldr	r3, [r3, #0]
 8000ef2:	f443 5300 	orr.w	r3, r3, #8192	; 0x2000
 8000ef6:	6013      	str	r3, [r2, #0]
 8000ef8:	e006      	b.n	8000f08 <bsp_usart_enable+0x44>
 8000efa:	4a08      	ldr	r2, [pc, #32]	; (8000f1c <bsp_usart_enable+0x58>)
 8000efc:	4b07      	ldr	r3, [pc, #28]	; (8000f1c <bsp_usart_enable+0x58>)
 8000efe:	681b      	ldr	r3, [r3, #0]
 8000f00:	f443 5300 	orr.w	r3, r3, #8192	; 0x2000
 8000f04:	6013      	str	r3, [r2, #0]
 8000f06:	bf00      	nop
 8000f08:	370c      	adds	r7, #12
 8000f0a:	46bd      	mov	sp, r7
 8000f0c:	f85d 7b04 	ldr.w	r7, [sp], #4
 8000f10:	4770      	bx	lr
 8000f12:	bf00      	nop
 8000f14:	4001100c 	andmi	r1, r1, ip
 8000f18:	4000440c 	andmi	r4, r0, ip, lsl #8
 8000f1c:	4001140c 	andmi	r1, r1, ip, lsl #8

08000f20 <serial_init>:
 8000f20:	b580      	push	{r7, lr}
 8000f22:	b084      	sub	sp, #16
 8000f24:	af00      	add	r7, sp, #0
 8000f26:	6078      	str	r0, [r7, #4]
 8000f28:	4b67      	ldr	r3, [pc, #412]	; (80010c8 <serial_init+0x1a8>)
 8000f2a:	781b      	ldrb	r3, [r3, #0]
 8000f2c:	2b00      	cmp	r3, #0
 8000f2e:	d007      	beq.n	8000f40 <serial_init+0x20>
 8000f30:	2302      	movs	r3, #2
 8000f32:	2200      	movs	r2, #0
 8000f34:	2100      	movs	r1, #0
 8000f36:	4865      	ldr	r0, [pc, #404]	; (80010cc <serial_init+0x1ac>)
 8000f38:	f000 fb76 	bl	8001628 <KERNEL_LOG_ERROR>
 8000f3c:	2302      	movs	r3, #2
 8000f3e:	e0bf      	b.n	80010c0 <serial_init+0x1a0>
 8000f40:	687b      	ldr	r3, [r7, #4]
 8000f42:	2b00      	cmp	r3, #0
 8000f44:	d107      	bne.n	8000f56 <serial_init+0x36>
 8000f46:	2304      	movs	r3, #4
 8000f48:	2200      	movs	r2, #0
 8000f4a:	2100      	movs	r1, #0
 8000f4c:	4860      	ldr	r0, [pc, #384]	; (80010d0 <serial_init+0x1b0>)
 8000f4e:	f000 fb6b 	bl	8001628 <KERNEL_LOG_ERROR>
 8000f52:	2304      	movs	r3, #4
 8000f54:	e0b4      	b.n	80010c0 <serial_init+0x1a0>
 8000f56:	687b      	ldr	r3, [r7, #4]
 8000f58:	681b      	ldr	r3, [r3, #0]
 8000f5a:	f5b3 4f61 	cmp.w	r3, #57600	; 0xe100
 8000f5e:	d031      	beq.n	8000fc4 <serial_init+0xa4>
 8000f60:	f5b3 4f61 	cmp.w	r3, #57600	; 0xe100
 8000f64:	d813      	bhi.n	8000f8e <serial_init+0x6e>
 8000f66:	f5b3 5f16 	cmp.w	r3, #9600	; 0x2580
 8000f6a:	d02b      	beq.n	8000fc4 <serial_init+0xa4>
 8000f6c:	f5b3 5f16 	cmp.w	r3, #9600	; 0x2580
 8000f70:	d806      	bhi.n	8000f80 <serial_init+0x60>
 8000f72:	f5b3 6f96 	cmp.w	r3, #1200	; 0x4b0
 8000f76:	d025      	beq.n	8000fc4 <serial_init+0xa4>
 8000f78:	f5b3 6f16 	cmp.w	r3, #2400	; 0x960
 8000f7c:	d022      	beq.n	8000fc4 <serial_init+0xa4>
 8000f7e:	e019      	b.n	8000fb4 <serial_init+0x94>
 8000f80:	f5b3 4f96 	cmp.w	r3, #19200	; 0x4b00
 8000f84:	d01e      	beq.n	8000fc4 <serial_init+0xa4>
 8000f86:	f5b3 4f16 	cmp.w	r3, #38400	; 0x9600
 8000f8a:	d01b      	beq.n	8000fc4 <serial_init+0xa4>
 8000f8c:	e012      	b.n	8000fb4 <serial_init+0x94>
 8000f8e:	f5b3 2fe1 	cmp.w	r3, #460800	; 0x70800
 8000f92:	d017      	beq.n	8000fc4 <serial_init+0xa4>
 8000f94:	f5b3 2fe1 	cmp.w	r3, #460800	; 0x70800
 8000f98:	d806      	bhi.n	8000fa8 <serial_init+0x88>
 8000f9a:	f5b3 3fe1 	cmp.w	r3, #115200	; 0x1c200
 8000f9e:	d011      	beq.n	8000fc4 <serial_init+0xa4>
 8000fa0:	f5b3 3f7a 	cmp.w	r3, #256000	; 0x3e800
 8000fa4:	d00e      	beq.n	8000fc4 <serial_init+0xa4>
 8000fa6:	e005      	b.n	8000fb4 <serial_init+0x94>
 8000fa8:	f5b3 2f61 	cmp.w	r3, #921600	; 0xe1000
 8000fac:	d00a      	beq.n	8000fc4 <serial_init+0xa4>
 8000fae:	f5b3 1fe1 	cmp.w	r3, #1843200	; 0x1c2000
 8000fb2:	d007      	beq.n	8000fc4 <serial_init+0xa4>
 8000fb4:	6879      	ldr	r1, [r7, #4]
 8000fb6:	2301      	movs	r3, #1
 8000fb8:	2204      	movs	r2, #4
 8000fba:	4846      	ldr	r0, [pc, #280]	; (80010d4 <serial_init+0x1b4>)
 8000fbc:	f000 fb34 	bl	8001628 <KERNEL_LOG_ERROR>
 8000fc0:	2301      	movs	r3, #1
 8000fc2:	e07d      	b.n	80010c0 <serial_init+0x1a0>
 8000fc4:	bf00      	nop
 8000fc6:	687b      	ldr	r3, [r7, #4]
 8000fc8:	791b      	ldrb	r3, [r3, #4]
 8000fca:	3b08      	subs	r3, #8
 8000fcc:	2b01      	cmp	r3, #1
 8000fce:	d908      	bls.n	8000fe2 <serial_init+0xc2>
 8000fd0:	687b      	ldr	r3, [r7, #4]
 8000fd2:	1d19      	adds	r1, r3, #4
 8000fd4:	2301      	movs	r3, #1
 8000fd6:	2201      	movs	r2, #1
 8000fd8:	483f      	ldr	r0, [pc, #252]	; (80010d8 <serial_init+0x1b8>)
 8000fda:	f000 fb25 	bl	8001628 <KERNEL_LOG_ERROR>
 8000fde:	2301      	movs	r3, #1
 8000fe0:	e06e      	b.n	80010c0 <serial_init+0x1a0>
 8000fe2:	bf00      	nop
 8000fe4:	687b      	ldr	r3, [r7, #4]
 8000fe6:	795b      	ldrb	r3, [r3, #5]
 8000fe8:	3300      	adds	r3, #0
 8000fea:	2b03      	cmp	r3, #3
 8000fec:	d908      	bls.n	8001000 <serial_init+0xe0>
 8000fee:	687b      	ldr	r3, [r7, #4]
 8000ff0:	1d59      	adds	r1, r3, #5
 8000ff2:	2301      	movs	r3, #1
 8000ff4:	2201      	movs	r2, #1
 8000ff6:	4839      	ldr	r0, [pc, #228]	; (80010dc <serial_init+0x1bc>)
 8000ff8:	f000 fb16 	bl	8001628 <KERNEL_LOG_ERROR>
 8000ffc:	2301      	movs	r3, #1
 8000ffe:	e05f      	b.n	80010c0 <serial_init+0x1a0>
 8001000:	bf00      	nop
 8001002:	687b      	ldr	r3, [r7, #4]
 8001004:	799b      	ldrb	r3, [r3, #6]
 8001006:	3300      	adds	r3, #0
 8001008:	2b02      	cmp	r3, #2
 800100a:	d908      	bls.n	800101e <serial_init+0xfe>
 800100c:	687b      	ldr	r3, [r7, #4]
 800100e:	1d99      	adds	r1, r3, #6
 8001010:	2301      	movs	r3, #1
 8001012:	2201      	movs	r2, #1
 8001014:	4832      	ldr	r0, [pc, #200]	; (80010e0 <serial_init+0x1c0>)
 8001016:	f000 fb07 	bl	8001628 <KERNEL_LOG_ERROR>
 800101a:	2301      	movs	r3, #1
 800101c:	e050      	b.n	80010c0 <serial_init+0x1a0>
 800101e:	bf00      	nop
 8001020:	687b      	ldr	r3, [r7, #4]
 8001022:	79db      	ldrb	r3, [r3, #7]
 8001024:	2b00      	cmp	r3, #0
 8001026:	d00d      	beq.n	8001044 <serial_init+0x124>
 8001028:	2b00      	cmp	r3, #0
 800102a:	db02      	blt.n	8001032 <serial_init+0x112>
 800102c:	3b02      	subs	r3, #2
 800102e:	2b02      	cmp	r3, #2
 8001030:	d908      	bls.n	8001044 <serial_init+0x124>
 8001032:	687b      	ldr	r3, [r7, #4]
 8001034:	1dd9      	adds	r1, r3, #7
 8001036:	2301      	movs	r3, #1
 8001038:	2201      	movs	r2, #1
 800103a:	482a      	ldr	r0, [pc, #168]	; (80010e4 <serial_init+0x1c4>)
 800103c:	f000 faf4 	bl	8001628 <KERNEL_LOG_ERROR>
 8001040:	2301      	movs	r3, #1
 8001042:	e03d      	b.n	80010c0 <serial_init+0x1a0>
 8001044:	bf00      	nop
 8001046:	2000      	movs	r0, #0
 8001048:	f7ff f98c 	bl	8000364 <bsp_clk_gpio_enable>
 800104c:	4603      	mov	r3, r0
 800104e:	73fb      	strb	r3, [r7, #15]
 8001050:	7bfb      	ldrb	r3, [r7, #15]
 8001052:	2b00      	cmp	r3, #0
 8001054:	d001      	beq.n	800105a <serial_init+0x13a>
 8001056:	7bfb      	ldrb	r3, [r7, #15]
 8001058:	e032      	b.n	80010c0 <serial_init+0x1a0>
 800105a:	2001      	movs	r0, #1
 800105c:	f7ff f9d8 	bl	8000410 <bsp_clk_usart_enable>
 8001060:	4603      	mov	r3, r0
 8001062:	73fb      	strb	r3, [r7, #15]
 8001064:	7bfb      	ldrb	r3, [r7, #15]
 8001066:	2b00      	cmp	r3, #0
 8001068:	d001      	beq.n	800106e <serial_init+0x14e>
 800106a:	7bfb      	ldrb	r3, [r7, #15]
 800106c:	e028      	b.n	80010c0 <serial_init+0x1a0>
 800106e:	230c      	movs	r3, #12
 8001070:	813b      	strh	r3, [r7, #8]
 8001072:	2302      	movs	r3, #2
 8001074:	72bb      	strb	r3, [r7, #10]
 8001076:	2307      	movs	r3, #7
 8001078:	733b      	strb	r3, [r7, #12]
 800107a:	2303      	movs	r3, #3
 800107c:	72fb      	strb	r3, [r7, #11]
 800107e:	f107 0308 	add.w	r3, r7, #8
 8001082:	4619      	mov	r1, r3
 8001084:	2000      	movs	r0, #0
 8001086:	f7ff fb85 	bl	8000794 <bsp_gpio_init>
 800108a:	4603      	mov	r3, r0
 800108c:	73fb      	strb	r3, [r7, #15]
 800108e:	7bfb      	ldrb	r3, [r7, #15]
 8001090:	2b00      	cmp	r3, #0
 8001092:	d001      	beq.n	8001098 <serial_init+0x178>
 8001094:	7bfb      	ldrb	r3, [r7, #15]
 8001096:	e013      	b.n	80010c0 <serial_init+0x1a0>
 8001098:	2001      	movs	r0, #1
 800109a:	f7ff fee5 	bl	8000e68 <bsp_usart_disable>
 800109e:	6879      	ldr	r1, [r7, #4]
 80010a0:	2001      	movs	r0, #1
 80010a2:	f7ff fced 	bl	8000a80 <bsp_uart_init>
 80010a6:	2001      	movs	r0, #1
 80010a8:	f7ff ff0c 	bl	8000ec4 <bsp_usart_enable>
 80010ac:	2300      	movs	r3, #0
 80010ae:	2200      	movs	r2, #0
 80010b0:	2100      	movs	r1, #0
 80010b2:	480d      	ldr	r0, [pc, #52]	; (80010e8 <serial_init+0x1c8>)
 80010b4:	f000 fa78 	bl	80015a8 <KERNEL_LOG_INFO>
 80010b8:	4b03      	ldr	r3, [pc, #12]	; (80010c8 <serial_init+0x1a8>)
 80010ba:	2201      	movs	r2, #1
 80010bc:	701a      	strb	r2, [r3, #0]
 80010be:	2300      	movs	r3, #0
 80010c0:	4618      	mov	r0, r3
 80010c2:	3710      	adds	r7, #16
 80010c4:	46bd      	mov	sp, r7
 80010c6:	bd80      	pop	{r7, pc}
 80010c8:	20000005 	andcs	r0, r0, r5
 80010cc:	08001908 	stmdaeq	r0, {r3, r8, fp, ip}
 80010d0:	08001924 	stmdaeq	r0, {r2, r5, r8, fp, ip}
 80010d4:	08001948 	stmdaeq	r0, {r3, r6, r8, fp, ip}
 80010d8:	08001960 	stmdaeq	r0, {r5, r6, r8, fp, ip}
 80010dc:	0800197c 	stmdaeq	r0, {r2, r3, r4, r5, r6, r8, fp, ip}
 80010e0:	08001994 	stmdaeq	r0, {r2, r4, r7, r8, fp, ip}
 80010e4:	080019b0 	stmdaeq	r0, {r4, r5, r7, r8, fp, ip}
 80010e8:	080019cc 	stmdaeq	r0, {r2, r3, r6, r7, r8, fp, ip}

080010ec <serial_write>:
 80010ec:	b480      	push	{r7}
 80010ee:	b085      	sub	sp, #20
 80010f0:	af00      	add	r7, sp, #0
 80010f2:	6078      	str	r0, [r7, #4]
 80010f4:	6039      	str	r1, [r7, #0]
 80010f6:	4b12      	ldr	r3, [pc, #72]	; (8001140 <serial_write+0x54>)
 80010f8:	781b      	ldrb	r3, [r3, #0]
 80010fa:	2b00      	cmp	r3, #0
 80010fc:	d101      	bne.n	8001102 <serial_write+0x16>
 80010fe:	2302      	movs	r3, #2
 8001100:	e017      	b.n	8001132 <serial_write+0x46>
 8001102:	2300      	movs	r3, #0
 8001104:	60fb      	str	r3, [r7, #12]
 8001106:	e00f      	b.n	8001128 <serial_write+0x3c>
 8001108:	bf00      	nop
 800110a:	4b0e      	ldr	r3, [pc, #56]	; (8001144 <serial_write+0x58>)
 800110c:	681b      	ldr	r3, [r3, #0]
 800110e:	f003 0380 	and.w	r3, r3, #128	; 0x80
 8001112:	2b00      	cmp	r3, #0
 8001114:	d0f9      	beq.n	800110a <serial_write+0x1e>
 8001116:	490c      	ldr	r1, [pc, #48]	; (8001148 <serial_write+0x5c>)
 8001118:	687b      	ldr	r3, [r7, #4]
 800111a:	1c5a      	adds	r2, r3, #1
 800111c:	607a      	str	r2, [r7, #4]
 800111e:	781b      	ldrb	r3, [r3, #0]
 8001120:	600b      	str	r3, [r1, #0]
 8001122:	68fb      	ldr	r3, [r7, #12]
 8001124:	3301      	adds	r3, #1
 8001126:	60fb      	str	r3, [r7, #12]
 8001128:	68fa      	ldr	r2, [r7, #12]
 800112a:	683b      	ldr	r3, [r7, #0]
 800112c:	429a      	cmp	r2, r3
 800112e:	d3eb      	bcc.n	8001108 <serial_write+0x1c>
 8001130:	2300      	movs	r3, #0
 8001132:	4618      	mov	r0, r3
 8001134:	3714      	adds	r7, #20
 8001136:	46bd      	mov	sp, r7
 8001138:	f85d 7b04 	ldr.w	r7, [sp], #4
 800113c:	4770      	bx	lr
 800113e:	bf00      	nop
 8001140:	20000005 	andcs	r0, r0, r5
 8001144:	40004400 	andmi	r4, r0, r0, lsl #8
 8001148:	40004404 	andmi	r4, r0, r4, lsl #8

0800114c <cpu_timer_enable>:
 800114c:	b480      	push	{r7}
 800114e:	b083      	sub	sp, #12
 8001150:	af00      	add	r7, sp, #0
 8001152:	4603      	mov	r3, r0
 8001154:	71fb      	strb	r3, [r7, #7]
 8001156:	490a      	ldr	r1, [pc, #40]	; (8001180 <cpu_timer_enable+0x34>)
 8001158:	4b09      	ldr	r3, [pc, #36]	; (8001180 <cpu_timer_enable+0x34>)
 800115a:	681a      	ldr	r2, [r3, #0]
 800115c:	79fb      	ldrb	r3, [r7, #7]
 800115e:	2b00      	cmp	r3, #0
 8001160:	d001      	beq.n	8001166 <cpu_timer_enable+0x1a>
 8001162:	2302      	movs	r3, #2
 8001164:	e000      	b.n	8001168 <cpu_timer_enable+0x1c>
 8001166:	2300      	movs	r3, #0
 8001168:	4313      	orrs	r3, r2
 800116a:	f043 0305 	orr.w	r3, r3, #5
 800116e:	600b      	str	r3, [r1, #0]
 8001170:	2300      	movs	r3, #0
 8001172:	4618      	mov	r0, r3
 8001174:	370c      	adds	r7, #12
 8001176:	46bd      	mov	sp, r7
 8001178:	f85d 7b04 	ldr.w	r7, [sp], #4
 800117c:	4770      	bx	lr
 800117e:	bf00      	nop
 8001180:	e000e010 	and	lr, r0, r0, lsl r0

08001184 <cpu_timer_disable>:
 8001184:	b480      	push	{r7}
 8001186:	af00      	add	r7, sp, #0
 8001188:	4a05      	ldr	r2, [pc, #20]	; (80011a0 <cpu_timer_disable+0x1c>)
 800118a:	4b05      	ldr	r3, [pc, #20]	; (80011a0 <cpu_timer_disable+0x1c>)
 800118c:	681b      	ldr	r3, [r3, #0]
 800118e:	f023 0303 	bic.w	r3, r3, #3
 8001192:	6013      	str	r3, [r2, #0]
 8001194:	2300      	movs	r3, #0
 8001196:	4618      	mov	r0, r3
 8001198:	46bd      	mov	sp, r7
 800119a:	f85d 7b04 	ldr.w	r7, [sp], #4
 800119e:	4770      	bx	lr
 80011a0:	e000e010 	and	lr, r0, r0, lsl r0

080011a4 <cpu_timer_set_frequency>:
 80011a4:	b580      	push	{r7, lr}
 80011a6:	b084      	sub	sp, #16
 80011a8:	af00      	add	r7, sp, #0
 80011aa:	6078      	str	r0, [r7, #4]
 80011ac:	687b      	ldr	r3, [r7, #4]
 80011ae:	2b05      	cmp	r3, #5
 80011b0:	d904      	bls.n	80011bc <cpu_timer_set_frequency+0x18>
 80011b2:	687b      	ldr	r3, [r7, #4]
 80011b4:	f242 7210 	movw	r2, #10000	; 0x2710
 80011b8:	4293      	cmp	r3, r2
 80011ba:	d907      	bls.n	80011cc <cpu_timer_set_frequency+0x28>
 80011bc:	2301      	movs	r3, #1
 80011be:	2200      	movs	r2, #0
 80011c0:	2100      	movs	r1, #0
 80011c2:	4810      	ldr	r0, [pc, #64]	; (8001204 <cpu_timer_set_frequency+0x60>)
 80011c4:	f000 fa30 	bl	8001628 <KERNEL_LOG_ERROR>
 80011c8:	2301      	movs	r3, #1
 80011ca:	e017      	b.n	80011fc <cpu_timer_set_frequency+0x58>
 80011cc:	f107 0308 	add.w	r3, r7, #8
 80011d0:	4618      	mov	r0, r3
 80011d2:	f7ff fa81 	bl	80006d8 <bsp_get_cpu_freq>
 80011d6:	4603      	mov	r3, r0
 80011d8:	73fb      	strb	r3, [r7, #15]
 80011da:	7bfb      	ldrb	r3, [r7, #15]
 80011dc:	2b00      	cmp	r3, #0
 80011de:	d001      	beq.n	80011e4 <cpu_timer_set_frequency+0x40>
 80011e0:	7bfb      	ldrb	r3, [r7, #15]
 80011e2:	e00b      	b.n	80011fc <cpu_timer_set_frequency+0x58>
 80011e4:	68ba      	ldr	r2, [r7, #8]
 80011e6:	687b      	ldr	r3, [r7, #4]
 80011e8:	fbb2 f3f3 	udiv	r3, r2, r3
 80011ec:	60bb      	str	r3, [r7, #8]
 80011ee:	4a06      	ldr	r2, [pc, #24]	; (8001208 <cpu_timer_set_frequency+0x64>)
 80011f0:	68bb      	ldr	r3, [r7, #8]
 80011f2:	6013      	str	r3, [r2, #0]
 80011f4:	4a05      	ldr	r2, [pc, #20]	; (800120c <cpu_timer_set_frequency+0x68>)
 80011f6:	687b      	ldr	r3, [r7, #4]
 80011f8:	6013      	str	r3, [r2, #0]
 80011fa:	2300      	movs	r3, #0
 80011fc:	4618      	mov	r0, r3
 80011fe:	3710      	adds	r7, #16
 8001200:	46bd      	mov	sp, r7
 8001202:	bd80      	pop	{r7, pc}
 8001204:	080019e0 	stmdaeq	r0, {r5, r6, r7, r8, fp, ip}
 8001208:	e000e014 	and	lr, r0, r4, lsl r0
 800120c:	20000008 	andcs	r0, r0, r8

08001210 <cpu_timer_get_frequency>:
 8001210:	b480      	push	{r7}
 8001212:	b083      	sub	sp, #12
 8001214:	af00      	add	r7, sp, #0
 8001216:	6078      	str	r0, [r7, #4]
 8001218:	687b      	ldr	r3, [r7, #4]
 800121a:	2b00      	cmp	r3, #0
 800121c:	d101      	bne.n	8001222 <cpu_timer_get_frequency+0x12>
 800121e:	2304      	movs	r3, #4
 8001220:	e004      	b.n	800122c <cpu_timer_get_frequency+0x1c>
 8001222:	4b05      	ldr	r3, [pc, #20]	; (8001238 <cpu_timer_get_frequency+0x28>)
 8001224:	681a      	ldr	r2, [r3, #0]
 8001226:	687b      	ldr	r3, [r7, #4]
 8001228:	601a      	str	r2, [r3, #0]
 800122a:	2300      	movs	r3, #0
 800122c:	4618      	mov	r0, r3
 800122e:	370c      	adds	r7, #12
 8001230:	46bd      	mov	sp, r7
 8001232:	f85d 7b04 	ldr.w	r7, [sp], #4
 8001236:	4770      	bx	lr
 8001238:	20000008 	andcs	r0, r0, r8

0800123c <__fpu_init>:
 800123c:	f04f 4040 	mov.w	r0, #3221225472	; 0xc0000000
 8001240:	4905      	ldr	r1, [pc, #20]	; (8001258 <__fpu_init+0x1c>)
 8001242:	6008      	str	r0, [r1, #0]
 8001244:	4905      	ldr	r1, [pc, #20]	; (800125c <__fpu_init+0x20>)
 8001246:	6808      	ldr	r0, [r1, #0]
 8001248:	f440 0070 	orr.w	r0, r0, #15728640	; 0xf00000
 800124c:	6008      	str	r0, [r1, #0]
 800124e:	f3bf 8f4f 	dsb	sy
 8001252:	f3bf 8f6f 	isb	sy
 8001256:	4770      	bx	lr
 8001258:	e000ef34 	and	lr, r0, r4, lsr pc
 800125c:	e000ed88 	and	lr, r0, r8, lsl #27

08001260 <__exc_undef_handler>:
 8001260:	f7ff bffe 	b.w	8001260 <__exc_undef_handler>

08001264 <__global_int_entry>:
 8001264:	b500      	push	{lr}
 8001266:	f000 f8b7 	bl	80013d8 <kernel_global_interrupt_handler>
 800126a:	bd00      	pop	{pc}

0800126c <__exc_nmi_handler>:
 800126c:	f04f 0300 	mov.w	r3, #0
 8001270:	e7f8      	b.n	8001264 <__global_int_entry>

08001272 <__exc_hardfault_handler>:
 8001272:	f04f 0301 	mov.w	r3, #1
 8001276:	e7f5      	b.n	8001264 <__global_int_entry>

08001278 <__exc_mpu_handler>:
 8001278:	f04f 0302 	mov.w	r3, #2
 800127c:	e7f2      	b.n	8001264 <__global_int_entry>

0800127e <__exc_bus_handler>:
 800127e:	f04f 0300 	mov.w	r3, #0
 8001282:	e7ef      	b.n	8001264 <__global_int_entry>

08001284 <__exc_svc_handler>:
 8001284:	f04f 030a 	mov.w	r3, #10
 8001288:	f04f 030a 	mov.w	r3, #10
 800128c:	e7ea      	b.n	8001264 <__global_int_entry>

0800128e <__exc_debug_handler>:
 800128e:	f04f 030e 	mov.w	r3, #14
 8001292:	e7e7      	b.n	8001264 <__global_int_entry>

08001294 <__extint_0>:
 8001294:	e7fe      	b.n	8001294 <__extint_0>
	...

08001298 <__nvic_init>:
 8001298:	b500      	push	{lr}
 800129a:	f64f 70ff 	movw	r0, #65535	; 0xffff
 800129e:	490f      	ldr	r1, [pc, #60]	; (80012dc <__nvic_set_prio_group_count_end+0x6>)
 80012a0:	6008      	str	r0, [r1, #0]
 80012a2:	f04f 0002 	mov.w	r0, #2
 80012a6:	f000 f801 	bl	80012ac <__nvic_set_prio_group_count>
 80012aa:	bd00      	pop	{pc}

080012ac <__nvic_set_prio_group_count>:
 80012ac:	b408      	push	{r3}
 80012ae:	f04f 0107 	mov.w	r1, #7
 80012b2:	4288      	cmp	r0, r1
 80012b4:	dc0f      	bgt.n	80012d6 <__nvic_set_prio_group_count_end>
 80012b6:	ea4f 2000 	mov.w	r0, r0, lsl #8
 80012ba:	4909      	ldr	r1, [pc, #36]	; (80012e0 <__nvic_set_prio_group_count_end+0xa>)
 80012bc:	680a      	ldr	r2, [r1, #0]
 80012be:	f64f 73ff 	movw	r3, #65535	; 0xffff
 80012c2:	ea02 0203 	and.w	r2, r2, r3
 80012c6:	4b07      	ldr	r3, [pc, #28]	; (80012e4 <__nvic_set_prio_group_count_end+0xe>)
 80012c8:	f422 62e0 	bic.w	r2, r2, #1792	; 0x700
 80012cc:	ea42 0200 	orr.w	r2, r2, r0
 80012d0:	ea42 0203 	orr.w	r2, r2, r3
 80012d4:	600a      	str	r2, [r1, #0]

080012d6 <__nvic_set_prio_group_count_end>:
 80012d6:	bc08      	pop	{r3}
 80012d8:	4770      	bx	lr
 80012da:	e1000000 	mrs	r0, (UNDEF: 0)
 80012de:	ed0ce000 	stc	0, cr14, [ip, #-0]
 80012e2:	0000e000 	andeq	lr, r0, r0
 80012e6:	b48005fa 	strlt	r0, [r0], #1530	; 0x5fa

080012e8 <kernel_panic>:
 80012e8:	b480      	push	{r7}
 80012ea:	b083      	sub	sp, #12
 80012ec:	af00      	add	r7, sp, #0
 80012ee:	4603      	mov	r3, r0
 80012f0:	71fb      	strb	r3, [r7, #7]
 80012f2:	e7fe      	b.n	80012f2 <kernel_panic+0xa>

080012f4 <early_init>:
 80012f4:	b580      	push	{r7, lr}
 80012f6:	b084      	sub	sp, #16
 80012f8:	af00      	add	r7, sp, #0
 80012fa:	4a19      	ldr	r2, [pc, #100]	; (8001360 <early_init+0x6c>)
 80012fc:	1d3b      	adds	r3, r7, #4
 80012fe:	e892 0003 	ldmia.w	r2, {r0, r1}
 8001302:	e883 0003 	stmia.w	r3, {r0, r1}
 8001306:	4b17      	ldr	r3, [pc, #92]	; (8001364 <early_init+0x70>)
 8001308:	603b      	str	r3, [r7, #0]
 800130a:	463b      	mov	r3, r7
 800130c:	4618      	mov	r0, r3
 800130e:	f000 f92f 	bl	8001570 <kernel_logger_init>
 8001312:	4603      	mov	r3, r0
 8001314:	73fb      	strb	r3, [r7, #15]
 8001316:	7bfb      	ldrb	r3, [r7, #15]
 8001318:	2b00      	cmp	r3, #0
 800131a:	d003      	beq.n	8001324 <early_init+0x30>
 800131c:	7bfb      	ldrb	r3, [r7, #15]
 800131e:	4618      	mov	r0, r3
 8001320:	f7ff ffe2 	bl	80012e8 <kernel_panic>
 8001324:	1d3b      	adds	r3, r7, #4
 8001326:	4618      	mov	r0, r3
 8001328:	f7ff fdfa 	bl	8000f20 <serial_init>
 800132c:	4603      	mov	r3, r0
 800132e:	73fb      	strb	r3, [r7, #15]
 8001330:	7bfb      	ldrb	r3, [r7, #15]
 8001332:	2b00      	cmp	r3, #0
 8001334:	d00a      	beq.n	800134c <early_init+0x58>
 8001336:	7bfb      	ldrb	r3, [r7, #15]
 8001338:	f107 010f 	add.w	r1, r7, #15
 800133c:	2201      	movs	r2, #1
 800133e:	480a      	ldr	r0, [pc, #40]	; (8001368 <early_init+0x74>)
 8001340:	f000 f972 	bl	8001628 <KERNEL_LOG_ERROR>
 8001344:	7bfb      	ldrb	r3, [r7, #15]
 8001346:	4618      	mov	r0, r3
 8001348:	f7ff ffce 	bl	80012e8 <kernel_panic>
 800134c:	7bfb      	ldrb	r3, [r7, #15]
 800134e:	2200      	movs	r2, #0
 8001350:	2100      	movs	r1, #0
 8001352:	4806      	ldr	r0, [pc, #24]	; (800136c <early_init+0x78>)
 8001354:	f000 f928 	bl	80015a8 <KERNEL_LOG_INFO>
 8001358:	bf00      	nop
 800135a:	3710      	adds	r7, #16
 800135c:	46bd      	mov	sp, r7
 800135e:	bd80      	pop	{r7, pc}
 8001360:	08001a3c 	stmdaeq	r0, {r2, r3, r4, r5, r9, fp, ip}
 8001364:	08000a1d 	stmdaeq	r0, {r0, r2, r3, r4, r9, fp}
 8001368:	08001a0c 	stmdaeq	r0, {r2, r3, r9, fp, ip}
 800136c:	08001a28 	stmdaeq	r0, {r3, r5, r9, fp, ip}

08001370 <kernel_kickstart>:
 8001370:	b580      	push	{r7, lr}
 8001372:	b082      	sub	sp, #8
 8001374:	af00      	add	r7, sp, #0
 8001376:	f7ff ffbd 	bl	80012f4 <early_init>
 800137a:	2064      	movs	r0, #100	; 0x64
 800137c:	f7ff ff12 	bl	80011a4 <cpu_timer_set_frequency>
 8001380:	4603      	mov	r3, r0
 8001382:	71fb      	strb	r3, [r7, #7]
 8001384:	79fb      	ldrb	r3, [r7, #7]
 8001386:	2b00      	cmp	r3, #0
 8001388:	d009      	beq.n	800139e <kernel_kickstart+0x2e>
 800138a:	79fb      	ldrb	r3, [r7, #7]
 800138c:	1df9      	adds	r1, r7, #7
 800138e:	2201      	movs	r2, #1
 8001390:	480f      	ldr	r0, [pc, #60]	; (80013d0 <kernel_kickstart+0x60>)
 8001392:	f000 f949 	bl	8001628 <KERNEL_LOG_ERROR>
 8001396:	79fb      	ldrb	r3, [r7, #7]
 8001398:	4618      	mov	r0, r3
 800139a:	f7ff ffa5 	bl	80012e8 <kernel_panic>
 800139e:	2001      	movs	r0, #1
 80013a0:	f7ff fed4 	bl	800114c <cpu_timer_enable>
 80013a4:	4603      	mov	r3, r0
 80013a6:	71fb      	strb	r3, [r7, #7]
 80013a8:	79fb      	ldrb	r3, [r7, #7]
 80013aa:	2b00      	cmp	r3, #0
 80013ac:	d009      	beq.n	80013c2 <kernel_kickstart+0x52>
 80013ae:	79fb      	ldrb	r3, [r7, #7]
 80013b0:	1df9      	adds	r1, r7, #7
 80013b2:	2201      	movs	r2, #1
 80013b4:	4806      	ldr	r0, [pc, #24]	; (80013d0 <kernel_kickstart+0x60>)
 80013b6:	f000 f937 	bl	8001628 <KERNEL_LOG_ERROR>
 80013ba:	79fb      	ldrb	r3, [r7, #7]
 80013bc:	4618      	mov	r0, r3
 80013be:	f7ff ff93 	bl	80012e8 <kernel_panic>
 80013c2:	2300      	movs	r3, #0
 80013c4:	2200      	movs	r2, #0
 80013c6:	2100      	movs	r1, #0
 80013c8:	4802      	ldr	r0, [pc, #8]	; (80013d4 <kernel_kickstart+0x64>)
 80013ca:	f000 f8ed 	bl	80015a8 <KERNEL_LOG_INFO>
 80013ce:	e7fe      	b.n	80013ce <kernel_kickstart+0x5e>
 80013d0:	08001a44 	stmdaeq	r0, {r2, r6, r9, fp, ip}
 80013d4:	08001a64 	stmdaeq	r0, {r2, r5, r6, r9, fp, ip}

080013d8 <kernel_global_interrupt_handler>:
 80013d8:	b480      	push	{r7}
 80013da:	b085      	sub	sp, #20
 80013dc:	af00      	add	r7, sp, #0
 80013de:	60f8      	str	r0, [r7, #12]
 80013e0:	60b9      	str	r1, [r7, #8]
 80013e2:	607a      	str	r2, [r7, #4]
 80013e4:	bf00      	nop
 80013e6:	3714      	adds	r7, #20
 80013e8:	46bd      	mov	sp, r7
 80013ea:	f85d 7b04 	ldr.w	r7, [sp], #4
 80013ee:	4770      	bx	lr

080013f0 <byte_to_str>:
 80013f0:	b480      	push	{r7}
 80013f2:	b083      	sub	sp, #12
 80013f4:	af00      	add	r7, sp, #0
 80013f6:	6078      	str	r0, [r7, #4]
 80013f8:	460b      	mov	r3, r1
 80013fa:	70fb      	strb	r3, [r7, #3]
 80013fc:	78fb      	ldrb	r3, [r7, #3]
 80013fe:	f003 030f 	and.w	r3, r3, #15
 8001402:	4a07      	ldr	r2, [pc, #28]	; (8001420 <byte_to_str+0x30>)
 8001404:	5cd2      	ldrb	r2, [r2, r3]
 8001406:	687b      	ldr	r3, [r7, #4]
 8001408:	701a      	strb	r2, [r3, #0]
 800140a:	687b      	ldr	r3, [r7, #4]
 800140c:	3301      	adds	r3, #1
 800140e:	2230      	movs	r2, #48	; 0x30
 8001410:	701a      	strb	r2, [r3, #0]
 8001412:	bf00      	nop
 8001414:	370c      	adds	r7, #12
 8001416:	46bd      	mov	sp, r7
 8001418:	f85d 7b04 	ldr.w	r7, [sp], #4
 800141c:	4770      	bx	lr
 800141e:	bf00      	nop
 8001420:	08001a78 	stmdaeq	r0, {r3, r4, r5, r6, r9, fp, ip}

08001424 <state_to_str>:
 8001424:	b480      	push	{r7}
 8001426:	b085      	sub	sp, #20
 8001428:	af00      	add	r7, sp, #0
 800142a:	6078      	str	r0, [r7, #4]
 800142c:	460b      	mov	r3, r1
 800142e:	70fb      	strb	r3, [r7, #3]
 8001430:	78fb      	ldrb	r3, [r7, #3]
 8001432:	60bb      	str	r3, [r7, #8]
 8001434:	2300      	movs	r3, #0
 8001436:	60fb      	str	r3, [r7, #12]
 8001438:	e00f      	b.n	800145a <state_to_str+0x36>
 800143a:	687a      	ldr	r2, [r7, #4]
 800143c:	68fb      	ldr	r3, [r7, #12]
 800143e:	4413      	add	r3, r2
 8001440:	68fa      	ldr	r2, [r7, #12]
 8001442:	00d2      	lsls	r2, r2, #3
 8001444:	68b9      	ldr	r1, [r7, #8]
 8001446:	fa21 f202 	lsr.w	r2, r1, r2
 800144a:	f002 020f 	and.w	r2, r2, #15
 800144e:	490d      	ldr	r1, [pc, #52]	; (8001484 <state_to_str+0x60>)
 8001450:	5c8a      	ldrb	r2, [r1, r2]
 8001452:	701a      	strb	r2, [r3, #0]
 8001454:	68fb      	ldr	r3, [r7, #12]
 8001456:	3301      	adds	r3, #1
 8001458:	60fb      	str	r3, [r7, #12]
 800145a:	68fb      	ldr	r3, [r7, #12]
 800145c:	2b00      	cmp	r3, #0
 800145e:	d0ec      	beq.n	800143a <state_to_str+0x16>
 8001460:	e007      	b.n	8001472 <state_to_str+0x4e>
 8001462:	687a      	ldr	r2, [r7, #4]
 8001464:	68fb      	ldr	r3, [r7, #12]
 8001466:	4413      	add	r3, r2
 8001468:	2200      	movs	r2, #0
 800146a:	701a      	strb	r2, [r3, #0]
 800146c:	68fb      	ldr	r3, [r7, #12]
 800146e:	3301      	adds	r3, #1
 8001470:	60fb      	str	r3, [r7, #12]
 8001472:	68fb      	ldr	r3, [r7, #12]
 8001474:	2b03      	cmp	r3, #3
 8001476:	d9f4      	bls.n	8001462 <state_to_str+0x3e>
 8001478:	bf00      	nop
 800147a:	3714      	adds	r7, #20
 800147c:	46bd      	mov	sp, r7
 800147e:	f85d 7b04 	ldr.w	r7, [sp], #4
 8001482:	4770      	bx	lr
 8001484:	08001a78 	stmdaeq	r0, {r3, r4, r5, r6, r9, fp, ip}

08001488 <strlen>:
 8001488:	b480      	push	{r7}
 800148a:	b085      	sub	sp, #20
 800148c:	af00      	add	r7, sp, #0
 800148e:	6078      	str	r0, [r7, #4]
 8001490:	2300      	movs	r3, #0
 8001492:	60fb      	str	r3, [r7, #12]
 8001494:	e002      	b.n	800149c <strlen+0x14>
 8001496:	68fb      	ldr	r3, [r7, #12]
 8001498:	3301      	adds	r3, #1
 800149a:	60fb      	str	r3, [r7, #12]
 800149c:	687b      	ldr	r3, [r7, #4]
 800149e:	1c5a      	adds	r2, r3, #1
 80014a0:	607a      	str	r2, [r7, #4]
 80014a2:	781b      	ldrb	r3, [r3, #0]
 80014a4:	2b00      	cmp	r3, #0
 80014a6:	d1f6      	bne.n	8001496 <strlen+0xe>
 80014a8:	68fb      	ldr	r3, [r7, #12]
 80014aa:	4618      	mov	r0, r3
 80014ac:	3714      	adds	r7, #20
 80014ae:	46bd      	mov	sp, r7
 80014b0:	f85d 7b04 	ldr.w	r7, [sp], #4
 80014b4:	4770      	bx	lr

080014b6 <logger_log>:
 80014b6:	b590      	push	{r4, r7, lr}
 80014b8:	b087      	sub	sp, #28
 80014ba:	af00      	add	r7, sp, #0
 80014bc:	60f8      	str	r0, [r7, #12]
 80014be:	60b9      	str	r1, [r7, #8]
 80014c0:	607a      	str	r2, [r7, #4]
 80014c2:	70fb      	strb	r3, [r7, #3]
 80014c4:	4b26      	ldr	r3, [pc, #152]	; (8001560 <logger_log+0xaa>)
 80014c6:	681c      	ldr	r4, [r3, #0]
 80014c8:	68f8      	ldr	r0, [r7, #12]
 80014ca:	f7ff ffdd 	bl	8001488 <strlen>
 80014ce:	4603      	mov	r3, r0
 80014d0:	4619      	mov	r1, r3
 80014d2:	68f8      	ldr	r0, [r7, #12]
 80014d4:	47a0      	blx	r4
 80014d6:	687b      	ldr	r3, [r7, #4]
 80014d8:	2b00      	cmp	r3, #0
 80014da:	d01f      	beq.n	800151c <logger_log+0x66>
 80014dc:	4b20      	ldr	r3, [pc, #128]	; (8001560 <logger_log+0xaa>)
 80014de:	681b      	ldr	r3, [r3, #0]
 80014e0:	2109      	movs	r1, #9
 80014e2:	4820      	ldr	r0, [pc, #128]	; (8001564 <logger_log+0xae>)
 80014e4:	4798      	blx	r3
 80014e6:	2300      	movs	r3, #0
 80014e8:	617b      	str	r3, [r7, #20]
 80014ea:	e013      	b.n	8001514 <logger_log+0x5e>
 80014ec:	68bb      	ldr	r3, [r7, #8]
 80014ee:	1c5a      	adds	r2, r3, #1
 80014f0:	60ba      	str	r2, [r7, #8]
 80014f2:	781a      	ldrb	r2, [r3, #0]
 80014f4:	f107 0310 	add.w	r3, r7, #16
 80014f8:	4611      	mov	r1, r2
 80014fa:	4618      	mov	r0, r3
 80014fc:	f7ff ff78 	bl	80013f0 <byte_to_str>
 8001500:	4b17      	ldr	r3, [pc, #92]	; (8001560 <logger_log+0xaa>)
 8001502:	681b      	ldr	r3, [r3, #0]
 8001504:	f107 0210 	add.w	r2, r7, #16
 8001508:	2102      	movs	r1, #2
 800150a:	4610      	mov	r0, r2
 800150c:	4798      	blx	r3
 800150e:	697b      	ldr	r3, [r7, #20]
 8001510:	3301      	adds	r3, #1
 8001512:	617b      	str	r3, [r7, #20]
 8001514:	697a      	ldr	r2, [r7, #20]
 8001516:	687b      	ldr	r3, [r7, #4]
 8001518:	429a      	cmp	r2, r3
 800151a:	d3e7      	bcc.n	80014ec <logger_log+0x36>
 800151c:	4b10      	ldr	r3, [pc, #64]	; (8001560 <logger_log+0xaa>)
 800151e:	681b      	ldr	r3, [r3, #0]
 8001520:	2105      	movs	r1, #5
 8001522:	4811      	ldr	r0, [pc, #68]	; (8001568 <logger_log+0xb2>)
 8001524:	4798      	blx	r3
 8001526:	78fa      	ldrb	r2, [r7, #3]
 8001528:	f107 0310 	add.w	r3, r7, #16
 800152c:	4611      	mov	r1, r2
 800152e:	4618      	mov	r0, r3
 8001530:	f7ff ff78 	bl	8001424 <state_to_str>
 8001534:	4b0a      	ldr	r3, [pc, #40]	; (8001560 <logger_log+0xaa>)
 8001536:	681c      	ldr	r4, [r3, #0]
 8001538:	f107 0310 	add.w	r3, r7, #16
 800153c:	4618      	mov	r0, r3
 800153e:	f7ff ffa3 	bl	8001488 <strlen>
 8001542:	4602      	mov	r2, r0
 8001544:	f107 0310 	add.w	r3, r7, #16
 8001548:	4611      	mov	r1, r2
 800154a:	4618      	mov	r0, r3
 800154c:	47a0      	blx	r4
 800154e:	4b04      	ldr	r3, [pc, #16]	; (8001560 <logger_log+0xaa>)
 8001550:	681b      	ldr	r3, [r3, #0]
 8001552:	2102      	movs	r1, #2
 8001554:	4805      	ldr	r0, [pc, #20]	; (800156c <logger_log+0xb6>)
 8001556:	4798      	blx	r3
 8001558:	bf00      	nop
 800155a:	371c      	adds	r7, #28
 800155c:	46bd      	mov	sp, r7
 800155e:	bd90      	pop	{r4, r7, pc}
 8001560:	20000000 	andcs	r0, r0, r0
 8001564:	08001a88 	stmdaeq	r0, {r3, r7, r9, fp, ip}
 8001568:	08001a94 	stmdaeq	r0, {r2, r4, r7, r9, fp, ip}
 800156c:	08001a9c 	stmdaeq	r0, {r2, r3, r4, r7, r9, fp, ip}

08001570 <kernel_logger_init>:
 8001570:	b480      	push	{r7}
 8001572:	b083      	sub	sp, #12
 8001574:	af00      	add	r7, sp, #0
 8001576:	6078      	str	r0, [r7, #4]
 8001578:	687b      	ldr	r3, [r7, #4]
 800157a:	2b00      	cmp	r3, #0
 800157c:	d101      	bne.n	8001582 <kernel_logger_init+0x12>
 800157e:	2304      	movs	r3, #4
 8001580:	e007      	b.n	8001592 <kernel_logger_init+0x22>
 8001582:	4a07      	ldr	r2, [pc, #28]	; (80015a0 <kernel_logger_init+0x30>)
 8001584:	687b      	ldr	r3, [r7, #4]
 8001586:	681b      	ldr	r3, [r3, #0]
 8001588:	6013      	str	r3, [r2, #0]
 800158a:	4b06      	ldr	r3, [pc, #24]	; (80015a4 <kernel_logger_init+0x34>)
 800158c:	2201      	movs	r2, #1
 800158e:	701a      	strb	r2, [r3, #0]
 8001590:	2300      	movs	r3, #0
 8001592:	4618      	mov	r0, r3
 8001594:	370c      	adds	r7, #12
 8001596:	46bd      	mov	sp, r7
 8001598:	f85d 7b04 	ldr.w	r7, [sp], #4
 800159c:	4770      	bx	lr
 800159e:	bf00      	nop
 80015a0:	20000000 	andcs	r0, r0, r0
 80015a4:	2000000c 	andcs	r0, r0, ip

080015a8 <KERNEL_LOG_INFO>:
 80015a8:	b580      	push	{r7, lr}
 80015aa:	b084      	sub	sp, #16
 80015ac:	af00      	add	r7, sp, #0
 80015ae:	60f8      	str	r0, [r7, #12]
 80015b0:	60b9      	str	r1, [r7, #8]
 80015b2:	607a      	str	r2, [r7, #4]
 80015b4:	70fb      	strb	r3, [r7, #3]
 80015b6:	4b09      	ldr	r3, [pc, #36]	; (80015dc <KERNEL_LOG_INFO+0x34>)
 80015b8:	781b      	ldrb	r3, [r3, #0]
 80015ba:	2b00      	cmp	r3, #0
 80015bc:	d00a      	beq.n	80015d4 <KERNEL_LOG_INFO+0x2c>
 80015be:	4b08      	ldr	r3, [pc, #32]	; (80015e0 <KERNEL_LOG_INFO+0x38>)
 80015c0:	681b      	ldr	r3, [r3, #0]
 80015c2:	2107      	movs	r1, #7
 80015c4:	4807      	ldr	r0, [pc, #28]	; (80015e4 <KERNEL_LOG_INFO+0x3c>)
 80015c6:	4798      	blx	r3
 80015c8:	78fb      	ldrb	r3, [r7, #3]
 80015ca:	687a      	ldr	r2, [r7, #4]
 80015cc:	68b9      	ldr	r1, [r7, #8]
 80015ce:	68f8      	ldr	r0, [r7, #12]
 80015d0:	f7ff ff71 	bl	80014b6 <logger_log>
 80015d4:	bf00      	nop
 80015d6:	3710      	adds	r7, #16
 80015d8:	46bd      	mov	sp, r7
 80015da:	bd80      	pop	{r7, pc}
 80015dc:	2000000c 	andcs	r0, r0, ip
 80015e0:	20000000 	andcs	r0, r0, r0
 80015e4:	08001aa0 	stmdaeq	r0, {r5, r7, r9, fp, ip}

080015e8 <KERNEL_LOG_WARNING>:
 80015e8:	b580      	push	{r7, lr}
 80015ea:	b084      	sub	sp, #16
 80015ec:	af00      	add	r7, sp, #0
 80015ee:	60f8      	str	r0, [r7, #12]
 80015f0:	60b9      	str	r1, [r7, #8]
 80015f2:	607a      	str	r2, [r7, #4]
 80015f4:	70fb      	strb	r3, [r7, #3]
 80015f6:	4b09      	ldr	r3, [pc, #36]	; (800161c <KERNEL_LOG_WARNING+0x34>)
 80015f8:	781b      	ldrb	r3, [r3, #0]
 80015fa:	2b00      	cmp	r3, #0
 80015fc:	d00a      	beq.n	8001614 <KERNEL_LOG_WARNING+0x2c>
 80015fe:	4b08      	ldr	r3, [pc, #32]	; (8001620 <KERNEL_LOG_WARNING+0x38>)
 8001600:	681b      	ldr	r3, [r3, #0]
 8001602:	2107      	movs	r1, #7
 8001604:	4807      	ldr	r0, [pc, #28]	; (8001624 <KERNEL_LOG_WARNING+0x3c>)
 8001606:	4798      	blx	r3
 8001608:	78fb      	ldrb	r3, [r7, #3]
 800160a:	687a      	ldr	r2, [r7, #4]
 800160c:	68b9      	ldr	r1, [r7, #8]
 800160e:	68f8      	ldr	r0, [r7, #12]
 8001610:	f7ff ff51 	bl	80014b6 <logger_log>
 8001614:	bf00      	nop
 8001616:	3710      	adds	r7, #16
 8001618:	46bd      	mov	sp, r7
 800161a:	bd80      	pop	{r7, pc}
 800161c:	2000000c 	andcs	r0, r0, ip
 8001620:	20000000 	andcs	r0, r0, r0
 8001624:	08001aa8 	stmdaeq	r0, {r3, r5, r7, r9, fp, ip}

08001628 <KERNEL_LOG_ERROR>:
 8001628:	b580      	push	{r7, lr}
 800162a:	b084      	sub	sp, #16
 800162c:	af00      	add	r7, sp, #0
 800162e:	60f8      	str	r0, [r7, #12]
 8001630:	60b9      	str	r1, [r7, #8]
 8001632:	607a      	str	r2, [r7, #4]
 8001634:	70fb      	strb	r3, [r7, #3]
 8001636:	4b09      	ldr	r3, [pc, #36]	; (800165c <KERNEL_LOG_ERROR+0x34>)
 8001638:	781b      	ldrb	r3, [r3, #0]
 800163a:	2b00      	cmp	r3, #0
 800163c:	d00a      	beq.n	8001654 <KERNEL_LOG_ERROR+0x2c>
 800163e:	4b08      	ldr	r3, [pc, #32]	; (8001660 <KERNEL_LOG_ERROR+0x38>)
 8001640:	681b      	ldr	r3, [r3, #0]
 8001642:	2108      	movs	r1, #8
 8001644:	4807      	ldr	r0, [pc, #28]	; (8001664 <KERNEL_LOG_ERROR+0x3c>)
 8001646:	4798      	blx	r3
 8001648:	78fb      	ldrb	r3, [r7, #3]
 800164a:	687a      	ldr	r2, [r7, #4]
 800164c:	68b9      	ldr	r1, [r7, #8]
 800164e:	68f8      	ldr	r0, [r7, #12]
 8001650:	f7ff ff31 	bl	80014b6 <logger_log>
 8001654:	bf00      	nop
 8001656:	3710      	adds	r7, #16
 8001658:	46bd      	mov	sp, r7
 800165a:	bd80      	pop	{r7, pc}
 800165c:	2000000c 	andcs	r0, r0, ip
 8001660:	20000000 	andcs	r0, r0, r0
 8001664:	08001ab0 	stmdaeq	r0, {r4, r5, r7, r9, fp, ip}

08001668 <__aeabi_uldivmod>:
 8001668:	2b00      	cmp	r3, #0
 800166a:	d126      	bne.n	80016ba <L_large_denom>
 800166c:	2a00      	cmp	r2, #0
 800166e:	d01a      	beq.n	80016a6 <L_divison_by_0>
 8001670:	2900      	cmp	r1, #0
 8001672:	d019      	beq.n	80016a8 <L_fallback_32bits>
 8001674:	b5f0      	push	{r4, r5, r6, r7, lr}
 8001676:	2501      	movs	r5, #1
 8001678:	1c17      	adds	r7, r2, #0
 800167a:	d406      	bmi.n	800168a <L_upper_result>
 800167c:	42b9      	cmp	r1, r7
 800167e:	d304      	bcc.n	800168a <L_upper_result>

08001680 <L_denom_shift_loop1>:
 8001680:	006d      	lsls	r5, r5, #1
 8001682:	007f      	lsls	r7, r7, #1
 8001684:	d401      	bmi.n	800168a <L_upper_result>
 8001686:	42b9      	cmp	r1, r7
 8001688:	d2fa      	bcs.n	8001680 <L_denom_shift_loop1>

0800168a <L_upper_result>:
 800168a:	460b      	mov	r3, r1
 800168c:	4602      	mov	r2, r0
 800168e:	2100      	movs	r1, #0

08001690 <L_sub_loop1>:
 8001690:	42bb      	cmp	r3, r7
 8001692:	d301      	bcc.n	8001698 <L_dont_sub1>
 8001694:	1bdb      	subs	r3, r3, r7
 8001696:	4329      	orrs	r1, r5

08001698 <L_dont_sub1>:
 8001698:	087f      	lsrs	r7, r7, #1
 800169a:	086d      	lsrs	r5, r5, #1
 800169c:	d1f8      	bne.n	8001690 <L_sub_loop1>
 800169e:	2501      	movs	r5, #1
 80016a0:	07ed      	lsls	r5, r5, #31
 80016a2:	2600      	movs	r6, #0
 80016a4:	e01b      	b.n	80016de <L_lower_result>

080016a6 <L_divison_by_0>:
 80016a6:	e029      	b.n	80016fc <__aeabi_ldiv0>

080016a8 <L_fallback_32bits>:
 80016a8:	4601      	mov	r1, r0
 80016aa:	fbb0 f0f2 	udiv	r0, r0, r2
 80016ae:	fb00 f302 	mul.w	r3, r0, r2
 80016b2:	1a9a      	subs	r2, r3, r2
 80016b4:	2100      	movs	r1, #0
 80016b6:	2300      	movs	r3, #0
 80016b8:	4770      	bx	lr

080016ba <L_large_denom>:
 80016ba:	b5f0      	push	{r4, r5, r6, r7, lr}
 80016bc:	461f      	mov	r7, r3
 80016be:	4616      	mov	r6, r2
 80016c0:	460b      	mov	r3, r1
 80016c2:	4602      	mov	r2, r0
 80016c4:	2100      	movs	r1, #0
 80016c6:	2501      	movs	r5, #1
 80016c8:	3700      	adds	r7, #0
 80016ca:	d408      	bmi.n	80016de <L_lower_result>
 80016cc:	42bb      	cmp	r3, r7
 80016ce:	d306      	bcc.n	80016de <L_lower_result>

080016d0 <L_denom_shift_loop4>:
 80016d0:	006d      	lsls	r5, r5, #1
 80016d2:	007f      	lsls	r7, r7, #1
 80016d4:	0076      	lsls	r6, r6, #1
 80016d6:	414f      	adcs	r7, r1
 80016d8:	d401      	bmi.n	80016de <L_lower_result>
 80016da:	42bb      	cmp	r3, r7
 80016dc:	d2f8      	bcs.n	80016d0 <L_denom_shift_loop4>

080016de <L_lower_result>:
 80016de:	2000      	movs	r0, #0

080016e0 <L_sub_loop4>:
 80016e0:	461c      	mov	r4, r3
 80016e2:	42b2      	cmp	r2, r6
 80016e4:	41bc      	sbcs	r4, r7
 80016e6:	d302      	bcc.n	80016ee <L_dont_sub4>
 80016e8:	1b92      	subs	r2, r2, r6
 80016ea:	41bb      	sbcs	r3, r7
 80016ec:	4328      	orrs	r0, r5

080016ee <L_dont_sub4>:
 80016ee:	07fc      	lsls	r4, r7, #31
 80016f0:	0876      	lsrs	r6, r6, #1
 80016f2:	087f      	lsrs	r7, r7, #1
 80016f4:	4326      	orrs	r6, r4
 80016f6:	086d      	lsrs	r5, r5, #1
 80016f8:	d1f2      	bne.n	80016e0 <L_sub_loop4>
 80016fa:	bdf0      	pop	{r4, r5, r6, r7, pc}

080016fc <__aeabi_ldiv0>:
 80016fc:	2005      	movs	r0, #5
 80016fe:	f7ff fdf3 	bl	80012e8 <kernel_panic>

08001702 <__aeabi_ldivmod>:
 8001702:	2900      	cmp	r1, #0
 8001704:	da1c      	bge.n	8001740 <L_num_pos>
 8001706:	b510      	push	{r4, lr}
 8001708:	2400      	movs	r4, #0
 800170a:	4240      	negs	r0, r0
 800170c:	418c      	sbcs	r4, r1
 800170e:	4621      	mov	r1, r4
 8001710:	2b00      	cmp	r3, #0
 8001712:	da0a      	bge.n	800172a <L_neg_both>
 8001714:	2400      	movs	r4, #0
 8001716:	4252      	negs	r2, r2
 8001718:	419c      	sbcs	r4, r3
 800171a:	4623      	mov	r3, r4
 800171c:	f7ff ffa4 	bl	8001668 <__aeabi_uldivmod>
 8001720:	2400      	movs	r4, #0
 8001722:	4252      	negs	r2, r2
 8001724:	419c      	sbcs	r4, r3
 8001726:	4623      	mov	r3, r4
 8001728:	bd10      	pop	{r4, pc}

0800172a <L_neg_both>:
 800172a:	f7ff ff9d 	bl	8001668 <__aeabi_uldivmod>
 800172e:	2400      	movs	r4, #0
 8001730:	4240      	negs	r0, r0
 8001732:	418c      	sbcs	r4, r1
 8001734:	4621      	mov	r1, r4
 8001736:	2400      	movs	r4, #0
 8001738:	4252      	negs	r2, r2
 800173a:	419c      	sbcs	r4, r3
 800173c:	4623      	mov	r3, r4
 800173e:	bd10      	pop	{r4, pc}

08001740 <L_num_pos>:
 8001740:	2b00      	cmp	r3, #0
 8001742:	f6bf af91 	bge.w	8001668 <__aeabi_uldivmod>
 8001746:	b510      	push	{r4, lr}
 8001748:	2400      	movs	r4, #0
 800174a:	4252      	negs	r2, r2
 800174c:	419c      	sbcs	r4, r3
 800174e:	4623      	mov	r3, r4
 8001750:	f7ff ff8a 	bl	8001668 <__aeabi_uldivmod>
 8001754:	2400      	movs	r4, #0
 8001756:	4240      	negs	r0, r0
 8001758:	418c      	sbcs	r4, r1
 800175a:	4621      	mov	r1, r4
 800175c:	bd10      	pop	{r4, pc}
	...
